

Microchip MPLAB XC8 Assembler V2.10 build 88905656 
                                                                                               Mon Mar 16 22:38:19 2020

Microchip MPLAB XC8 C Compiler v2.10 (Free license) build 20190730164152 Og1 
     1                           	processor	16F887
     2                           	opt	pw 120
     3                           	opt	flic
     4                           	psect	cinit,global,class=CODE,merge=1,delta=2
     5                           	psect	bssCOMMON,global,class=COMMON,space=1,delta=1
     6                           	psect	cstackCOMMON,global,class=COMMON,space=1,delta=1
     7                           	psect	maintext,global,class=CODE,split=1,delta=2
     8                           	psect	text1,local,class=CODE,merge=1,delta=2
     9                           	psect	text2,local,class=CODE,merge=1,delta=2
    10                           	psect	text3,local,class=CODE,merge=1,delta=2
    11                           	psect	text4,local,class=CODE,merge=1,delta=2
    12                           	psect	text5,local,class=CODE,merge=1,delta=2
    13                           	psect	text6,local,class=CODE,merge=1,delta=2
    14                           	psect	text7,local,class=CODE,merge=1,delta=2
    15                           	psect	text8,local,class=CODE,merge=1,delta=2
    16                           	psect	intentry,global,class=CODE,delta=2
    17                           	dabs	1,0x7E,2
    18  0000                     
    19                           ; Version 2.10
    20                           ; Generated 31/07/2019 GMT
    21                           ; 
    22                           ; Copyright © 2019, Microchip Technology Inc. and its subsidiaries ("Microchip")
    23                           ; All rights reserved.
    24                           ; 
    25                           ; This software is developed by Microchip Technology Inc. and its subsidiaries ("Microch
      +                          ip").
    26                           ; 
    27                           ; Redistribution and use in source and binary forms, with or without modification, are
    28                           ; permitted provided that the following conditions are met:
    29                           ; 
    30                           ;     1. Redistributions of source code must retain the above copyright notice, this lis
      +                          t of
    31                           ;        conditions and the following disclaimer.
    32                           ; 
    33                           ;     2. Redistributions in binary form must reproduce the above copyright notice, this 
      +                          list
    34                           ;        of conditions and the following disclaimer in the documentation and/or other
    35                           ;        materials provided with the distribution.
    36                           ; 
    37                           ;     3. Microchip's name may not be used to endorse or promote products derived from th
      +                          is
    38                           ;        software without specific prior written permission.
    39                           ; 
    40                           ; THIS SOFTWARE IS PROVIDED BY MICROCHIP "AS IS" AND ANY EXPRESS OR IMPLIED WARRANTIES,
    41                           ; INCLUDING, BUT NOT LIMITED TO, THE IMPLIED WARRANTIES OF MERCHANTABILITY AND FITNESS F
      +                          OR
    42                           ; PURPOSE ARE DISCLAIMED.  IN NO EVENT SHALL MICROCHIP BE LIABLE FOR ANY DIRECT, INDIREC
      +                          T,
    43                           ; INCIDENTAL, SPECIAL, EXEMPLARY, OR CONSEQUENTIAL DAMAGES (INCLUDING BUT NOT LIMITED TO
    44                           ; PROCUREMENT OF SUBSTITUTE GOODS OR SERVICES; LOSS OF USE, DATA OR PROFITS; OR BUSINESS
    45                           ; INTERRUPTION) HOWSOEVER CAUSED AND ON ANY THEORY OF LIABILITY, WHETHER IN CONTRACT, ST
      +                          RICT
    46                           ; LIABILITY, OR TORT (INCLUDING NEGLIGENCE OR OTHERWISE) ARISING IN ANY WAY OUT OF THE U
      +                          SE OF
    47                           ; THIS SOFTWARE, EVEN IF ADVISED OF THE POSSIBILITY OF SUCH DAMAGE.
    48                           ; 
    49                           ; 
    50                           ; Code-generator required, PIC16F887 Definitions
    51                           ; 
    52                           ; SFR Addresses
    53  0000                     	;# 
    54  0001                     	;# 
    55  0002                     	;# 
    56  0003                     	;# 
    57  0004                     	;# 
    58  0005                     	;# 
    59  0006                     	;# 
    60  0007                     	;# 
    61  0008                     	;# 
    62  0009                     	;# 
    63  000A                     	;# 
    64  000B                     	;# 
    65  000C                     	;# 
    66  000D                     	;# 
    67  000E                     	;# 
    68  000E                     	;# 
    69  000F                     	;# 
    70  0010                     	;# 
    71  0011                     	;# 
    72  0012                     	;# 
    73  0013                     	;# 
    74  0014                     	;# 
    75  0015                     	;# 
    76  0015                     	;# 
    77  0016                     	;# 
    78  0017                     	;# 
    79  0018                     	;# 
    80  0019                     	;# 
    81  001A                     	;# 
    82  001B                     	;# 
    83  001B                     	;# 
    84  001C                     	;# 
    85  001D                     	;# 
    86  001E                     	;# 
    87  001F                     	;# 
    88  0081                     	;# 
    89  0085                     	;# 
    90  0086                     	;# 
    91  0087                     	;# 
    92  0088                     	;# 
    93  0089                     	;# 
    94  008C                     	;# 
    95  008D                     	;# 
    96  008E                     	;# 
    97  008F                     	;# 
    98  0090                     	;# 
    99  0091                     	;# 
   100  0092                     	;# 
   101  0093                     	;# 
   102  0093                     	;# 
   103  0093                     	;# 
   104  0094                     	;# 
   105  0095                     	;# 
   106  0096                     	;# 
   107  0097                     	;# 
   108  0098                     	;# 
   109  0099                     	;# 
   110  009A                     	;# 
   111  009B                     	;# 
   112  009C                     	;# 
   113  009D                     	;# 
   114  009E                     	;# 
   115  009F                     	;# 
   116  0105                     	;# 
   117  0107                     	;# 
   118  0108                     	;# 
   119  0109                     	;# 
   120  010C                     	;# 
   121  010C                     	;# 
   122  010D                     	;# 
   123  010E                     	;# 
   124  010F                     	;# 
   125  0185                     	;# 
   126  0187                     	;# 
   127  0188                     	;# 
   128  0189                     	;# 
   129  018C                     	;# 
   130  018D                     	;# 
   131  0000                     	;# 
   132  0001                     	;# 
   133  0002                     	;# 
   134  0003                     	;# 
   135  0004                     	;# 
   136  0005                     	;# 
   137  0006                     	;# 
   138  0007                     	;# 
   139  0008                     	;# 
   140  0009                     	;# 
   141  000A                     	;# 
   142  000B                     	;# 
   143  000C                     	;# 
   144  000D                     	;# 
   145  000E                     	;# 
   146  000E                     	;# 
   147  000F                     	;# 
   148  0010                     	;# 
   149  0011                     	;# 
   150  0012                     	;# 
   151  0013                     	;# 
   152  0014                     	;# 
   153  0015                     	;# 
   154  0015                     	;# 
   155  0016                     	;# 
   156  0017                     	;# 
   157  0018                     	;# 
   158  0019                     	;# 
   159  001A                     	;# 
   160  001B                     	;# 
   161  001B                     	;# 
   162  001C                     	;# 
   163  001D                     	;# 
   164  001E                     	;# 
   165  001F                     	;# 
   166  0081                     	;# 
   167  0085                     	;# 
   168  0086                     	;# 
   169  0087                     	;# 
   170  0088                     	;# 
   171  0089                     	;# 
   172  008C                     	;# 
   173  008D                     	;# 
   174  008E                     	;# 
   175  008F                     	;# 
   176  0090                     	;# 
   177  0091                     	;# 
   178  0092                     	;# 
   179  0093                     	;# 
   180  0093                     	;# 
   181  0093                     	;# 
   182  0094                     	;# 
   183  0095                     	;# 
   184  0096                     	;# 
   185  0097                     	;# 
   186  0098                     	;# 
   187  0099                     	;# 
   188  009A                     	;# 
   189  009B                     	;# 
   190  009C                     	;# 
   191  009D                     	;# 
   192  009E                     	;# 
   193  009F                     	;# 
   194  0105                     	;# 
   195  0107                     	;# 
   196  0108                     	;# 
   197  0109                     	;# 
   198  010C                     	;# 
   199  010C                     	;# 
   200  010D                     	;# 
   201  010E                     	;# 
   202  010F                     	;# 
   203  0185                     	;# 
   204  0187                     	;# 
   205  0188                     	;# 
   206  0189                     	;# 
   207  018C                     	;# 
   208  018D                     	;# 
   209  0007                     _PORTC	set	7
   210  0006                     _PORTB	set	6
   211  0006                     _PORTBbits	set	6
   212  0013                     _SSPBUF	set	19
   213  0014                     _SSPCONbits	set	20
   214  001B                     _CCPR2L	set	27
   215  001D                     _CCP2CONbits	set	29
   216  0012                     _T2CONbits	set	18
   217  000C                     _PIR1bits	set	12
   218  001D                     _CCP2CON	set	29
   219  0014                     _SSPCON	set	20
   220  0063                     _SSPIF	set	99
   221  005E                     _PEIE	set	94
   222  005F                     _GIE	set	95
   223  0086                     _TRISBbits	set	134
   224  0094                     _SSPSTATbits	set	148
   225  008F                     _OSCCONbits	set	143
   226  0092                     _PR2	set	146
   227  0087                     _TRISCbits	set	135
   228  0091                     _SSPCON2	set	145
   229  0094                     _SSPSTAT	set	148
   230  0093                     _SSPADD	set	147
   231  04A0                     _BF	set	1184
   232  0463                     _SSPIE	set	1123
   233  043C                     _TRISC4	set	1084
   234  043B                     _TRISC3	set	1083
   235  0189                     _ANSELH	set	393
   236  0188                     _ANSEL	set	392
   237                           
   238                           ; #config settings
   239  0000                     
   240                           	psect	cinit
   241  000F                     start_initialization:	
   242  000F                     __initialization:	
   243                           
   244                           ; Clear objects allocated to COMMON
   245  000F  01F0               	clrf	__pbssCOMMON& (0+127)
   246  0010  01F1               	clrf	(__pbssCOMMON+1)& (0+127)
   247  0011  01F2               	clrf	(__pbssCOMMON+2)& (0+127)
   248  0012  01F3               	clrf	(__pbssCOMMON+3)& (0+127)
   249  0013  01F4               	clrf	(__pbssCOMMON+4)& (0+127)
   250  0014  01F5               	clrf	(__pbssCOMMON+5)& (0+127)
   251  0015                     end_of_initialization:	
   252                           ;End of C runtime variable initialization code
   253                           
   254  0015                     __end_of__initialization:	
   255  0015  0183               	clrf	3
   256  0016  120A  118A  291F   	ljmp	_main	;jump to C main() function
   257                           
   258                           	psect	bssCOMMON
   259  0070                     __pbssCOMMON:	
   260  0070                     _dato:	
   261  0070                     	ds	1
   262  0071                     _z:	
   263  0071                     	ds	1
   264  0072                     _estado2:	
   265  0072                     	ds	1
   266  0073                     _estado1:	
   267  0073                     	ds	1
   268  0074                     _basura:	
   269  0074                     	ds	1
   270  0075                     _E:	
   271  0075                     	ds	1
   272                           
   273                           	psect	cstackCOMMON
   274  0076                     __pcstackCOMMON:	
   275  0076                     ?_I2C_Negro:	
   276  0076                     ?_iniciarPWM:	
   277                           ; 1 bytes @ 0x0
   278                           
   279  0076                     ?_g0:	
   280                           ; 1 bytes @ 0x0
   281                           
   282  0076                     ?_g90:	
   283                           ; 1 bytes @ 0x0
   284                           
   285  0076                     ?_iniciarOSC:	
   286                           ; 1 bytes @ 0x0
   287                           
   288  0076                     ?_isr:	
   289                           ; 1 bytes @ 0x0
   290                           
   291  0076                     ??_isr:	
   292                           ; 1 bytes @ 0x0
   293                           
   294  0076                     ?_OPEN_CLOSE:	
   295                           ; 1 bytes @ 0x0
   296                           
   297  0076                     ?_setup:	
   298                           ; 1 bytes @ 0x0
   299                           
   300  0076                     ?_main:	
   301                           ; 1 bytes @ 0x0
   302                           
   303                           
   304                           ; 1 bytes @ 0x0
   305  0076                     	ds	3
   306  0079                     ??_I2C_Negro:	
   307  0079                     ??_iniciarPWM:	
   308                           ; 1 bytes @ 0x3
   309                           
   310  0079                     ??_g0:	
   311                           ; 1 bytes @ 0x3
   312                           
   313  0079                     ??_g90:	
   314                           ; 1 bytes @ 0x3
   315                           
   316  0079                     ??_iniciarOSC:	
   317                           ; 1 bytes @ 0x3
   318                           
   319  0079                     ??_OPEN_CLOSE:	
   320                           ; 1 bytes @ 0x3
   321                           
   322  0079                     ??_setup:	
   323                           ; 1 bytes @ 0x3
   324                           
   325  0079                     I2C_Negro@address:	
   326                           ; 1 bytes @ 0x3
   327                           
   328                           
   329                           ; 1 bytes @ 0x3
   330  0079                     	ds	2
   331  007B                     iniciarOSC@frec:	
   332                           
   333                           ; 1 bytes @ 0x5
   334  007B                     	ds	1
   335  007C                     ??_main:	
   336                           
   337                           	psect	maintext
   338  011F                     __pmaintext:	
   339                           ; 1 bytes @ 0x6
   340 ;;
   341 ;;Main: autosize = 0, tempsize = 0, incstack = 0, save=0
   342 ;;
   343 ;; *************** function _main *****************
   344 ;; Defined at:
   345 ;;		line 135 in file "Reo2.c"
   346 ;; Parameters:    Size  Location     Type
   347 ;;		None
   348 ;; Auto vars:     Size  Location     Type
   349 ;;		None
   350 ;; Return value:  Size  Location     Type
   351 ;;                  1    wreg      void 
   352 ;; Registers used:
   353 ;;		wreg, fsr0l, fsr0h, status,2, status,0, pclath, cstack
   354 ;; Tracked objects:
   355 ;;		On entry : B00/0
   356 ;;		On exit  : 0/0
   357 ;;		Unchanged: 0/0
   358 ;; Data sizes:     COMMON   BANK0   BANK1   BANK3   BANK2
   359 ;;      Params:         0       0       0       0       0
   360 ;;      Locals:         0       0       0       0       0
   361 ;;      Temps:          0       0       0       0       0
   362 ;;      Totals:         0       0       0       0       0
   363 ;;Total ram usage:        0 bytes
   364 ;; Hardware stack levels required when called:    3
   365 ;; This function calls:
   366 ;;		_I2C_Negro
   367 ;;		_OPEN_CLOSE
   368 ;;		_g0
   369 ;;		_iniciarOSC
   370 ;;		_iniciarPWM
   371 ;;		_setup
   372 ;; This function is called by:
   373 ;;		Startup code after reset
   374 ;; This function uses a non-reentrant model
   375 ;;
   376                           
   377                           
   378                           ;psect for function _main
   379  011F                     _main:	
   380  011F                     l856:	
   381                           ;incstack = 0
   382                           ; Regs used in _main: [wreg-fsr0h+status,2+status,0+pclath+cstack]
   383                           
   384                           
   385                           ;Reo2.c: 137:     iniciarOSC(4);
   386  011F  3004               	movlw	4
   387  0120  120A  118A  207E  120A  118A  	fcall	_iniciarOSC
   388  0125                     l858:	
   389                           
   390                           ;Reo2.c: 139:     setup();
   391  0125  120A  118A  2171  120A  118A  	fcall	_setup
   392  012A                     l860:	
   393                           
   394                           ;Reo2.c: 141:     I2C_Negro(0x20);
   395  012A  3020               	movlw	32
   396  012B  120A  118A  2144  120A  118A  	fcall	_I2C_Negro
   397  0130                     l862:	
   398                           
   399                           ;Reo2.c: 143:     iniciarPWM();
   400  0130  120A  118A  215E  120A  118A  	fcall	_iniciarPWM
   401  0135                     l864:	
   402                           
   403                           ;Reo2.c: 145:     E = 0;
   404  0135  01F5               	clrf	_E
   405  0136                     l866:	
   406                           
   407                           ;Reo2.c: 146:     g0();
   408  0136  120A  118A  2185  120A  118A  	fcall	_g0
   409  013B                     l868:	
   410                           
   411                           ;Reo2.c: 149:     {;Reo2.c: 150:         OPEN_CLOSE();
   412  013B  120A  118A  20DF  120A  118A  	fcall	_OPEN_CLOSE
   413  0140  293B               	goto	l868
   414  0141  120A  118A  280C   	ljmp	start
   415  0144                     __end_of_main:	
   416                           
   417                           	psect	text1
   418  0171                     __ptext1:	
   419 ;; *************** function _setup *****************
   420 ;; Defined at:
   421 ;;		line 123 in file "Reo2.c"
   422 ;; Parameters:    Size  Location     Type
   423 ;;		None
   424 ;; Auto vars:     Size  Location     Type
   425 ;;		None
   426 ;; Return value:  Size  Location     Type
   427 ;;                  1    wreg      void 
   428 ;; Registers used:
   429 ;;		status,2
   430 ;; Tracked objects:
   431 ;;		On entry : 0/0
   432 ;;		On exit  : 0/0
   433 ;;		Unchanged: 0/0
   434 ;; Data sizes:     COMMON   BANK0   BANK1   BANK3   BANK2
   435 ;;      Params:         0       0       0       0       0
   436 ;;      Locals:         0       0       0       0       0
   437 ;;      Temps:          0       0       0       0       0
   438 ;;      Totals:         0       0       0       0       0
   439 ;;Total ram usage:        0 bytes
   440 ;; Hardware stack levels used:    1
   441 ;; Hardware stack levels required when called:    1
   442 ;; This function calls:
   443 ;;		Nothing
   444 ;; This function is called by:
   445 ;;		_main
   446 ;; This function uses a non-reentrant model
   447 ;;
   448                           
   449                           
   450                           ;psect for function _setup
   451  0171                     _setup:	
   452  0171                     l816:	
   453                           ;incstack = 0
   454                           ; Regs used in _setup: [status,2]
   455                           
   456                           
   457                           ;Reo2.c: 125:     ANSEL = 0;
   458  0171  1683               	bsf	3,5	;RP0=1, select bank3
   459  0172  1703               	bsf	3,6	;RP1=1, select bank3
   460  0173  0188               	clrf	8	;volatile
   461                           
   462                           ;Reo2.c: 126:     ANSELH = 0;
   463  0174  0189               	clrf	9	;volatile
   464  0175                     l818:	
   465                           
   466                           ;Reo2.c: 128:     TRISBbits.TRISB7 = 1;
   467  0175  1683               	bsf	3,5	;RP0=1, select bank1
   468  0176  1303               	bcf	3,6	;RP1=0, select bank1
   469  0177  1786               	bsf	6,7	;volatile
   470  0178                     l820:	
   471                           
   472                           ;Reo2.c: 129:     TRISBbits.TRISB5 = 1;
   473  0178  1686               	bsf	6,5	;volatile
   474                           
   475                           ;Reo2.c: 131:     PORTB = 0;
   476  0179  1283               	bcf	3,5	;RP0=0, select bank0
   477  017A  1303               	bcf	3,6	;RP1=0, select bank0
   478  017B  0186               	clrf	6	;volatile
   479                           
   480                           ;Reo2.c: 132:     PORTC = 0;
   481  017C  0187               	clrf	7	;volatile
   482  017D                     l126:	
   483  017D  0008               	return
   484  017E                     __end_of_setup:	
   485                           
   486                           	psect	text2
   487  015E                     __ptext2:	
   488 ;; *************** function _iniciarPWM *****************
   489 ;; Defined at:
   490 ;;		line 15 in file "./PWM.h"
   491 ;; Parameters:    Size  Location     Type
   492 ;;		None
   493 ;; Auto vars:     Size  Location     Type
   494 ;;		None
   495 ;; Return value:  Size  Location     Type
   496 ;;                  1    wreg      void 
   497 ;; Registers used:
   498 ;;		wreg, status,2, status,0
   499 ;; Tracked objects:
   500 ;;		On entry : 0/0
   501 ;;		On exit  : 0/0
   502 ;;		Unchanged: 0/0
   503 ;; Data sizes:     COMMON   BANK0   BANK1   BANK3   BANK2
   504 ;;      Params:         0       0       0       0       0
   505 ;;      Locals:         0       0       0       0       0
   506 ;;      Temps:          0       0       0       0       0
   507 ;;      Totals:         0       0       0       0       0
   508 ;;Total ram usage:        0 bytes
   509 ;; Hardware stack levels used:    1
   510 ;; Hardware stack levels required when called:    1
   511 ;; This function calls:
   512 ;;		Nothing
   513 ;; This function is called by:
   514 ;;		_main
   515 ;; This function uses a non-reentrant model
   516 ;;
   517                           
   518                           
   519                           ;psect for function _iniciarPWM
   520  015E                     _iniciarPWM:	
   521  015E                     l748:	
   522                           ;incstack = 0
   523                           ; Regs used in _iniciarPWM: [wreg+status,2+status,0]
   524                           
   525                           
   526                           ;./PWM.h: 18:     TRISCbits.TRISC1 = 1;
   527  015E  1683               	bsf	3,5	;RP0=1, select bank1
   528  015F  1303               	bcf	3,6	;RP1=0, select bank1
   529  0160  1487               	bsf	7,1	;volatile
   530  0161                     l750:	
   531                           
   532                           ;./PWM.h: 19:     PR2 = 200;
   533  0161  30C8               	movlw	200
   534  0162  0092               	movwf	18	;volatile
   535                           
   536                           ;./PWM.h: 20:     CCP2CON = 0b00001100;
   537  0163  300C               	movlw	12
   538  0164  1283               	bcf	3,5	;RP0=0, select bank0
   539  0165  1303               	bcf	3,6	;RP1=0, select bank0
   540  0166  009D               	movwf	29	;volatile
   541  0167                     l752:	
   542                           
   543                           ;./PWM.h: 23:     PIR1bits.TMR2IF = 0;
   544  0167  108C               	bcf	12,1	;volatile
   545  0168                     l754:	
   546                           
   547                           ;./PWM.h: 24:     T2CONbits.T2CKPS = 0b10;
   548  0168  0812               	movf	18,w	;volatile
   549  0169  39FC               	andlw	-4
   550  016A  3802               	iorlw	2
   551  016B  0092               	movwf	18	;volatile
   552  016C                     l756:	
   553                           
   554                           ;./PWM.h: 25:     T2CONbits.TMR2ON = 1;
   555  016C  1512               	bsf	18,2	;volatile
   556  016D                     l758:	
   557                           
   558                           ;./PWM.h: 26:     TRISCbits.TRISC1 = 0;
   559  016D  1683               	bsf	3,5	;RP0=1, select bank1
   560  016E  1303               	bcf	3,6	;RP1=0, select bank1
   561  016F  1087               	bcf	7,1	;volatile
   562  0170                     l64:	
   563  0170  0008               	return
   564  0171                     __end_of_iniciarPWM:	
   565                           
   566                           	psect	text3
   567  007E                     __ptext3:	
   568 ;; *************** function _iniciarOSC *****************
   569 ;; Defined at:
   570 ;;		line 5 in file "./Oscilador.h"
   571 ;; Parameters:    Size  Location     Type
   572 ;;  frec            1    wreg     unsigned char 
   573 ;; Auto vars:     Size  Location     Type
   574 ;;  frec            1    5[COMMON] unsigned char 
   575 ;; Return value:  Size  Location     Type
   576 ;;                  1    wreg      void 
   577 ;; Registers used:
   578 ;;		wreg, fsr0l, fsr0h, status,2, status,0
   579 ;; Tracked objects:
   580 ;;		On entry : 0/0
   581 ;;		On exit  : 0/0
   582 ;;		Unchanged: 0/0
   583 ;; Data sizes:     COMMON   BANK0   BANK1   BANK3   BANK2
   584 ;;      Params:         0       0       0       0       0
   585 ;;      Locals:         1       0       0       0       0
   586 ;;      Temps:          2       0       0       0       0
   587 ;;      Totals:         3       0       0       0       0
   588 ;;Total ram usage:        3 bytes
   589 ;; Hardware stack levels used:    1
   590 ;; Hardware stack levels required when called:    1
   591 ;; This function calls:
   592 ;;		Nothing
   593 ;; This function is called by:
   594 ;;		_main
   595 ;; This function uses a non-reentrant model
   596 ;;
   597                           
   598                           
   599                           ;psect for function _iniciarOSC
   600  007E                     _iniciarOSC:	
   601                           
   602                           ;incstack = 0
   603                           ; Regs used in _iniciarOSC: [wreg-fsr0h+status,2+status,0]
   604                           ;iniciarOSC@frec stored from wreg
   605  007E  00FB               	movwf	iniciarOSC@frec
   606  007F                     l760:	
   607                           
   608                           ;./Oscilador.h: 5: void iniciarOSC(uint8_t frec);./Oscilador.h: 6: {;./Oscilador.h: 7:  
      +                             switch(frec)
   609  007F  28BB               	goto	l782
   610  0080                     l762:	
   611                           
   612                           ;./Oscilador.h: 10:             OSCCONbits.IRCF = 0b000;
   613  0080  308F               	movlw	-113
   614  0081  1683               	bsf	3,5	;RP0=1, select bank1
   615  0082  1303               	bcf	3,6	;RP1=0, select bank1
   616  0083  058F               	andwf	15,f	;volatile
   617                           
   618                           ;./Oscilador.h: 11:             break;
   619  0084  28DD               	goto	l75
   620  0085                     l764:	
   621                           
   622                           ;./Oscilador.h: 14:             OSCCONbits.IRCF = 0b001;
   623  0085  1683               	bsf	3,5	;RP0=1, select bank1
   624  0086  1303               	bcf	3,6	;RP1=0, select bank1
   625  0087  080F               	movf	15,w	;volatile
   626  0088  398F               	andlw	-113
   627  0089  3810               	iorlw	16
   628  008A  008F               	movwf	15	;volatile
   629                           
   630                           ;./Oscilador.h: 15:             break;
   631  008B  28DD               	goto	l75
   632  008C                     l766:	
   633                           
   634                           ;./Oscilador.h: 18:             OSCCONbits.IRCF = 0b010;
   635  008C  1683               	bsf	3,5	;RP0=1, select bank1
   636  008D  1303               	bcf	3,6	;RP1=0, select bank1
   637  008E  080F               	movf	15,w	;volatile
   638  008F  398F               	andlw	-113
   639  0090  3820               	iorlw	32
   640  0091  008F               	movwf	15	;volatile
   641                           
   642                           ;./Oscilador.h: 19:             break;
   643  0092  28DD               	goto	l75
   644  0093                     l768:	
   645                           
   646                           ;./Oscilador.h: 22:             OSCCONbits.IRCF = 0b001;
   647  0093  1683               	bsf	3,5	;RP0=1, select bank1
   648  0094  1303               	bcf	3,6	;RP1=0, select bank1
   649  0095  080F               	movf	15,w	;volatile
   650  0096  398F               	andlw	-113
   651  0097  3810               	iorlw	16
   652  0098  008F               	movwf	15	;volatile
   653                           
   654                           ;./Oscilador.h: 23:             break;
   655  0099  28DD               	goto	l75
   656  009A                     l770:	
   657                           
   658                           ;./Oscilador.h: 26:             OSCCONbits.IRCF = 0b100;
   659  009A  1683               	bsf	3,5	;RP0=1, select bank1
   660  009B  1303               	bcf	3,6	;RP1=0, select bank1
   661  009C  080F               	movf	15,w	;volatile
   662  009D  398F               	andlw	-113
   663  009E  3840               	iorlw	64
   664  009F  008F               	movwf	15	;volatile
   665                           
   666                           ;./Oscilador.h: 27:             break;
   667  00A0  28DD               	goto	l75
   668  00A1                     l772:	
   669                           
   670                           ;./Oscilador.h: 30:             OSCCONbits.IRCF = 0b101;
   671  00A1  1683               	bsf	3,5	;RP0=1, select bank1
   672  00A2  1303               	bcf	3,6	;RP1=0, select bank1
   673  00A3  080F               	movf	15,w	;volatile
   674  00A4  398F               	andlw	-113
   675  00A5  3850               	iorlw	80
   676  00A6  008F               	movwf	15	;volatile
   677                           
   678                           ;./Oscilador.h: 31:             break;
   679  00A7  28DD               	goto	l75
   680  00A8                     l774:	
   681                           
   682                           ;./Oscilador.h: 34:             OSCCONbits.IRCF = 0b110;
   683  00A8  1683               	bsf	3,5	;RP0=1, select bank1
   684  00A9  1303               	bcf	3,6	;RP1=0, select bank1
   685  00AA  080F               	movf	15,w	;volatile
   686  00AB  398F               	andlw	-113
   687  00AC  3860               	iorlw	96
   688  00AD  008F               	movwf	15	;volatile
   689                           
   690                           ;./Oscilador.h: 35:             break;
   691  00AE  28DD               	goto	l75
   692  00AF                     l776:	
   693                           
   694                           ;./Oscilador.h: 38:             OSCCONbits.IRCF = 0b111;
   695  00AF  3070               	movlw	112
   696  00B0  1683               	bsf	3,5	;RP0=1, select bank1
   697  00B1  1303               	bcf	3,6	;RP1=0, select bank1
   698  00B2  048F               	iorwf	15,f	;volatile
   699                           
   700                           ;./Oscilador.h: 39:             break;
   701  00B3  28DD               	goto	l75
   702  00B4                     l778:	
   703                           
   704                           ;./Oscilador.h: 42:             OSCCONbits.IRCF = 0b110;
   705  00B4  1683               	bsf	3,5	;RP0=1, select bank1
   706  00B5  1303               	bcf	3,6	;RP1=0, select bank1
   707  00B6  080F               	movf	15,w	;volatile
   708  00B7  398F               	andlw	-113
   709  00B8  3860               	iorlw	96
   710  00B9  008F               	movwf	15	;volatile
   711                           
   712                           ;./Oscilador.h: 43:             break;
   713  00BA  28DD               	goto	l75
   714  00BB                     l782:	
   715  00BB  087B               	movf	iniciarOSC@frec,w
   716  00BC  00F9               	movwf	??_iniciarOSC
   717  00BD  01FA               	clrf	??_iniciarOSC+1
   718                           
   719                           ; Switch on 2 bytes has been partitioned into a top level switch of size 1, and 1 sub-sw
      +                          itches
   720                           ; Switch size 1, requested type "simple"
   721                           ; Number of cases is 1, Range of values is 0 to 0
   722                           ; switch strategies available:
   723                           ; Name         Instructions Cycles
   724                           ; simple_byte            4     3 (average)
   725                           ; direct_byte           11     8 (fixed)
   726                           ; jumptable            260     6 (fixed)
   727                           ;	Chosen strategy is simple_byte
   728  00BE  087A               	movf	??_iniciarOSC+1,w
   729  00BF  3A00               	xorlw	0	; case 0
   730  00C0  1903               	skipnz
   731  00C1  28C3               	goto	l890
   732  00C2  28B4               	goto	l778
   733  00C3                     l890:	
   734                           
   735                           ; Switch size 1, requested type "simple"
   736                           ; Number of cases is 8, Range of values is 0 to 7
   737                           ; switch strategies available:
   738                           ; Name         Instructions Cycles
   739                           ; simple_byte           25    13 (average)
   740                           ; direct_byte           32     8 (fixed)
   741                           ; jumptable            260     6 (fixed)
   742                           ;	Chosen strategy is simple_byte
   743  00C3  0879               	movf	??_iniciarOSC,w
   744  00C4  3A00               	xorlw	0	; case 0
   745  00C5  1903               	skipnz
   746  00C6  2880               	goto	l762
   747  00C7  3A01               	xorlw	1	; case 1
   748  00C8  1903               	skipnz
   749  00C9  2885               	goto	l764
   750  00CA  3A03               	xorlw	3	; case 2
   751  00CB  1903               	skipnz
   752  00CC  288C               	goto	l766
   753  00CD  3A01               	xorlw	1	; case 3
   754  00CE  1903               	skipnz
   755  00CF  2893               	goto	l768
   756  00D0  3A07               	xorlw	7	; case 4
   757  00D1  1903               	skipnz
   758  00D2  289A               	goto	l770
   759  00D3  3A01               	xorlw	1	; case 5
   760  00D4  1903               	skipnz
   761  00D5  28A1               	goto	l772
   762  00D6  3A03               	xorlw	3	; case 6
   763  00D7  1903               	skipnz
   764  00D8  28A8               	goto	l774
   765  00D9  3A01               	xorlw	1	; case 7
   766  00DA  1903               	skipnz
   767  00DB  28AF               	goto	l776
   768  00DC  28B4               	goto	l778
   769  00DD                     l75:	
   770                           
   771                           ;./Oscilador.h: 47:     OSCCONbits.SCS = 1;
   772  00DD  140F               	bsf	15,0	;volatile
   773  00DE                     l84:	
   774  00DE  0008               	return
   775  00DF                     __end_of_iniciarOSC:	
   776                           
   777                           	psect	text4
   778  00DF                     __ptext4:	
   779 ;; *************** function _OPEN_CLOSE *****************
   780 ;; Defined at:
   781 ;;		line 98 in file "Reo2.c"
   782 ;; Parameters:    Size  Location     Type
   783 ;;		None
   784 ;; Auto vars:     Size  Location     Type
   785 ;;		None
   786 ;; Return value:  Size  Location     Type
   787 ;;                  1    wreg      void 
   788 ;; Registers used:
   789 ;;		wreg, status,2, status,0, pclath, cstack
   790 ;; Tracked objects:
   791 ;;		On entry : 0/0
   792 ;;		On exit  : 0/0
   793 ;;		Unchanged: 0/0
   794 ;; Data sizes:     COMMON   BANK0   BANK1   BANK3   BANK2
   795 ;;      Params:         0       0       0       0       0
   796 ;;      Locals:         0       0       0       0       0
   797 ;;      Temps:          1       0       0       0       0
   798 ;;      Totals:         1       0       0       0       0
   799 ;;Total ram usage:        1 bytes
   800 ;; Hardware stack levels used:    1
   801 ;; Hardware stack levels required when called:    2
   802 ;; This function calls:
   803 ;;		_g0
   804 ;;		_g90
   805 ;; This function is called by:
   806 ;;		_main
   807 ;; This function uses a non-reentrant model
   808 ;;
   809                           
   810                           
   811                           ;psect for function _OPEN_CLOSE
   812  00DF                     _OPEN_CLOSE:	
   813  00DF                     l788:	
   814                           ;incstack = 0
   815                           ; Regs used in _OPEN_CLOSE: [wreg+status,2+status,0+pclath+cstack]
   816                           
   817                           
   818                           ;Reo2.c: 100:     if (PORTBbits.RB7 == 1 && estado1 == 0)
   819  00DF  1283               	bcf	3,5	;RP0=0, select bank0
   820  00E0  1303               	bcf	3,6	;RP1=0, select bank0
   821  00E1  1F86               	btfss	6,7	;volatile
   822  00E2  28E4               	goto	u11
   823  00E3  28E5               	goto	u10
   824  00E4                     u11:	
   825  00E4  28F6               	goto	l117
   826  00E5                     u10:	
   827  00E5                     l790:	
   828  00E5  0873               	movf	_estado1,w
   829  00E6  1D03               	btfss	3,2
   830  00E7  28E9               	goto	u21
   831  00E8  28EA               	goto	u20
   832  00E9                     u21:	
   833  00E9  28F6               	goto	l117
   834  00EA                     u20:	
   835  00EA                     l792:	
   836                           
   837                           ;Reo2.c: 101:     {;Reo2.c: 102:         E = 90;
   838  00EA  305A               	movlw	90
   839  00EB  00F9               	movwf	??_OPEN_CLOSE
   840  00EC  0879               	movf	??_OPEN_CLOSE,w
   841  00ED  00F5               	movwf	_E
   842  00EE                     l794:	
   843                           
   844                           ;Reo2.c: 103:         g90();
   845  00EE  120A  118A  217E  120A  118A  	fcall	_g90
   846  00F3                     l796:	
   847                           
   848                           ;Reo2.c: 104:         estado1 = 1;
   849  00F3  01F3               	clrf	_estado1
   850  00F4  0AF3               	incf	_estado1,f
   851                           
   852                           ;Reo2.c: 105:     }
   853  00F5  2900               	goto	l802
   854  00F6                     l117:	
   855                           ;Reo2.c: 106:     else if (PORTBbits.RB7 == 0 && estado1 == 1)
   856                           
   857  00F6  1B86               	btfsc	6,7	;volatile
   858  00F7  28F9               	goto	u31
   859  00F8  28FA               	goto	u30
   860  00F9                     u31:	
   861  00F9  2900               	goto	l802
   862  00FA                     u30:	
   863  00FA                     l798:	
   864  00FA  0373               	decf	_estado1,w
   865  00FB  1D03               	btfss	3,2
   866  00FC  28FE               	goto	u41
   867  00FD  28FF               	goto	u40
   868  00FE                     u41:	
   869  00FE  2900               	goto	l802
   870  00FF                     u40:	
   871  00FF                     l800:	
   872                           
   873                           ;Reo2.c: 107:     {;Reo2.c: 108:         estado1 = 0;
   874  00FF  01F3               	clrf	_estado1
   875  0100                     l802:	
   876                           
   877                           ;Reo2.c: 111:     if (PORTBbits.RB5 == 1 && estado2 == 0)
   878  0100  1283               	bcf	3,5	;RP0=0, select bank0
   879  0101  1303               	bcf	3,6	;RP1=0, select bank0
   880  0102  1E86               	btfss	6,5	;volatile
   881  0103  2905               	goto	u51
   882  0104  2906               	goto	u50
   883  0105                     u51:	
   884  0105  2914               	goto	l120
   885  0106                     u50:	
   886  0106                     l804:	
   887  0106  0872               	movf	_estado2,w
   888  0107  1D03               	btfss	3,2
   889  0108  290A               	goto	u61
   890  0109  290B               	goto	u60
   891  010A                     u61:	
   892  010A  2914               	goto	l120
   893  010B                     u60:	
   894  010B                     l806:	
   895                           
   896                           ;Reo2.c: 112:     {;Reo2.c: 113:         E = 0;
   897  010B  01F5               	clrf	_E
   898  010C                     l808:	
   899                           
   900                           ;Reo2.c: 114:         g0();
   901  010C  120A  118A  2185  120A  118A  	fcall	_g0
   902  0111                     l810:	
   903                           
   904                           ;Reo2.c: 115:         estado2 = 1;
   905  0111  01F2               	clrf	_estado2
   906  0112  0AF2               	incf	_estado2,f
   907                           
   908                           ;Reo2.c: 116:     }
   909  0113  291E               	goto	l123
   910  0114                     l120:	
   911                           ;Reo2.c: 117:     else if (PORTBbits.RB5 == 0 && estado2 == 1)
   912                           
   913  0114  1A86               	btfsc	6,5	;volatile
   914  0115  2917               	goto	u71
   915  0116  2918               	goto	u70
   916  0117                     u71:	
   917  0117  291E               	goto	l123
   918  0118                     u70:	
   919  0118                     l812:	
   920  0118  0372               	decf	_estado2,w
   921  0119  1D03               	btfss	3,2
   922  011A  291C               	goto	u81
   923  011B  291D               	goto	u80
   924  011C                     u81:	
   925  011C  291E               	goto	l123
   926  011D                     u80:	
   927  011D                     l814:	
   928                           
   929                           ;Reo2.c: 118:     {;Reo2.c: 119:         estado2 = 0;
   930  011D  01F2               	clrf	_estado2
   931  011E                     l123:	
   932  011E  0008               	return
   933  011F                     __end_of_OPEN_CLOSE:	
   934                           
   935                           	psect	text5
   936  017E                     __ptext5:	
   937 ;; *************** function _g90 *****************
   938 ;; Defined at:
   939 ;;		line 38 in file "./PWM.h"
   940 ;; Parameters:    Size  Location     Type
   941 ;;		None
   942 ;; Auto vars:     Size  Location     Type
   943 ;;		None
   944 ;; Return value:  Size  Location     Type
   945 ;;                  1    wreg      void 
   946 ;; Registers used:
   947 ;;		wreg
   948 ;; Tracked objects:
   949 ;;		On entry : 0/0
   950 ;;		On exit  : 0/0
   951 ;;		Unchanged: 0/0
   952 ;; Data sizes:     COMMON   BANK0   BANK1   BANK3   BANK2
   953 ;;      Params:         0       0       0       0       0
   954 ;;      Locals:         0       0       0       0       0
   955 ;;      Temps:          0       0       0       0       0
   956 ;;      Totals:         0       0       0       0       0
   957 ;;Total ram usage:        0 bytes
   958 ;; Hardware stack levels used:    1
   959 ;; Hardware stack levels required when called:    1
   960 ;; This function calls:
   961 ;;		Nothing
   962 ;; This function is called by:
   963 ;;		_OPEN_CLOSE
   964 ;; This function uses a non-reentrant model
   965 ;;
   966                           
   967                           
   968                           ;psect for function _g90
   969  017E                     _g90:	
   970  017E                     l730:	
   971                           ;incstack = 0
   972                           ; Regs used in _g90: [wreg]
   973                           
   974                           
   975                           ;./PWM.h: 41:     CCP2CONbits.DC2B1 = 0;
   976  017E  1283               	bcf	3,5	;RP0=0, select bank0
   977  017F  1303               	bcf	3,6	;RP1=0, select bank0
   978  0180  129D               	bcf	29,5	;volatile
   979                           
   980                           ;./PWM.h: 42:     CCP2CONbits.DC2B0 = 0;
   981  0181  121D               	bcf	29,4	;volatile
   982  0182                     l732:	
   983                           
   984                           ;./PWM.h: 43:     CCPR2L = 0b00011001;
   985  0182  3019               	movlw	25
   986  0183  009B               	movwf	27	;volatile
   987  0184                     l70:	
   988  0184  0008               	return
   989  0185                     __end_of_g90:	
   990                           
   991                           	psect	text6
   992  0185                     __ptext6:	
   993 ;; *************** function _g0 *****************
   994 ;; Defined at:
   995 ;;		line 30 in file "./PWM.h"
   996 ;; Parameters:    Size  Location     Type
   997 ;;		None
   998 ;; Auto vars:     Size  Location     Type
   999 ;;		None
  1000 ;; Return value:  Size  Location     Type
  1001 ;;                  1    wreg      void 
  1002 ;; Registers used:
  1003 ;;		wreg
  1004 ;; Tracked objects:
  1005 ;;		On entry : 0/0
  1006 ;;		On exit  : 0/0
  1007 ;;		Unchanged: 0/0
  1008 ;; Data sizes:     COMMON   BANK0   BANK1   BANK3   BANK2
  1009 ;;      Params:         0       0       0       0       0
  1010 ;;      Locals:         0       0       0       0       0
  1011 ;;      Temps:          0       0       0       0       0
  1012 ;;      Totals:         0       0       0       0       0
  1013 ;;Total ram usage:        0 bytes
  1014 ;; Hardware stack levels used:    1
  1015 ;; Hardware stack levels required when called:    1
  1016 ;; This function calls:
  1017 ;;		Nothing
  1018 ;; This function is called by:
  1019 ;;		_OPEN_CLOSE
  1020 ;;		_main
  1021 ;; This function uses a non-reentrant model
  1022 ;;
  1023                           
  1024                           
  1025                           ;psect for function _g0
  1026  0185                     _g0:	
  1027  0185                     l726:	
  1028                           ;incstack = 0
  1029                           ; Regs used in _g0: [wreg]
  1030                           
  1031                           
  1032                           ;./PWM.h: 33:     CCP2CONbits.DC2B1 = 1;
  1033  0185  1283               	bcf	3,5	;RP0=0, select bank0
  1034  0186  1303               	bcf	3,6	;RP1=0, select bank0
  1035  0187  169D               	bsf	29,5	;volatile
  1036                           
  1037                           ;./PWM.h: 34:     CCP2CONbits.DC2B0 = 1;
  1038  0188  161D               	bsf	29,4	;volatile
  1039  0189                     l728:	
  1040                           
  1041                           ;./PWM.h: 35:     CCPR2L = 0b00000011;
  1042  0189  3003               	movlw	3
  1043  018A  009B               	movwf	27	;volatile
  1044  018B                     l67:	
  1045  018B  0008               	return
  1046  018C                     __end_of_g0:	
  1047                           
  1048                           	psect	text7
  1049  0144                     __ptext7:	
  1050 ;; *************** function _I2C_Negro *****************
  1051 ;; Defined at:
  1052 ;;		line 18 in file "./I2Cesclavo.h"
  1053 ;; Parameters:    Size  Location     Type
  1054 ;;  address         1    wreg     unsigned char 
  1055 ;; Auto vars:     Size  Location     Type
  1056 ;;  address         1    3[COMMON] unsigned char 
  1057 ;; Return value:  Size  Location     Type
  1058 ;;                  1    wreg      void 
  1059 ;; Registers used:
  1060 ;;		wreg
  1061 ;; Tracked objects:
  1062 ;;		On entry : 0/0
  1063 ;;		On exit  : 0/0
  1064 ;;		Unchanged: 0/0
  1065 ;; Data sizes:     COMMON   BANK0   BANK1   BANK3   BANK2
  1066 ;;      Params:         0       0       0       0       0
  1067 ;;      Locals:         1       0       0       0       0
  1068 ;;      Temps:          0       0       0       0       0
  1069 ;;      Totals:         1       0       0       0       0
  1070 ;;Total ram usage:        1 bytes
  1071 ;; Hardware stack levels used:    1
  1072 ;; Hardware stack levels required when called:    1
  1073 ;; This function calls:
  1074 ;;		Nothing
  1075 ;; This function is called by:
  1076 ;;		_main
  1077 ;; This function uses a non-reentrant model
  1078 ;;
  1079                           
  1080                           
  1081                           ;psect for function _I2C_Negro
  1082  0144                     _I2C_Negro:	
  1083                           
  1084                           ;incstack = 0
  1085                           ; Regs used in _I2C_Negro: [wreg]
  1086                           ;I2C_Negro@address stored from wreg
  1087  0144  00F9               	movwf	I2C_Negro@address
  1088  0145                     l734:	
  1089                           
  1090                           ;./I2Cesclavo.h: 18: void I2C_Negro(uint8_t address);./I2Cesclavo.h: 19: {;./I2Cesclavo.
      +                          h: 20:     SSPADD = address;
  1091  0145  0879               	movf	I2C_Negro@address,w
  1092  0146  1683               	bsf	3,5	;RP0=1, select bank1
  1093  0147  1303               	bcf	3,6	;RP1=0, select bank1
  1094  0148  0093               	movwf	19	;volatile
  1095                           
  1096                           ;./I2Cesclavo.h: 21:     SSPCON = 0x36;
  1097  0149  3036               	movlw	54
  1098  014A  1283               	bcf	3,5	;RP0=0, select bank0
  1099  014B  1303               	bcf	3,6	;RP1=0, select bank0
  1100  014C  0094               	movwf	20	;volatile
  1101                           
  1102                           ;./I2Cesclavo.h: 22:     SSPSTAT = 0x80;
  1103  014D  3080               	movlw	128
  1104  014E  1683               	bsf	3,5	;RP0=1, select bank1
  1105  014F  1303               	bcf	3,6	;RP1=0, select bank1
  1106  0150  0094               	movwf	20	;volatile
  1107                           
  1108                           ;./I2Cesclavo.h: 23:     SSPCON2 = 0x01;
  1109  0151  3001               	movlw	1
  1110  0152  0091               	movwf	17	;volatile
  1111  0153                     l736:	
  1112                           
  1113                           ;./I2Cesclavo.h: 24:     TRISC3 = 1;
  1114  0153  1587               	bsf	7,3	;volatile
  1115  0154                     l738:	
  1116                           
  1117                           ;./I2Cesclavo.h: 25:     TRISC4 = 1;
  1118  0154  1607               	bsf	7,4	;volatile
  1119  0155                     l740:	
  1120                           
  1121                           ;./I2Cesclavo.h: 26:     GIE = 1;
  1122  0155  178B               	bsf	11,7	;volatile
  1123  0156                     l742:	
  1124                           
  1125                           ;./I2Cesclavo.h: 27:     PEIE = 1;
  1126  0156  170B               	bsf	11,6	;volatile
  1127  0157                     l744:	
  1128                           
  1129                           ;./I2Cesclavo.h: 28:     SSPIF = 0;
  1130  0157  1283               	bcf	3,5	;RP0=0, select bank0
  1131  0158  1303               	bcf	3,6	;RP1=0, select bank0
  1132  0159  118C               	bcf	12,3	;volatile
  1133  015A                     l746:	
  1134                           
  1135                           ;./I2Cesclavo.h: 29:     SSPIE = 1;
  1136  015A  1683               	bsf	3,5	;RP0=1, select bank1
  1137  015B  1303               	bcf	3,6	;RP1=0, select bank1
  1138  015C  158C               	bsf	12,3	;volatile
  1139  015D                     l61:	
  1140  015D  0008               	return
  1141  015E                     __end_of_I2C_Negro:	
  1142                           
  1143                           	psect	text8
  1144  0019                     __ptext8:	
  1145 ;; *************** function _isr *****************
  1146 ;; Defined at:
  1147 ;;		line 54 in file "Reo2.c"
  1148 ;; Parameters:    Size  Location     Type
  1149 ;;		None
  1150 ;; Auto vars:     Size  Location     Type
  1151 ;;		None
  1152 ;; Return value:  Size  Location     Type
  1153 ;;                  1    wreg      void 
  1154 ;; Registers used:
  1155 ;;		wreg
  1156 ;; Tracked objects:
  1157 ;;		On entry : 0/0
  1158 ;;		On exit  : 0/0
  1159 ;;		Unchanged: 0/0
  1160 ;; Data sizes:     COMMON   BANK0   BANK1   BANK3   BANK2
  1161 ;;      Params:         0       0       0       0       0
  1162 ;;      Locals:         0       0       0       0       0
  1163 ;;      Temps:          3       0       0       0       0
  1164 ;;      Totals:         3       0       0       0       0
  1165 ;;Total ram usage:        3 bytes
  1166 ;; Hardware stack levels used:    1
  1167 ;; This function calls:
  1168 ;;		Nothing
  1169 ;; This function is called by:
  1170 ;;		Interrupt level 1
  1171 ;; This function uses a non-reentrant model
  1172 ;;
  1173                           
  1174                           
  1175                           ;psect for function _isr
  1176  0019                     _isr:	
  1177  0019                     i1l822:	
  1178                           
  1179                           ;Reo2.c: 60:     if(PIR1bits.SSPIF == 1)
  1180  0019  1283               	bcf	3,5	;RP0=0, select bank0
  1181  001A  1303               	bcf	3,6	;RP1=0, select bank0
  1182  001B  1D8C               	btfss	12,3	;volatile
  1183  001C  281E               	goto	u9_21
  1184  001D  281F               	goto	u9_20
  1185  001E                     u9_21:	
  1186  001E  2877               	goto	i1l114
  1187  001F                     u9_20:	
  1188  001F                     i1l824:	
  1189                           
  1190                           ;Reo2.c: 61:     {;Reo2.c: 63:         SSPCONbits.CKP = 0;
  1191  001F  1214               	bcf	20,4	;volatile
  1192                           
  1193                           ;Reo2.c: 65:         if ((SSPCONbits.SSPOV) || (SSPCONbits.WCOL))
  1194  0020  1B14               	btfsc	20,6	;volatile
  1195  0021  2823               	goto	u10_21
  1196  0022  2824               	goto	u10_20
  1197  0023                     u10_21:	
  1198  0023  2828               	goto	i1l828
  1199  0024                     u10_20:	
  1200  0024                     i1l826:	
  1201  0024  1F94               	btfss	20,7	;volatile
  1202  0025  2827               	goto	u11_21
  1203  0026  2828               	goto	u11_20
  1204  0027                     u11_21:	
  1205  0027  282F               	goto	i1l836
  1206  0028                     u11_20:	
  1207  0028                     i1l828:	
  1208                           
  1209                           ;Reo2.c: 66:         {;Reo2.c: 67:             z = SSPBUF;
  1210  0028  0813               	movf	19,w	;volatile
  1211  0029  00F6               	movwf	??_isr
  1212  002A  0876               	movf	??_isr,w
  1213  002B  00F1               	movwf	_z
  1214  002C                     i1l830:	
  1215                           
  1216                           ;Reo2.c: 68:             SSPCONbits.SSPOV = 0;
  1217  002C  1314               	bcf	20,6	;volatile
  1218  002D                     i1l832:	
  1219                           
  1220                           ;Reo2.c: 69:             SSPCONbits.WCOL = 0;
  1221  002D  1394               	bcf	20,7	;volatile
  1222  002E                     i1l834:	
  1223                           
  1224                           ;Reo2.c: 70:             SSPCONbits.CKP = 1;
  1225  002E  1614               	bsf	20,4	;volatile
  1226  002F                     i1l836:	
  1227                           
  1228                           ;Reo2.c: 73:         if(!SSPSTATbits.D_nA && !SSPSTATbits.R_nW)
  1229  002F  1683               	bsf	3,5	;RP0=1, select bank1
  1230  0030  1303               	bcf	3,6	;RP1=0, select bank1
  1231  0031  1A94               	btfsc	20,5	;volatile
  1232  0032  2834               	goto	u12_21
  1233  0033  2835               	goto	u12_20
  1234  0034                     u12_21:	
  1235  0034  2853               	goto	i1l105
  1236  0035                     u12_20:	
  1237  0035                     i1l838:	
  1238  0035  1914               	btfsc	20,2	;volatile
  1239  0036  2838               	goto	u13_21
  1240  0037  2839               	goto	u13_20
  1241  0038                     u13_21:	
  1242  0038  2853               	goto	i1l105
  1243  0039                     u13_20:	
  1244  0039                     i1l840:	
  1245                           
  1246                           ;Reo2.c: 74:         {;Reo2.c: 75:             z = SSPBUF;
  1247  0039  1283               	bcf	3,5	;RP0=0, select bank0
  1248  003A  1303               	bcf	3,6	;RP1=0, select bank0
  1249  003B  0813               	movf	19,w	;volatile
  1250  003C  00F6               	movwf	??_isr
  1251  003D  0876               	movf	??_isr,w
  1252  003E  00F1               	movwf	_z
  1253  003F                     i1l842:	
  1254                           
  1255                           ;Reo2.c: 76:             PIR1bits.SSPIF = 0;
  1256  003F  118C               	bcf	12,3	;volatile
  1257  0040                     i1l844:	
  1258                           
  1259                           ;Reo2.c: 77:             SSPCONbits.CKP = 1;
  1260  0040  1614               	bsf	20,4	;volatile
  1261  0041                     i1l106:	
  1262                           ;Reo2.c: 78:             while(!SSPSTATbits.BF);
  1263                           
  1264  0041  1683               	bsf	3,5	;RP0=1, select bank1
  1265  0042  1303               	bcf	3,6	;RP1=0, select bank1
  1266  0043  1C14               	btfss	20,0	;volatile
  1267  0044  2846               	goto	u14_21
  1268  0045  2847               	goto	u14_20
  1269  0046                     u14_21:	
  1270  0046  2841               	goto	i1l106
  1271  0047                     u14_20:	
  1272  0047                     i1l846:	
  1273                           
  1274                           ;Reo2.c: 79:             basura = SSPBUF;
  1275  0047  1283               	bcf	3,5	;RP0=0, select bank0
  1276  0048  1303               	bcf	3,6	;RP1=0, select bank0
  1277  0049  0813               	movf	19,w	;volatile
  1278  004A  00F6               	movwf	??_isr
  1279  004B  0876               	movf	??_isr,w
  1280  004C  00F4               	movwf	_basura
  1281                           
  1282                           ;Reo2.c: 80:             _delay((unsigned long)((250)*(1000000/4000000.0)));
  1283  004D  3014               	movlw	20
  1284  004E  00F6               	movwf	??_isr
  1285  004F                     u18_27:	
  1286  004F  0BF6               	decfsz	??_isr,f
  1287  0050  284F               	goto	u18_27
  1288  0051  0000               	nop
  1289                           
  1290                           ;Reo2.c: 82:         }
  1291  0052  2874               	goto	i1l109
  1292  0053                     i1l105:	
  1293                           ;Reo2.c: 84:         else if(!SSPSTATbits.D_nA && SSPSTATbits.R_nW)
  1294                           
  1295  0053  1A94               	btfsc	20,5	;volatile
  1296  0054  2856               	goto	u15_21
  1297  0055  2857               	goto	u15_20
  1298  0056                     u15_21:	
  1299  0056  2874               	goto	i1l109
  1300  0057                     u15_20:	
  1301  0057                     i1l848:	
  1302  0057  1D14               	btfss	20,2	;volatile
  1303  0058  285A               	goto	u16_21
  1304  0059  285B               	goto	u16_20
  1305  005A                     u16_21:	
  1306  005A  2874               	goto	i1l109
  1307  005B                     u16_20:	
  1308  005B                     i1l850:	
  1309                           
  1310                           ;Reo2.c: 85:         {;Reo2.c: 86:             z = SSPBUF;
  1311  005B  1283               	bcf	3,5	;RP0=0, select bank0
  1312  005C  1303               	bcf	3,6	;RP1=0, select bank0
  1313  005D  0813               	movf	19,w	;volatile
  1314  005E  00F6               	movwf	??_isr
  1315  005F  0876               	movf	??_isr,w
  1316  0060  00F1               	movwf	_z
  1317  0061                     i1l852:	
  1318                           
  1319                           ;Reo2.c: 87:             BF = 0;
  1320  0061  1683               	bsf	3,5	;RP0=1, select bank1
  1321  0062  1303               	bcf	3,6	;RP1=0, select bank1
  1322  0063  1014               	bcf	20,0	;volatile
  1323                           
  1324                           ;Reo2.c: 88:             SSPBUF = E;
  1325  0064  0875               	movf	_E,w
  1326  0065  1283               	bcf	3,5	;RP0=0, select bank0
  1327  0066  1303               	bcf	3,6	;RP1=0, select bank0
  1328  0067  0093               	movwf	19	;volatile
  1329  0068                     i1l854:	
  1330                           
  1331                           ;Reo2.c: 89:             SSPCONbits.CKP = 1;
  1332  0068  1614               	bsf	20,4	;volatile
  1333                           
  1334                           ;Reo2.c: 90:             _delay((unsigned long)((250)*(1000000/4000000.0)));
  1335  0069  3014               	movlw	20
  1336  006A  00F6               	movwf	??_isr
  1337  006B                     u19_27:	
  1338  006B  0BF6               	decfsz	??_isr,f
  1339  006C  286B               	goto	u19_27
  1340  006D  0000               	nop
  1341  006E                     i1l111:	
  1342                           ;Reo2.c: 91:             while(SSPSTATbits.BF);
  1343                           
  1344  006E  1683               	bsf	3,5	;RP0=1, select bank1
  1345  006F  1303               	bcf	3,6	;RP1=0, select bank1
  1346  0070  1814               	btfsc	20,0	;volatile
  1347  0071  2873               	goto	u17_21
  1348  0072  2874               	goto	u17_20
  1349  0073                     u17_21:	
  1350  0073  286E               	goto	i1l111
  1351  0074                     u17_20:	
  1352  0074                     i1l109:	
  1353                           
  1354                           ;Reo2.c: 94:         PIR1bits.SSPIF = 0;
  1355  0074  1283               	bcf	3,5	;RP0=0, select bank0
  1356  0075  1303               	bcf	3,6	;RP1=0, select bank0
  1357  0076  118C               	bcf	12,3	;volatile
  1358  0077                     i1l114:	
  1359  0077  0878               	movf	??_isr+2,w
  1360  0078  008A               	movwf	10
  1361  0079  0E77               	swapf	(??_isr+1)^(0+4294967168),w
  1362  007A  0083               	movwf	3
  1363  007B  0EFE               	swapf	btemp,f
  1364  007C  0E7E               	swapf	btemp,w
  1365  007D  0009               	retfie
  1366  007E                     __end_of_isr:	
  1367  007E                     btemp	set	126	;btemp
  1368  007E                     wtemp0	set	126
  1369                           
  1370                           	psect	intentry
  1371  0004                     __pintentry:	
  1372                           ;incstack = 0
  1373                           ; Regs used in _isr: [wreg]
  1374                           
  1375  0004                     interrupt_function:	
  1376  007E                     saved_w	set	btemp
  1377  0004  00FE               	movwf	btemp
  1378  0005  0E03               	swapf	3,w
  1379  0006  00F7               	movwf	??_isr+1
  1380  0007  080A               	movf	10,w
  1381  0008  00F8               	movwf	??_isr+2
  1382  0009  120A  118A  2819   	ljmp	_isr


Data Sizes:
    Strings     0
    Constant    0
    Data        0
    BSS         6
    Persistent  0
    Stack       0

Auto Spaces:
    Space          Size  Autos    Used
    COMMON           14      6      12
    BANK0            80      0       0
    BANK1            80      0       0
    BANK3            96      0       0
    BANK2            96      0       0

Pointer List with Targets:

    None.

Critical Paths under _main in COMMON

    _main->_iniciarOSC

Critical Paths under _isr in COMMON

    None.

Critical Paths under _main in BANK0

    None.

Critical Paths under _isr in BANK0

    None.

Critical Paths under _main in BANK1

    None.

Critical Paths under _isr in BANK1

    None.

Critical Paths under _main in BANK3

    None.

Critical Paths under _isr in BANK3

    None.

Critical Paths under _main in BANK2

    None.

Critical Paths under _isr in BANK2

    None.

Call Graph Tables:

 ---------------------------------------------------------------------------------
 (Depth) Function   	        Calls       Base Space   Used Autos Params    Refs
 ---------------------------------------------------------------------------------
 (0) _main                                                 0     0      0      30
                          _I2C_Negro
                         _OPEN_CLOSE
                                 _g0
                         _iniciarOSC
                         _iniciarPWM
                              _setup
 ---------------------------------------------------------------------------------
 (1) _setup                                                0     0      0       0
 ---------------------------------------------------------------------------------
 (1) _iniciarPWM                                           0     0      0       0
 ---------------------------------------------------------------------------------
 (1) _iniciarOSC                                           3     3      0      15
                                              3 COMMON     3     3      0
 ---------------------------------------------------------------------------------
 (1) _OPEN_CLOSE                                           1     1      0       0
                                              3 COMMON     1     1      0
                                 _g0
                                _g90
 ---------------------------------------------------------------------------------
 (2) _g90                                                  0     0      0       0
 ---------------------------------------------------------------------------------
 (1) _g0                                                   0     0      0       0
 ---------------------------------------------------------------------------------
 (1) _I2C_Negro                                            1     1      0      15
                                              3 COMMON     1     1      0
 ---------------------------------------------------------------------------------
 Estimated maximum stack depth 2
 ---------------------------------------------------------------------------------
 (Depth) Function   	        Calls       Base Space   Used Autos Params    Refs
 ---------------------------------------------------------------------------------
 (3) _isr                                                  3     3      0       0
                                              0 COMMON     3     3      0
 ---------------------------------------------------------------------------------
 Estimated maximum stack depth 3
 ---------------------------------------------------------------------------------

 Call Graph Graphs:

 _main (ROOT)
   _I2C_Negro
   _OPEN_CLOSE
     _g0
     _g90
   _g0
   _iniciarOSC
   _iniciarPWM
   _setup

 _isr (ROOT)

 Address spaces:
Name               Size   Autos  Total    Cost      Usage
BITCOMMON            E      0       0       0        0.0%
EEDATA             100      0       0       0        0.0%
NULL                 0      0       0       0        0.0%
CODE                 0      0       0       0        0.0%
COMMON               E      6       C       1       85.7%
BITSFR0              0      0       0       1        0.0%
SFR0                 0      0       0       1        0.0%
BITSFR1              0      0       0       2        0.0%
SFR1                 0      0       0       2        0.0%
STACK                0      0       0       2        0.0%
ABS                  0      0       C       3        0.0%
BITBANK0            50      0       0       4        0.0%
BITSFR3              0      0       0       4        0.0%
SFR3                 0      0       0       4        0.0%
BANK0               50      0       0       5        0.0%
BITSFR2              0      0       0       5        0.0%
SFR2                 0      0       0       5        0.0%
BITBANK1            50      0       0       6        0.0%
BANK1               50      0       0       7        0.0%
BITBANK3            60      0       0       8        0.0%
BANK3               60      0       0       9        0.0%
BITBANK2            60      0       0      10        0.0%
BANK2               60      0       0      11        0.0%
DATA                 0      0       C      12        0.0%


Microchip Technology PIC Macro Assembler V2.10 build 88905656 
Symbol Table                                                                                   Mon Mar 16 22:38:19 2020

                       _E 0075        __size_of_I2C_Negro 001A                         _z 0071  
             __CFG_CP$OFF 0000               _SSPSTATbits 0094                        _BF 04A0  
                      l61 015D                        l70 0184                        l64 0170  
                      l67 018B                        l75 00DD                        l84 00DE  
                      u10 00E5                        u11 00E4                        u20 00EA  
                      u21 00E9                        u30 00FA                        u31 00F9  
                      u40 00FF                        u41 00FE                        u50 0106  
                      u51 0105                        u60 010B                        u61 010A  
                      u70 0118                        u71 0117                        u80 011D  
                      u81 011C                        _g0 0185                       ?_g0 0076  
                     l120 0114                       l123 011E                       l117 00F6  
                     l126 017D                       l800 00FF                       l730 017E  
                     l810 0111                       l802 0100                       l740 0155  
                     l732 0182                       l812 0118                       l804 0106  
                     l820 0178                       l742 0156                       l734 0145  
                     l726 0185                       l814 011D                       l806 010B  
                     l750 0161                       l744 0157                       l736 0153  
                     l728 0189                       l808 010C                       l760 007F  
                     l752 0167                       l816 0171                       l746 015A  
                     l738 0154                       l770 009A                       l762 0080  
                     l754 0168                       l818 0175                       l772 00A1  
                     l764 0085                       l756 016C                       l748 015E  
                     l860 012A                       l790 00E5                       l774 00A8  
                     l766 008C                       l782 00BB                       l758 016D  
                     l862 0130                       l792 00EA                       l776 00AF  
                     l768 0093                       l864 0135                       l856 011F  
                     l794 00EE                       l890 00C3                       l778 00B4  
                     l866 0136                       l858 0125                       l796 00F3  
                     l788 00DF                       l868 013B                       l798 00FA  
                     _GIE 005F                       _PR2 0092              __CFG_CPD$OFF 0000  
                     _g90 017E                       _isr 0019                      ??_g0 0079  
            __CFG_LVP$OFF 0000                      ?_g90 0076                      ?_isr 0076  
                    _PEIE 005E                      u9_20 001F                      u9_21 001E  
            __CFG_WRT$OFF 0000                      _dato 0070                      _main 011F  
                    btemp 007E                      start 000C             __CFG_IESO$OFF 0000  
             ?_OPEN_CLOSE 0076                     ??_g90 0079                     ??_isr 0076  
                   ?_main 0076             __CFG_WDTE$OFF 0000                     _ANSEL 0188  
                   i1l111 006E                     i1l105 0053                     i1l106 0041  
                   i1l114 0077                     i1l109 0074                     i1l830 002C  
                   i1l822 0019                     i1l840 0039                     i1l832 002D  
                   i1l824 001F                     i1l850 005B                     i1l842 003F  
                   i1l834 002E                     i1l826 0024                     i1l852 0061  
                   i1l844 0040                     i1l836 002F                     i1l828 0028  
                   i1l854 0068                     i1l846 0047                     i1l838 0035  
                   i1l848 0057                     u10_20 0024                     u10_21 0023  
                   u11_20 0028                     u11_21 0027                     u12_20 0035  
                   u12_21 0034                     u13_20 0039                     u13_21 0038  
                   u14_20 0047                     u14_21 0046                     u15_20 0057  
                   u15_21 0056                     u16_20 005B                     u16_21 005A  
                   u17_20 0074                     u17_21 0073                     u18_27 004F  
                   _PORTB 0006                     _PORTC 0007                     u19_27 006B  
                   _SSPIE 0463                     _SSPIF 0063            __CFG_FCMEN$OFF 0000  
       __end_of_I2C_Negro 015E                     _setup 0171            __CFG_BOREN$OFF 0000  
                   pclath 000A                     status 0003                     wtemp0 007E  
          __CFG_MCLRE$OFF 0000           __initialization 000F              __end_of_main 0144  
                  ??_main 007C       __size_of_OPEN_CLOSE 0040                    _CCPR2L 001B  
                  ?_setup 0076                    _ANSELH 0189                    _SSPADD 0093  
                  _TRISC3 043B                    _TRISC4 043C                    _SSPCON 0014  
                  _SSPBUF 0013            __CFG_PWRTE$OFF 0000                    _basura 0074  
          iniciarOSC@frec 007B                    saved_w 007E   __end_of__initialization 0015  
          __pcstackCOMMON 0076             __end_of_setup 017E                __end_of_g0 018C  
                 ??_setup 0079              ??_OPEN_CLOSE 0079                __pmaintext 011F  
              __pintentry 0004                   _CCP2CON 001D                   _SSPCON2 0091  
      __end_of_OPEN_CLOSE 011F                   _SSPSTAT 0094                 _I2C_Negro 0144  
              _iniciarOSC 007E                _iniciarPWM 015E          I2C_Negro@address 0079  
                 __ptext1 0171                   __ptext2 015E                   __ptext3 007E  
                 __ptext4 00DF                   __ptext5 017E                   __ptext6 0185  
                 __ptext7 0144                   __ptext8 0019              __size_of_g90 0007  
                 _estado1 0073                   _estado2 0072                 _T2CONbits 0012  
            __size_of_isr 0065      end_of_initialization 0015                ?_I2C_Negro 0076  
               _PORTBbits 0006                 _TRISBbits 0086                 _TRISCbits 0087  
             _CCP2CONbits 001D               ?_iniciarOSC 0076               ?_iniciarPWM 0076  
     start_initialization 000F               __end_of_g90 0185               __end_of_isr 007E  
             ??_I2C_Negro 0079  __CFG_FOSC$INTRC_NOCLKOUT 0000               __pbssCOMMON 0070  
               ___latbits 0002       __size_of_iniciarOSC 0061       __size_of_iniciarPWM 0013  
          __size_of_setup 000D               __size_of_g0 0007         interrupt_function 0004  
                _PIR1bits 000C              ??_iniciarOSC 0079              ??_iniciarPWM 0079  
      __end_of_iniciarOSC 00DF        __end_of_iniciarPWM 0171         __CFG_BOR4V$BOR40V 0000  
           __size_of_main 0025                  intlevel1 0000                _OSCCONbits 008F  
              _OPEN_CLOSE 00DF                _SSPCONbits 0014  
