

Microchip MPLAB XC8 Assembler V2.10 build 88905656 
                                                                                               Wed Apr 08 19:33:15 2020

Microchip MPLAB XC8 C Compiler v2.10 (Free license) build 20190730164152 Og1 
     1                           	processor	16F887
     2                           	opt	pw 120
     3                           	opt	flic
     4                           	psect	strings,global,class=STRING,delta=2
     5                           	psect	cinit,global,class=CODE,merge=1,delta=2
     6                           	psect	bssBANK0,global,class=BANK0,space=1,delta=1
     7                           	psect	bssBANK1,global,class=BANK1,space=1,delta=1
     8                           	psect	clrtext,global,class=CODE,delta=2
     9                           	psect	cstackCOMMON,global,class=COMMON,space=1,delta=1
    10                           	psect	cstackBANK0,global,class=BANK0,space=1,delta=1
    11                           	psect	maintext,global,class=CODE,split=1,delta=2
    12                           	psect	text1,local,class=CODE,merge=1,delta=2
    13                           	psect	text2,local,class=CODE,merge=1,delta=2
    14                           	psect	text3,local,class=CODE,merge=1,delta=2,group=1
    15                           	psect	text4,local,class=CODE,merge=1,delta=2,group=1
    16                           	psect	text5,local,class=CODE,merge=1,delta=2,group=1
    17                           	psect	text6,local,class=CODE,merge=1,delta=2,group=1
    18                           	psect	text7,local,class=CODE,merge=1,delta=2
    19                           	psect	text8,local,class=CODE,merge=1,delta=2
    20                           	psect	text9,local,class=CODE,merge=1,delta=2
    21                           	psect	text10,local,class=CODE,merge=1,delta=2
    22                           	psect	text11,local,class=CODE,merge=1,delta=2
    23                           	psect	text12,local,class=CODE,merge=1,delta=2
    24                           	psect	text13,local,class=CODE,merge=1,delta=2
    25                           	psect	text14,local,class=CODE,merge=1,delta=2
    26                           	psect	text15,local,class=CODE,merge=1,delta=2,group=1
    27                           	psect	text16,local,class=CODE,merge=1,delta=2,group=1
    28                           	psect	text17,local,class=CODE,merge=1,delta=2
    29                           	psect	text18,local,class=CODE,merge=1,delta=2
    30                           	psect	text19,local,class=CODE,merge=1,delta=2
    31                           	psect	text20,local,class=CODE,merge=1,delta=2
    32                           	psect	text21,local,class=CODE,merge=1,delta=2
    33                           	psect	text22,local,class=CODE,merge=1,delta=2
    34                           	psect	text23,local,class=CODE,merge=1,delta=2,group=1
    35                           	psect	text24,local,class=CODE,merge=1,delta=2
    36                           	psect	text25,local,class=CODE,merge=1,delta=2
    37                           	psect	text26,local,class=CODE,merge=1,delta=2
    38                           	psect	text27,local,class=CODE,merge=1,delta=2
    39                           	psect	text28,local,class=CODE,merge=1,delta=2
    40                           	psect	text29,local,class=CODE,merge=1,delta=2
    41                           	psect	text30,local,class=CODE,merge=1,delta=2,group=1
    42                           	dabs	1,0x7E,2
    43  0000                     
    44                           ; Version 2.10
    45                           ; Generated 31/07/2019 GMT
    46                           ; 
    47                           ; Copyright © 2019, Microchip Technology Inc. and its subsidiaries ("Microchip")
    48                           ; All rights reserved.
    49                           ; 
    50                           ; This software is developed by Microchip Technology Inc. and its subsidiaries ("Microch
      +                          ip").
    51                           ; 
    52                           ; Redistribution and use in source and binary forms, with or without modification, are
    53                           ; permitted provided that the following conditions are met:
    54                           ; 
    55                           ;     1. Redistributions of source code must retain the above copyright notice, this lis
      +                          t of
    56                           ;        conditions and the following disclaimer.
    57                           ; 
    58                           ;     2. Redistributions in binary form must reproduce the above copyright notice, this 
      +                          list
    59                           ;        of conditions and the following disclaimer in the documentation and/or other
    60                           ;        materials provided with the distribution.
    61                           ; 
    62                           ;     3. Microchip's name may not be used to endorse or promote products derived from th
      +                          is
    63                           ;        software without specific prior written permission.
    64                           ; 
    65                           ; THIS SOFTWARE IS PROVIDED BY MICROCHIP "AS IS" AND ANY EXPRESS OR IMPLIED WARRANTIES,
    66                           ; INCLUDING, BUT NOT LIMITED TO, THE IMPLIED WARRANTIES OF MERCHANTABILITY AND FITNESS F
      +                          OR
    67                           ; PURPOSE ARE DISCLAIMED.  IN NO EVENT SHALL MICROCHIP BE LIABLE FOR ANY DIRECT, INDIREC
      +                          T,
    68                           ; INCIDENTAL, SPECIAL, EXEMPLARY, OR CONSEQUENTIAL DAMAGES (INCLUDING BUT NOT LIMITED TO
    69                           ; PROCUREMENT OF SUBSTITUTE GOODS OR SERVICES; LOSS OF USE, DATA OR PROFITS; OR BUSINESS
    70                           ; INTERRUPTION) HOWSOEVER CAUSED AND ON ANY THEORY OF LIABILITY, WHETHER IN CONTRACT, ST
      +                          RICT
    71                           ; LIABILITY, OR TORT (INCLUDING NEGLIGENCE OR OTHERWISE) ARISING IN ANY WAY OUT OF THE U
      +                          SE OF
    72                           ; THIS SOFTWARE, EVEN IF ADVISED OF THE POSSIBILITY OF SUCH DAMAGE.
    73                           ; 
    74                           ; 
    75                           ; Code-generator required, PIC16F887 Definitions
    76                           ; 
    77                           ; SFR Addresses
    78  0000                     	;# 
    79  0001                     	;# 
    80  0002                     	;# 
    81  0003                     	;# 
    82  0004                     	;# 
    83  0005                     	;# 
    84  0006                     	;# 
    85  0007                     	;# 
    86  0008                     	;# 
    87  0009                     	;# 
    88  000A                     	;# 
    89  000B                     	;# 
    90  000C                     	;# 
    91  000D                     	;# 
    92  000E                     	;# 
    93  000E                     	;# 
    94  000F                     	;# 
    95  0010                     	;# 
    96  0011                     	;# 
    97  0012                     	;# 
    98  0013                     	;# 
    99  0014                     	;# 
   100  0015                     	;# 
   101  0015                     	;# 
   102  0016                     	;# 
   103  0017                     	;# 
   104  0018                     	;# 
   105  0019                     	;# 
   106  001A                     	;# 
   107  001B                     	;# 
   108  001B                     	;# 
   109  001C                     	;# 
   110  001D                     	;# 
   111  001E                     	;# 
   112  001F                     	;# 
   113  0081                     	;# 
   114  0085                     	;# 
   115  0086                     	;# 
   116  0087                     	;# 
   117  0088                     	;# 
   118  0089                     	;# 
   119  008C                     	;# 
   120  008D                     	;# 
   121  008E                     	;# 
   122  008F                     	;# 
   123  0090                     	;# 
   124  0091                     	;# 
   125  0092                     	;# 
   126  0093                     	;# 
   127  0093                     	;# 
   128  0093                     	;# 
   129  0094                     	;# 
   130  0095                     	;# 
   131  0096                     	;# 
   132  0097                     	;# 
   133  0098                     	;# 
   134  0099                     	;# 
   135  009A                     	;# 
   136  009B                     	;# 
   137  009C                     	;# 
   138  009D                     	;# 
   139  009E                     	;# 
   140  009F                     	;# 
   141  0105                     	;# 
   142  0107                     	;# 
   143  0108                     	;# 
   144  0109                     	;# 
   145  010C                     	;# 
   146  010C                     	;# 
   147  010D                     	;# 
   148  010E                     	;# 
   149  010F                     	;# 
   150  0185                     	;# 
   151  0187                     	;# 
   152  0188                     	;# 
   153  0189                     	;# 
   154  018C                     	;# 
   155  018D                     	;# 
   156  0000                     	;# 
   157  0001                     	;# 
   158  0002                     	;# 
   159  0003                     	;# 
   160  0004                     	;# 
   161  0005                     	;# 
   162  0006                     	;# 
   163  0007                     	;# 
   164  0008                     	;# 
   165  0009                     	;# 
   166  000A                     	;# 
   167  000B                     	;# 
   168  000C                     	;# 
   169  000D                     	;# 
   170  000E                     	;# 
   171  000E                     	;# 
   172  000F                     	;# 
   173  0010                     	;# 
   174  0011                     	;# 
   175  0012                     	;# 
   176  0013                     	;# 
   177  0014                     	;# 
   178  0015                     	;# 
   179  0015                     	;# 
   180  0016                     	;# 
   181  0017                     	;# 
   182  0018                     	;# 
   183  0019                     	;# 
   184  001A                     	;# 
   185  001B                     	;# 
   186  001B                     	;# 
   187  001C                     	;# 
   188  001D                     	;# 
   189  001E                     	;# 
   190  001F                     	;# 
   191  0081                     	;# 
   192  0085                     	;# 
   193  0086                     	;# 
   194  0087                     	;# 
   195  0088                     	;# 
   196  0089                     	;# 
   197  008C                     	;# 
   198  008D                     	;# 
   199  008E                     	;# 
   200  008F                     	;# 
   201  0090                     	;# 
   202  0091                     	;# 
   203  0092                     	;# 
   204  0093                     	;# 
   205  0093                     	;# 
   206  0093                     	;# 
   207  0094                     	;# 
   208  0095                     	;# 
   209  0096                     	;# 
   210  0097                     	;# 
   211  0098                     	;# 
   212  0099                     	;# 
   213  009A                     	;# 
   214  009B                     	;# 
   215  009C                     	;# 
   216  009D                     	;# 
   217  009E                     	;# 
   218  009F                     	;# 
   219  0105                     	;# 
   220  0107                     	;# 
   221  0108                     	;# 
   222  0109                     	;# 
   223  010C                     	;# 
   224  010C                     	;# 
   225  010D                     	;# 
   226  010E                     	;# 
   227  010F                     	;# 
   228  0185                     	;# 
   229  0187                     	;# 
   230  0188                     	;# 
   231  0189                     	;# 
   232  018C                     	;# 
   233  018D                     	;# 
   234                           
   235                           	psect	strings
   236  0800                     __pstrings:	
   237  0800                     stringtab:	
   238  0800                     __stringtab:	
   239  0800                     stringcode:	
   240                           ;	String table - string pointers are 1 byte each
   241                           
   242  0800                     stringdir:	
   243  0800  3008               	movlw	high stringdir
   244  0801  008A               	movwf	10
   245  0802  0804               	movf	4,w
   246  0803  0A84               	incf	4,f
   247  0804  0782               	addwf	2,f
   248  0805                     __stringbase:	
   249  0805  3400               	retlw	0
   250  0806                     __end_of__stringtab:	
   251  0806                     _a:	
   252  0806  3430               	retlw	48
   253  0807  3431               	retlw	49
   254  0808  3432               	retlw	50
   255  0809  3433               	retlw	51
   256  080A  3434               	retlw	52
   257  080B  3435               	retlw	53
   258  080C  3436               	retlw	54
   259  080D  3437               	retlw	55
   260  080E  3438               	retlw	56
   261  080F  3439               	retlw	57
   262  0810                     __end_of_a:	
   263  0008                     _PORTD	set	8
   264  0007                     _PORTC	set	7
   265  0005                     _PORTA	set	5
   266  0005                     _PORTAbits	set	5
   267  0019                     _TXREG	set	25
   268  0018                     _RCSTAbits	set	24
   269  0006                     _PORTB	set	6
   270  0008                     _PORTDbits	set	8
   271  0013                     _SSPBUF	set	19
   272  0014                     _SSPCON	set	20
   273  0088                     _TRISDbits	set	136
   274  0087                     _TRISC	set	135
   275  0086                     _TRISB	set	134
   276  0085                     _TRISA	set	133
   277  009A                     _SPBRGH	set	154
   278  0099                     _SPBRG	set	153
   279  0098                     _TXSTAbits	set	152
   280  008F                     _OSCCONbits	set	143
   281  0091                     _SSPCON2bits	set	145
   282  0087                     _TRISCbits	set	135
   283  0094                     _SSPSTAT	set	148
   284  0093                     _SSPADD	set	147
   285  0091                     _SSPCON2	set	145
   286  0189                     _ANSELH	set	393
   287  0188                     _ANSEL	set	392
   288  0187                     _BAUDCTLbits	set	391
   289  0810                     STR_2:	
   290  0810  3420               	retlw	32	;' '
   291  0811  3420               	retlw	32	;' '
   292  0812  3420               	retlw	32	;' '
   293  0813  3420               	retlw	32	;' '
   294  0814  3420               	retlw	32	;' '
   295  0815  3420               	retlw	32	;' '
   296  0816  3400               	retlw	0
   297  0817                     STR_1:	
   298  0817  3441               	retlw	65	;'A'
   299  0818  344C               	retlw	76	;'L'
   300  0819  3445               	retlw	69	;'E'
   301  081A  3452               	retlw	82	;'R'
   302  081B  3454               	retlw	84	;'T'
   303  081C  3441               	retlw	65	;'A'
   304  081D  3400               	retlw	0
   305  081E                     STR_19:	
   306  081E  3448               	retlw	72	;'H'
   307  081F  346F               	retlw	111	;'o'
   308  0820  3472               	retlw	114	;'r'
   309  0821  3461               	retlw	97	;'a'
   310  0822  343A               	retlw	58	;':'
   311  0823  3400               	retlw	0
   312  0824                     STR_16:	
   313  0824  3448               	retlw	72	;'H'
   314  0825  3475               	retlw	117	;'u'
   315  0826  346D               	retlw	109	;'m'
   316  0827  346F               	retlw	111	;'o'
   317  0828  343A               	retlw	58	;':'
   318  0829  3400               	retlw	0
   319  082A                     STR_17:	
   320  082A  3454               	retlw	84	;'T'
   321  082B  3465               	retlw	101	;'e'
   322  082C  346D               	retlw	109	;'m'
   323  082D  343A               	retlw	58	;':'
   324  082E  3400               	retlw	0
   325  082F                     STR_13:	
   326  082F  344C               	retlw	76	;'L'
   327  0830  3475               	retlw	117	;'u'
   328  0831  347A               	retlw	122	;'z'
   329  0832  343A               	retlw	58	;':'
   330  0833  3400               	retlw	0
   331  0834                     STR_8:	
   332  0834  344F               	retlw	79	;'O'
   333  0835  3446               	retlw	70	;'F'
   334  0836  3446               	retlw	70	;'F'
   335  0837  3400               	retlw	0
   336  0838                     STR_14:	
   337  0838  3458               	retlw	88	;'X'
   338  0839  343A               	retlw	58	;':'
   339  083A  3400               	retlw	0
   340  083B                     STR_22:	
   341  083B  3443               	retlw	67	;'C'
   342  083C  3443               	retlw	67	;'C'
   343  083D  3400               	retlw	0
   344  083E                     STR_6:	
   345  083E  344F               	retlw	79	;'O'
   346  083F  344E               	retlw	78	;'N'
   347  0840  3400               	retlw	0
   348  0841                     STR_21:	
   349  0841  3450               	retlw	80	;'P'
   350  0842  3450               	retlw	80	;'P'
   351  0843  3400               	retlw	0
   352  0844                     STR_15:	
   353  0844  3463               	retlw	99	;'c'
   354  0845  346D               	retlw	109	;'m'
   355  0846  3400               	retlw	0
   356  0847                     STR_12:	
   357  0847  342B               	retlw	43	;'+'
   358  0848  3400               	retlw	0
   359  0849                     STR_10:	
   360  0849  342D               	retlw	45	;'-'
   361  084A  3400               	retlw	0
   362  0815                     
   363                           ; #config settings
   364  0000                     
   365                           	psect	cinit
   366  07EB                     start_initialization:	
   367  07EB                     __initialization:	
   368                           
   369                           ; Clear objects allocated to BANK0
   370  07EB  1383               	bcf	3,7	;select IRP bank0
   371  07EC  3068               	movlw	low __pbssBANK0
   372  07ED  0084               	movwf	4
   373  07EE  3070               	movlw	low (__pbssBANK0+8)
   374  07EF  160A  118A  2792  120A  118A  	fcall	clear_ram0
   375                           
   376                           ; Clear objects allocated to BANK1
   377  07F4  30A0               	movlw	low __pbssBANK1
   378  07F5  0084               	movwf	4
   379  07F6  30B8               	movlw	low (__pbssBANK1+24)
   380  07F7  160A  118A  2792  120A  118A  	fcall	clear_ram0
   381  07FC                     end_of_initialization:	
   382                           ;End of C runtime variable initialization code
   383                           
   384  07FC                     __end_of__initialization:	
   385  07FC  0183               	clrf	3
   386  07FD  120A  118A  29DC   	ljmp	_main	;jump to C main() function
   387                           
   388                           	psect	bssBANK0
   389  0068                     __pbssBANK0:	
   390  0068                     _y1:	
   391  0068                     	ds	2
   392  006A                     _calor:	
   393  006A                     	ds	1
   394  006B                     _Humo:	
   395  006B                     	ds	1
   396  006C                     _Distancia:	
   397  006C                     	ds	1
   398  006D                     _grados:	
   399  006D                     	ds	1
   400  006E                     _Luz:	
   401  006E                     	ds	1
   402  006F                     _Temp:	
   403  006F                     	ds	1
   404                           
   405                           	psect	bssBANK1
   406  00A0                     __pbssBANK1:	
   407  00A0                     _t2:	
   408  00A0                     	ds	2
   409  00A2                     _t1:	
   410  00A2                     	ds	2
   411  00A4                     _t:	
   412  00A4                     	ds	2
   413  00A6                     _w3:	
   414  00A6                     	ds	2
   415  00A8                     _w2:	
   416  00A8                     	ds	2
   417  00AA                     _w1:	
   418  00AA                     	ds	2
   419  00AC                     _w:	
   420  00AC                     	ds	2
   421  00AE                     _z1:	
   422  00AE                     	ds	2
   423  00B0                     _z:	
   424  00B0                     	ds	2
   425  00B2                     _y3:	
   426  00B2                     	ds	2
   427  00B4                     _y2:	
   428  00B4                     	ds	2
   429  00B6                     _y:	
   430  00B6                     	ds	2
   431                           
   432                           	psect	clrtext
   433  1792                     clear_ram0:	
   434                           ;	Called with FSR containing the base address, and
   435                           ;	W with the last address+1
   436                           
   437  1792  0064               	clrwdt	;clear the watchdog before getting into this loop
   438  1793                     clrloop0:	
   439  1793  0180               	clrf	0	;clear RAM location pointed to by FSR
   440  1794  0A84               	incf	4,f	;increment pointer
   441  1795  0604               	xorwf	4,w	;XOR with final address
   442  1796  1903               	btfsc	3,2	;have we reached the end yet?
   443  1797  3400               	retlw	0	;all done for this memory range, return
   444  1798  0604               	xorwf	4,w	;XOR again to restore value
   445  1799  2F93               	goto	clrloop0	;do the next byte
   446                           
   447                           	psect	cstackCOMMON
   448  0070                     __pcstackCOMMON:	
   449  0070                     ?_I2C_Master_Wait:	
   450  0070                     ??_I2C_Master_Wait:	
   451                           ; 1 bytes @ 0x0
   452                           
   453  0070                     ?_I2C_Master_Start:	
   454                           ; 1 bytes @ 0x0
   455                           
   456  0070                     ??_I2C_Master_Start:	
   457                           ; 1 bytes @ 0x0
   458                           
   459  0070                     ?_I2C_Master_Stop:	
   460                           ; 1 bytes @ 0x0
   461                           
   462  0070                     ??_I2C_Master_Stop:	
   463                           ; 1 bytes @ 0x0
   464                           
   465  0070                     ?_I2C_Master_Write:	
   466                           ; 1 bytes @ 0x0
   467                           
   468  0070                     ?_comando:	
   469                           ; 1 bytes @ 0x0
   470                           
   471  0070                     ??_comando:	
   472                           ; 1 bytes @ 0x0
   473                           
   474  0070                     ?_iniciarLCD:	
   475                           ; 1 bytes @ 0x0
   476                           
   477  0070                     ?_borrarv:	
   478                           ; 1 bytes @ 0x0
   479                           
   480  0070                     ?_imprimir:	
   481                           ; 1 bytes @ 0x0
   482                           
   483  0070                     ??_imprimir:	
   484                           ; 1 bytes @ 0x0
   485                           
   486  0070                     ?_mostrar:	
   487                           ; 1 bytes @ 0x0
   488                           
   489  0070                     ??_mostrar:	
   490                           ; 1 bytes @ 0x0
   491                           
   492  0070                     ?_shift:	
   493                           ; 1 bytes @ 0x0
   494                           
   495  0070                     ??_shift:	
   496                           ; 1 bytes @ 0x0
   497                           
   498  0070                     ?_iniciarOSC:	
   499                           ; 1 bytes @ 0x0
   500                           
   501  0070                     ??_iniciarOSC:	
   502                           ; 1 bytes @ 0x0
   503                           
   504  0070                     ?_iniciarUART:	
   505                           ; 1 bytes @ 0x0
   506                           
   507  0070                     ??_iniciarUART:	
   508                           ; 1 bytes @ 0x0
   509                           
   510  0070                     ?_temperatura:	
   511                           ; 1 bytes @ 0x0
   512                           
   513  0070                     ?_humo:	
   514                           ; 1 bytes @ 0x0
   515                           
   516  0070                     ?_ultrasonico:	
   517                           ; 1 bytes @ 0x0
   518                           
   519  0070                     ?_luces:	
   520                           ; 1 bytes @ 0x0
   521                           
   522  0070                     ?_celda:	
   523                           ; 1 bytes @ 0x0
   524                           
   525  0070                     ?_setup:	
   526                           ; 1 bytes @ 0x0
   527                           
   528  0070                     ??_setup:	
   529                           ; 1 bytes @ 0x0
   530                           
   531  0070                     ?_main:	
   532                           ; 1 bytes @ 0x0
   533                           
   534  0070                     ?__Umul8_16:	
   535                           ; 1 bytes @ 0x0
   536                           
   537  0070                     ?_I2C_Master_Read:	
   538                           ; 2 bytes @ 0x0
   539                           
   540  0070                     ?___awdiv:	
   541                           ; 2 bytes @ 0x0
   542                           
   543  0070                     ?___awmod:	
   544                           ; 2 bytes @ 0x0
   545                           
   546  0070                     ?___lldiv:	
   547                           ; 2 bytes @ 0x0
   548                           
   549  0070                     ?___xxtofl:	
   550                           ; 4 bytes @ 0x0
   551                           
   552  0070                     __Umul8_16@multiplicand:	
   553                           ; 4 bytes @ 0x0
   554                           
   555  0070                     I2C_Master_Write@d:	
   556                           ; 1 bytes @ 0x0
   557                           
   558  0070                     I2C_Master_Read@a:	
   559                           ; 2 bytes @ 0x0
   560                           
   561  0070                     ___awdiv@divisor:	
   562                           ; 2 bytes @ 0x0
   563                           
   564  0070                     ___awmod@divisor:	
   565                           ; 2 bytes @ 0x0
   566                           
   567  0070                     ___lldiv@divisor:	
   568                           ; 2 bytes @ 0x0
   569                           
   570  0070                     ___xxtofl@val:	
   571                           ; 4 bytes @ 0x0
   572                           
   573                           
   574                           ; 4 bytes @ 0x0
   575  0070                     	ds	2
   576  0072                     ??__Umul8_16:	
   577  0072                     ??_I2C_Master_Write:	
   578                           ; 1 bytes @ 0x2
   579                           
   580  0072                     ??_I2C_Master_Read:	
   581                           ; 1 bytes @ 0x2
   582                           
   583  0072                     comando@x:	
   584                           ; 1 bytes @ 0x2
   585                           
   586  0072                     mostrar@t:	
   587                           ; 1 bytes @ 0x2
   588                           
   589  0072                     iniciarOSC@frec:	
   590                           ; 1 bytes @ 0x2
   591                           
   592  0072                     imprimir@i:	
   593                           ; 1 bytes @ 0x2
   594                           
   595  0072                     ___awdiv@dividend:	
   596                           ; 2 bytes @ 0x2
   597                           
   598  0072                     ___awmod@dividend:	
   599                           ; 2 bytes @ 0x2
   600                           
   601                           
   602                           ; 2 bytes @ 0x2
   603  0072                     	ds	1
   604  0073                     ??_iniciarLCD:	
   605  0073                     ??_borrarv:	
   606                           ; 1 bytes @ 0x3
   607                           
   608  0073                     ?_colocar:	
   609                           ; 1 bytes @ 0x3
   610                           
   611  0073                     colocar@y:	
   612                           ; 1 bytes @ 0x3
   613                           
   614                           
   615                           ; 1 bytes @ 0x3
   616  0073                     	ds	1
   617  0074                     ??_colocar:	
   618  0074                     ??___awdiv:	
   619                           ; 1 bytes @ 0x4
   620                           
   621  0074                     ??___awmod:	
   622                           ; 1 bytes @ 0x4
   623                           
   624  0074                     ??___xxtofl:	
   625                           ; 1 bytes @ 0x4
   626                           
   627  0074                     imprimir@texto:	
   628                           ; 1 bytes @ 0x4
   629                           
   630  0074                     I2C_Master_Read@temp:	
   631                           ; 1 bytes @ 0x4
   632                           
   633  0074                     __Umul8_16@product:	
   634                           ; 2 bytes @ 0x4
   635                           
   636  0074                     ___lldiv@dividend:	
   637                           ; 2 bytes @ 0x4
   638                           
   639                           
   640                           ; 4 bytes @ 0x4
   641  0074                     	ds	1
   642  0075                     colocar@x:	
   643  0075                     ___awdiv@counter:	
   644                           ; 1 bytes @ 0x5
   645                           
   646  0075                     ___awmod@counter:	
   647                           ; 1 bytes @ 0x5
   648                           
   649                           
   650                           ; 1 bytes @ 0x5
   651  0075                     	ds	1
   652  0076                     colocar@temp:	
   653  0076                     ___awdiv@sign:	
   654                           ; 1 bytes @ 0x6
   655                           
   656  0076                     ___awmod@sign:	
   657                           ; 1 bytes @ 0x6
   658                           
   659  0076                     __Umul8_16@word_mpld:	
   660                           ; 1 bytes @ 0x6
   661                           
   662                           
   663                           ; 2 bytes @ 0x6
   664  0076                     	ds	1
   665  0077                     ??_celda:	
   666  0077                     ___awdiv@quotient:	
   667                           ; 1 bytes @ 0x7
   668                           
   669                           
   670                           ; 2 bytes @ 0x7
   671  0077                     	ds	1
   672  0078                     ??___lldiv:	
   673  0078                     ___xxtofl@sign:	
   674                           ; 1 bytes @ 0x8
   675                           
   676  0078                     __Umul8_16@multiplier:	
   677                           ; 1 bytes @ 0x8
   678                           
   679                           
   680                           ; 1 bytes @ 0x8
   681  0078                     	ds	1
   682  0079                     ??_humo:	
   683  0079                     ??_ultrasonico:	
   684                           ; 1 bytes @ 0x9
   685                           
   686  0079                     ??_luces:	
   687                           ; 1 bytes @ 0x9
   688                           
   689  0079                     ___xxtofl@exp:	
   690                           ; 1 bytes @ 0x9
   691                           
   692  0079                     ___lldiv@quotient:	
   693                           ; 1 bytes @ 0x9
   694                           
   695                           
   696                           ; 4 bytes @ 0x9
   697  0079                     	ds	1
   698  007A                     ___xxtofl@arg:	
   699                           
   700                           ; 4 bytes @ 0xA
   701  007A                     	ds	3
   702  007D                     ___lldiv@counter:	
   703                           
   704                           ; 1 bytes @ 0xD
   705  007D                     	ds	1
   706  007E                     ??_UARTmostrar:	
   707                           
   708                           	psect	cstackBANK0
   709  0020                     __pcstackBANK0:	
   710                           ; 1 bytes @ 0xE
   711                           
   712  0020                     ?_I2C_Master_Init:	
   713  0020                     ?___flmul:	
   714                           ; 1 bytes @ 0x0
   715                           
   716  0020                     I2C_Master_Init@c:	
   717                           ; 4 bytes @ 0x0
   718                           
   719  0020                     ___flmul@b:	
   720                           ; 4 bytes @ 0x0
   721                           
   722                           
   723                           ; 4 bytes @ 0x0
   724  0020                     	ds	4
   725  0024                     ??_I2C_Master_Init:	
   726  0024                     ___flmul@a:	
   727                           ; 1 bytes @ 0x4
   728                           
   729                           
   730                           ; 4 bytes @ 0x4
   731  0024                     	ds	4
   732  0028                     ??___flmul:	
   733                           
   734                           ; 1 bytes @ 0x8
   735  0028                     	ds	5
   736  002D                     ___flmul@sign:	
   737                           
   738                           ; 1 bytes @ 0xD
   739  002D                     	ds	1
   740  002E                     ___flmul@grs:	
   741                           
   742                           ; 4 bytes @ 0xE
   743  002E                     	ds	4
   744  0032                     ___flmul@aexp:	
   745                           
   746                           ; 1 bytes @ 0x12
   747  0032                     	ds	1
   748  0033                     ___flmul@bexp:	
   749                           
   750                           ; 1 bytes @ 0x13
   751  0033                     	ds	1
   752  0034                     ___flmul@prod:	
   753                           
   754                           ; 4 bytes @ 0x14
   755  0034                     	ds	4
   756  0038                     ___flmul@temp:	
   757                           
   758                           ; 2 bytes @ 0x18
   759  0038                     	ds	2
   760  003A                     ?___fldiv:	
   761  003A                     ___fldiv@a:	
   762                           ; 4 bytes @ 0x1A
   763                           
   764                           
   765                           ; 4 bytes @ 0x1A
   766  003A                     	ds	4
   767  003E                     ___fldiv@b:	
   768                           
   769                           ; 4 bytes @ 0x1E
   770  003E                     	ds	4
   771  0042                     ??___fldiv:	
   772                           
   773                           ; 1 bytes @ 0x22
   774  0042                     	ds	5
   775  0047                     ___fldiv@rem:	
   776                           
   777                           ; 4 bytes @ 0x27
   778  0047                     	ds	4
   779  004B                     ___fldiv@sign:	
   780                           
   781                           ; 1 bytes @ 0x2B
   782  004B                     	ds	1
   783  004C                     ___fldiv@new_exp:	
   784                           
   785                           ; 2 bytes @ 0x2C
   786  004C                     	ds	2
   787  004E                     ___fldiv@grs:	
   788                           
   789                           ; 4 bytes @ 0x2E
   790  004E                     	ds	4
   791  0052                     ___fldiv@bexp:	
   792                           
   793                           ; 1 bytes @ 0x32
   794  0052                     	ds	1
   795  0053                     ___fldiv@aexp:	
   796                           
   797                           ; 1 bytes @ 0x33
   798  0053                     	ds	1
   799  0054                     ?___fltol:	
   800  0054                     ___fltol@f1:	
   801                           ; 4 bytes @ 0x34
   802                           
   803                           
   804                           ; 4 bytes @ 0x34
   805  0054                     	ds	4
   806  0058                     ??___fltol:	
   807                           
   808                           ; 1 bytes @ 0x38
   809  0058                     	ds	5
   810  005D                     ___fltol@sign1:	
   811                           
   812                           ; 1 bytes @ 0x3D
   813  005D                     	ds	1
   814  005E                     ___fltol@exp1:	
   815                           
   816                           ; 1 bytes @ 0x3E
   817  005E                     	ds	1
   818  005F                     ?_UARTmostrar:	
   819  005F                     ??_temperatura:	
   820                           ; 1 bytes @ 0x3F
   821                           
   822  005F                     UARTmostrar@x:	
   823                           ; 1 bytes @ 0x3F
   824                           
   825                           
   826                           ; 4 bytes @ 0x3F
   827  005F                     	ds	5
   828  0064                     ??_main:	
   829                           
   830                           ; 1 bytes @ 0x44
   831  0064                     	ds	4
   832                           
   833                           	psect	maintext
   834  01DC                     __pmaintext:	
   835 ;;
   836 ;;Main: autosize = 0, tempsize = 4, incstack = 0, save=0
   837 ;;
   838 ;; *************** function _main *****************
   839 ;; Defined at:
   840 ;;		line 220 in file "Carcelero.c"
   841 ;; Parameters:    Size  Location     Type
   842 ;;		None
   843 ;; Auto vars:     Size  Location     Type
   844 ;;		None
   845 ;; Return value:  Size  Location     Type
   846 ;;                  1    wreg      void 
   847 ;; Registers used:
   848 ;;		wreg, fsr0l, fsr0h, status,2, status,0, btemp+1, pclath, cstack
   849 ;; Tracked objects:
   850 ;;		On entry : B00/0
   851 ;;		On exit  : 0/0
   852 ;;		Unchanged: 0/0
   853 ;; Data sizes:     COMMON   BANK0   BANK1   BANK3   BANK2
   854 ;;      Params:         0       0       0       0       0
   855 ;;      Locals:         0       0       0       0       0
   856 ;;      Temps:          0       4       0       0       0
   857 ;;      Totals:         0       4       0       0       0
   858 ;;Total ram usage:        4 bytes
   859 ;; Hardware stack levels required when called:    3
   860 ;; This function calls:
   861 ;;		_I2C_Master_Init
   862 ;;		_I2C_Master_Read
   863 ;;		_I2C_Master_Start
   864 ;;		_I2C_Master_Stop
   865 ;;		_I2C_Master_Write
   866 ;;		_UARTmostrar
   867 ;;		___xxtofl
   868 ;;		_borrarv
   869 ;;		_celda
   870 ;;		_colocar
   871 ;;		_humo
   872 ;;		_imprimir
   873 ;;		_iniciarLCD
   874 ;;		_iniciarOSC
   875 ;;		_iniciarUART
   876 ;;		_luces
   877 ;;		_mostrar
   878 ;;		_setup
   879 ;;		_shift
   880 ;;		_temperatura
   881 ;;		_ultrasonico
   882 ;; This function is called by:
   883 ;;		Startup code after reset
   884 ;; This function uses a non-reentrant model
   885 ;;
   886                           
   887                           
   888                           ;psect for function _main
   889  01DC                     _main:	
   890  01DC                     l2470:	
   891                           ;incstack = 0
   892                           ; Regs used in _main: [wreg-fsr0h+status,2+status,0+btemp+1+pclath+cstack]
   893                           
   894                           
   895                           ;Carcelero.c: 222:     iniciarOSC(6);
   896  01DC  3006               	movlw	6
   897  01DD  120A  158A  2269  120A  118A  	fcall	_iniciarOSC
   898  01E2                     l2472:	
   899                           
   900                           ;Carcelero.c: 224:     setup();
   901  01E2  160A  118A  27C7  120A  118A  	fcall	_setup
   902  01E7                     l2474:	
   903                           
   904                           ;Carcelero.c: 226:     iniciarLCD();
   905  01E7  120A  158A  2167  120A  118A  	fcall	_iniciarLCD
   906  01EC                     l2476:	
   907                           
   908                           ;Carcelero.c: 228:     borrarv();
   909  01EC  160A  118A  27D9  120A  118A  	fcall	_borrarv
   910  01F1                     l2478:	
   911                           
   912                           ;Carcelero.c: 230:     iniciarUART();
   913  01F1  120A  158A  206C  120A  118A  	fcall	_iniciarUART
   914  01F6                     l2480:	
   915                           
   916                           ;Carcelero.c: 232:     I2C_Master_Init(100000);
   917  01F6  3000               	movlw	0
   918  01F7  1283               	bcf	3,5	;RP0=0, select bank0
   919  01F8  1303               	bcf	3,6	;RP1=0, select bank0
   920  01F9  00A3               	movwf	I2C_Master_Init@c+3
   921  01FA  3001               	movlw	1
   922  01FB  00A2               	movwf	I2C_Master_Init@c+2
   923  01FC  3086               	movlw	134
   924  01FD  00A1               	movwf	I2C_Master_Init@c+1
   925  01FE  30A0               	movlw	160
   926  01FF  00A0               	movwf	I2C_Master_Init@c
   927  0200  120A  158A  212F  120A  118A  	fcall	_I2C_Master_Init
   928  0205                     l2482:	
   929                           
   930                           ;Carcelero.c: 234:     colocar(1,1);
   931  0205  01F3               	clrf	colocar@y
   932  0206  0AF3               	incf	colocar@y,f
   933  0207  3001               	movlw	1
   934  0208  120A  158A  2085  120A  118A  	fcall	_colocar
   935  020D                     l2484:	
   936                           
   937                           ;Carcelero.c: 235:     imprimir("Luz:");
   938  020D  302A               	movlw	(low ((STR_13-__stringbase)| (0+32768)))& (0+255)
   939  020E  120A  158A  20FE  120A  118A  	fcall	_imprimir
   940  0213                     l2486:	
   941                           
   942                           ;Carcelero.c: 237:     colocar(8,1);
   943  0213  01F3               	clrf	colocar@y
   944  0214  0AF3               	incf	colocar@y,f
   945  0215  3008               	movlw	8
   946  0216  120A  158A  2085  120A  118A  	fcall	_colocar
   947  021B                     l2488:	
   948                           
   949                           ;Carcelero.c: 238:     imprimir("X:");
   950  021B  3033               	movlw	(low ((STR_14-__stringbase)| (0+32768)))& (0+255)
   951  021C  120A  158A  20FE  120A  118A  	fcall	_imprimir
   952  0221                     l2490:	
   953                           
   954                           ;Carcelero.c: 239:     colocar(12,1);
   955  0221  01F3               	clrf	colocar@y
   956  0222  0AF3               	incf	colocar@y,f
   957  0223  300C               	movlw	12
   958  0224  120A  158A  2085  120A  118A  	fcall	_colocar
   959  0229                     l2492:	
   960                           
   961                           ;Carcelero.c: 240:     imprimir("cm");
   962  0229  303F               	movlw	(low ((STR_15-__stringbase)| (0+32768)))& (0+255)
   963  022A  120A  158A  20FE  120A  118A  	fcall	_imprimir
   964  022F                     l2494:	
   965                           
   966                           ;Carcelero.c: 242:     colocar(15,1);
   967  022F  01F3               	clrf	colocar@y
   968  0230  0AF3               	incf	colocar@y,f
   969  0231  300F               	movlw	15
   970  0232  120A  158A  2085  120A  118A  	fcall	_colocar
   971  0237                     l2496:	
   972                           
   973                           ;Carcelero.c: 243:     imprimir("Humo:");
   974  0237  301F               	movlw	(low ((STR_16-__stringbase)| (0+32768)))& (0+255)
   975  0238  120A  158A  20FE  120A  118A  	fcall	_imprimir
   976  023D                     l2498:	
   977                           
   978                           ;Carcelero.c: 245:     colocar(24,1);
   979  023D  01F3               	clrf	colocar@y
   980  023E  0AF3               	incf	colocar@y,f
   981  023F  3018               	movlw	24
   982  0240  120A  158A  2085  120A  118A  	fcall	_colocar
   983  0245                     l2500:	
   984                           
   985                           ;Carcelero.c: 246:     imprimir("Tem:");
   986  0245  3025               	movlw	(low ((STR_17-__stringbase)| (0+32768)))& (0+255)
   987  0246  120A  158A  20FE  120A  118A  	fcall	_imprimir
   988  024B                     l2502:	
   989                           
   990                           ;Carcelero.c: 247:     colocar(26,2);
   991  024B  3002               	movlw	2
   992  024C  1283               	bcf	3,5	;RP0=0, select bank0
   993  024D  1303               	bcf	3,6	;RP1=0, select bank0
   994  024E  00E4               	movwf	??_main
   995  024F  0864               	movf	??_main,w
   996  0250  00F3               	movwf	colocar@y
   997  0251  301A               	movlw	26
   998  0252  120A  158A  2085  120A  118A  	fcall	_colocar
   999  0257                     l2504:	
  1000                           
  1001                           ;Carcelero.c: 248:     mostrar(0xDF);
  1002  0257  30DF               	movlw	223
  1003  0258  120A  158A  2058  120A  118A  	fcall	_mostrar
  1004  025D                     l2506:	
  1005                           
  1006                           ;Carcelero.c: 249:     colocar(27,2);
  1007  025D  3002               	movlw	2
  1008  025E  1283               	bcf	3,5	;RP0=0, select bank0
  1009  025F  1303               	bcf	3,6	;RP1=0, select bank0
  1010  0260  00E4               	movwf	??_main
  1011  0261  0864               	movf	??_main,w
  1012  0262  00F3               	movwf	colocar@y
  1013  0263  301B               	movlw	27
  1014  0264  120A  158A  2085  120A  118A  	fcall	_colocar
  1015  0269                     l2508:	
  1016                           
  1017                           ;Carcelero.c: 250:     imprimir("C");
  1018  0269  3037               	movlw	(low (((STR_22+1)-__stringbase)| (0+32768)))& (0+255)
  1019  026A  120A  158A  20FE  120A  118A  	fcall	_imprimir
  1020  026F                     l2510:	
  1021                           
  1022                           ;Carcelero.c: 252:     colocar(29,1);
  1023  026F  01F3               	clrf	colocar@y
  1024  0270  0AF3               	incf	colocar@y,f
  1025  0271  301D               	movlw	29
  1026  0272  120A  158A  2085  120A  118A  	fcall	_colocar
  1027  0277                     l2512:	
  1028                           
  1029                           ;Carcelero.c: 253:     imprimir("Hora:");
  1030  0277  3019               	movlw	(low ((STR_19-__stringbase)| (0+32768)))& (0+255)
  1031  0278  120A  158A  20FE  120A  118A  	fcall	_imprimir
  1032  027D                     l2514:	
  1033                           
  1034                           ;Carcelero.c: 254:     colocar(31,2);
  1035  027D  3002               	movlw	2
  1036  027E  1283               	bcf	3,5	;RP0=0, select bank0
  1037  027F  1303               	bcf	3,6	;RP1=0, select bank0
  1038  0280  00E4               	movwf	??_main
  1039  0281  0864               	movf	??_main,w
  1040  0282  00F3               	movwf	colocar@y
  1041  0283  301F               	movlw	31
  1042  0284  120A  158A  2085  120A  118A  	fcall	_colocar
  1043  0289                     l2516:	
  1044                           
  1045                           ;Carcelero.c: 255:     imprimir(":");
  1046  0289  3034               	movlw	(low (((STR_14+1)-__stringbase)| (0+32768)))& (0+255)
  1047  028A  120A  158A  20FE  120A  118A  	fcall	_imprimir
  1048  028F                     l2518:	
  1049                           
  1050                           ;Carcelero.c: 257:     colocar(35,1);
  1051  028F  01F3               	clrf	colocar@y
  1052  0290  0AF3               	incf	colocar@y,f
  1053  0291  3023               	movlw	35
  1054  0292  120A  158A  2085  120A  118A  	fcall	_colocar
  1055  0297                     l2520:	
  1056                           
  1057                           ;Carcelero.c: 258:     imprimir("PP");
  1058  0297  303C               	movlw	(low ((STR_21-__stringbase)| (0+32768)))& (0+255)
  1059  0298  120A  158A  20FE  120A  118A  	fcall	_imprimir
  1060  029D                     l2522:	
  1061                           
  1062                           ;Carcelero.c: 260:     colocar(38,1);
  1063  029D  01F3               	clrf	colocar@y
  1064  029E  0AF3               	incf	colocar@y,f
  1065  029F  3026               	movlw	38
  1066  02A0  120A  158A  2085  120A  118A  	fcall	_colocar
  1067  02A5                     l2524:	
  1068                           
  1069                           ;Carcelero.c: 261:     imprimir("CC");
  1070  02A5  3036               	movlw	(low ((STR_22-__stringbase)| (0+32768)))& (0+255)
  1071  02A6  120A  158A  20FE  120A  118A  	fcall	_imprimir
  1072  02AB                     l2526:	
  1073                           
  1074                           ;Carcelero.c: 264:     {;Carcelero.c: 266:         I2C_Master_Start();
  1075  02AB  160A  118A  279A  120A  118A  	fcall	_I2C_Master_Start
  1076  02B0                     l2528:	
  1077                           
  1078                           ;Carcelero.c: 267:         I2C_Master_Write(0x11);
  1079  02B0  3011               	movlw	17
  1080  02B1  00F0               	movwf	I2C_Master_Write@d
  1081  02B2  3000               	movlw	0
  1082  02B3  00F1               	movwf	I2C_Master_Write@d+1
  1083  02B4  160A  118A  27AC  120A  118A  	fcall	_I2C_Master_Write
  1084  02B9                     l2530:	
  1085                           
  1086                           ;Carcelero.c: 268:         Luz = I2C_Master_Read(0);
  1087  02B9  3000               	movlw	0
  1088  02BA  00F0               	movwf	I2C_Master_Read@a
  1089  02BB  00F1               	movwf	I2C_Master_Read@a+1
  1090  02BC  120A  158A  20D0  120A  118A  	fcall	_I2C_Master_Read
  1091  02C1  0870               	movf	?_I2C_Master_Read,w
  1092  02C2  1283               	bcf	3,5	;RP0=0, select bank0
  1093  02C3  1303               	bcf	3,6	;RP1=0, select bank0
  1094  02C4  00E4               	movwf	??_main
  1095  02C5  0864               	movf	??_main,w
  1096  02C6  00EE               	movwf	_Luz
  1097  02C7                     l2532:	
  1098                           
  1099                           ;Carcelero.c: 269:         I2C_Master_Stop();
  1100  02C7  160A  118A  27A3  120A  118A  	fcall	_I2C_Master_Stop
  1101  02CC                     l2534:	
  1102                           
  1103                           ;Carcelero.c: 270:         _delay((unsigned long)((100)*(4000000/4000.0)));
  1104  02CC  3082               	movlw	130
  1105  02CD  1283               	bcf	3,5	;RP0=0, select bank0
  1106  02CE  1303               	bcf	3,6	;RP1=0, select bank0
  1107  02CF  00E5               	movwf	??_main+1
  1108  02D0  30DD               	movlw	221
  1109  02D1  00E4               	movwf	??_main
  1110  02D2                     u2677:	
  1111  02D2  0BE4               	decfsz	??_main,f
  1112  02D3  2AD2               	goto	u2677
  1113  02D4  0BE5               	decfsz	??_main+1,f
  1114  02D5  2AD2               	goto	u2677
  1115  02D6                     l2536:	
  1116                           
  1117                           ;Carcelero.c: 273:         I2C_Master_Start();
  1118  02D6  160A  118A  279A  120A  118A  	fcall	_I2C_Master_Start
  1119  02DB                     l2538:	
  1120                           
  1121                           ;Carcelero.c: 274:         I2C_Master_Write(0x21);
  1122  02DB  3021               	movlw	33
  1123  02DC  00F0               	movwf	I2C_Master_Write@d
  1124  02DD  3000               	movlw	0
  1125  02DE  00F1               	movwf	I2C_Master_Write@d+1
  1126  02DF  160A  118A  27AC  120A  118A  	fcall	_I2C_Master_Write
  1127  02E4                     l2540:	
  1128                           
  1129                           ;Carcelero.c: 275:         grados = I2C_Master_Read(0);
  1130  02E4  3000               	movlw	0
  1131  02E5  00F0               	movwf	I2C_Master_Read@a
  1132  02E6  00F1               	movwf	I2C_Master_Read@a+1
  1133  02E7  120A  158A  20D0  120A  118A  	fcall	_I2C_Master_Read
  1134  02EC  0870               	movf	?_I2C_Master_Read,w
  1135  02ED  1283               	bcf	3,5	;RP0=0, select bank0
  1136  02EE  1303               	bcf	3,6	;RP1=0, select bank0
  1137  02EF  00E4               	movwf	??_main
  1138  02F0  0864               	movf	??_main,w
  1139  02F1  00ED               	movwf	_grados
  1140  02F2                     l2542:	
  1141                           
  1142                           ;Carcelero.c: 276:         I2C_Master_Stop();
  1143  02F2  160A  118A  27A3  120A  118A  	fcall	_I2C_Master_Stop
  1144  02F7                     l2544:	
  1145                           
  1146                           ;Carcelero.c: 277:         _delay((unsigned long)((100)*(4000000/4000.0)));
  1147  02F7  3082               	movlw	130
  1148  02F8  1283               	bcf	3,5	;RP0=0, select bank0
  1149  02F9  1303               	bcf	3,6	;RP1=0, select bank0
  1150  02FA  00E5               	movwf	??_main+1
  1151  02FB  30DD               	movlw	221
  1152  02FC  00E4               	movwf	??_main
  1153  02FD                     u2687:	
  1154  02FD  0BE4               	decfsz	??_main,f
  1155  02FE  2AFD               	goto	u2687
  1156  02FF  0BE5               	decfsz	??_main+1,f
  1157  0300  2AFD               	goto	u2687
  1158  0301                     l2546:	
  1159                           
  1160                           ;Carcelero.c: 280:         I2C_Master_Start();
  1161  0301  160A  118A  279A  120A  118A  	fcall	_I2C_Master_Start
  1162  0306                     l2548:	
  1163                           
  1164                           ;Carcelero.c: 281:         I2C_Master_Write(0x31);
  1165  0306  3031               	movlw	49
  1166  0307  00F0               	movwf	I2C_Master_Write@d
  1167  0308  3000               	movlw	0
  1168  0309  00F1               	movwf	I2C_Master_Write@d+1
  1169  030A  160A  118A  27AC  120A  118A  	fcall	_I2C_Master_Write
  1170  030F                     l2550:	
  1171                           
  1172                           ;Carcelero.c: 282:         Distancia = I2C_Master_Read(0);
  1173  030F  3000               	movlw	0
  1174  0310  00F0               	movwf	I2C_Master_Read@a
  1175  0311  00F1               	movwf	I2C_Master_Read@a+1
  1176  0312  120A  158A  20D0  120A  118A  	fcall	_I2C_Master_Read
  1177  0317  0870               	movf	?_I2C_Master_Read,w
  1178  0318  1283               	bcf	3,5	;RP0=0, select bank0
  1179  0319  1303               	bcf	3,6	;RP1=0, select bank0
  1180  031A  00E4               	movwf	??_main
  1181  031B  0864               	movf	??_main,w
  1182  031C  00EC               	movwf	_Distancia
  1183  031D                     l2552:	
  1184                           
  1185                           ;Carcelero.c: 283:         I2C_Master_Stop();
  1186  031D  160A  118A  27A3  120A  118A  	fcall	_I2C_Master_Stop
  1187  0322                     l2554:	
  1188                           
  1189                           ;Carcelero.c: 284:         _delay((unsigned long)((100)*(4000000/4000.0)));
  1190  0322  3082               	movlw	130
  1191  0323  1283               	bcf	3,5	;RP0=0, select bank0
  1192  0324  1303               	bcf	3,6	;RP1=0, select bank0
  1193  0325  00E5               	movwf	??_main+1
  1194  0326  30DD               	movlw	221
  1195  0327  00E4               	movwf	??_main
  1196  0328                     u2697:	
  1197  0328  0BE4               	decfsz	??_main,f
  1198  0329  2B28               	goto	u2697
  1199  032A  0BE5               	decfsz	??_main+1,f
  1200  032B  2B28               	goto	u2697
  1201  032C                     l2556:	
  1202                           
  1203                           ;Carcelero.c: 287:         I2C_Master_Start();
  1204  032C  160A  118A  279A  120A  118A  	fcall	_I2C_Master_Start
  1205  0331                     l2558:	
  1206                           
  1207                           ;Carcelero.c: 288:         I2C_Master_Write(0x41);
  1208  0331  3041               	movlw	65
  1209  0332  00F0               	movwf	I2C_Master_Write@d
  1210  0333  3000               	movlw	0
  1211  0334  00F1               	movwf	I2C_Master_Write@d+1
  1212  0335  160A  118A  27AC  120A  118A  	fcall	_I2C_Master_Write
  1213  033A                     l2560:	
  1214                           
  1215                           ;Carcelero.c: 289:         Humo = I2C_Master_Read(0);
  1216  033A  3000               	movlw	0
  1217  033B  00F0               	movwf	I2C_Master_Read@a
  1218  033C  00F1               	movwf	I2C_Master_Read@a+1
  1219  033D  120A  158A  20D0  120A  118A  	fcall	_I2C_Master_Read
  1220  0342  0870               	movf	?_I2C_Master_Read,w
  1221  0343  1283               	bcf	3,5	;RP0=0, select bank0
  1222  0344  1303               	bcf	3,6	;RP1=0, select bank0
  1223  0345  00E4               	movwf	??_main
  1224  0346  0864               	movf	??_main,w
  1225  0347  00EB               	movwf	_Humo
  1226  0348                     l2562:	
  1227                           
  1228                           ;Carcelero.c: 290:         I2C_Master_Stop();
  1229  0348  160A  118A  27A3  120A  118A  	fcall	_I2C_Master_Stop
  1230  034D                     l2564:	
  1231                           
  1232                           ;Carcelero.c: 291:         _delay((unsigned long)((100)*(4000000/4000.0)));
  1233  034D  3082               	movlw	130
  1234  034E  1283               	bcf	3,5	;RP0=0, select bank0
  1235  034F  1303               	bcf	3,6	;RP1=0, select bank0
  1236  0350  00E5               	movwf	??_main+1
  1237  0351  30DD               	movlw	221
  1238  0352  00E4               	movwf	??_main
  1239  0353                     u2707:	
  1240  0353  0BE4               	decfsz	??_main,f
  1241  0354  2B53               	goto	u2707
  1242  0355  0BE5               	decfsz	??_main+1,f
  1243  0356  2B53               	goto	u2707
  1244  0357                     l2566:	
  1245                           
  1246                           ;Carcelero.c: 294:         I2C_Master_Start();
  1247  0357  160A  118A  279A  120A  118A  	fcall	_I2C_Master_Start
  1248  035C                     l2568:	
  1249                           
  1250                           ;Carcelero.c: 295:         I2C_Master_Write(0x51);
  1251  035C  3051               	movlw	81
  1252  035D  00F0               	movwf	I2C_Master_Write@d
  1253  035E  3000               	movlw	0
  1254  035F  00F1               	movwf	I2C_Master_Write@d+1
  1255  0360  160A  118A  27AC  120A  118A  	fcall	_I2C_Master_Write
  1256  0365                     l2570:	
  1257                           
  1258                           ;Carcelero.c: 296:         Temp = I2C_Master_Read(0);
  1259  0365  3000               	movlw	0
  1260  0366  00F0               	movwf	I2C_Master_Read@a
  1261  0367  00F1               	movwf	I2C_Master_Read@a+1
  1262  0368  120A  158A  20D0  120A  118A  	fcall	_I2C_Master_Read
  1263  036D  0870               	movf	?_I2C_Master_Read,w
  1264  036E  1283               	bcf	3,5	;RP0=0, select bank0
  1265  036F  1303               	bcf	3,6	;RP1=0, select bank0
  1266  0370  00E4               	movwf	??_main
  1267  0371  0864               	movf	??_main,w
  1268  0372  00EF               	movwf	_Temp
  1269  0373                     l2572:	
  1270                           
  1271                           ;Carcelero.c: 297:         I2C_Master_Stop();
  1272  0373  160A  118A  27A3  120A  118A  	fcall	_I2C_Master_Stop
  1273  0378                     l2574:	
  1274                           
  1275                           ;Carcelero.c: 298:         _delay((unsigned long)((100)*(4000000/4000.0)));
  1276  0378  3082               	movlw	130
  1277  0379  1283               	bcf	3,5	;RP0=0, select bank0
  1278  037A  1303               	bcf	3,6	;RP1=0, select bank0
  1279  037B  00E5               	movwf	??_main+1
  1280  037C  30DD               	movlw	221
  1281  037D  00E4               	movwf	??_main
  1282  037E                     u2717:	
  1283  037E  0BE4               	decfsz	??_main,f
  1284  037F  2B7E               	goto	u2717
  1285  0380  0BE5               	decfsz	??_main+1,f
  1286  0381  2B7E               	goto	u2717
  1287  0382                     l2576:	
  1288                           
  1289                           ;Carcelero.c: 300:         luces();
  1290  0382  120A  118A  20ED  120A  118A  	fcall	_luces
  1291  0387                     l2578:	
  1292                           
  1293                           ;Carcelero.c: 301:         celda();
  1294  0387  120A  158A  21BB  120A  118A  	fcall	_celda
  1295  038C                     l2580:	
  1296                           
  1297                           ;Carcelero.c: 302:         ultrasonico();
  1298  038C  120A  158A  2413  120A  118A  	fcall	_ultrasonico
  1299  0391                     l2582:	
  1300                           
  1301                           ;Carcelero.c: 303:         humo();
  1302  0391  120A  118A  2022  120A  118A  	fcall	_humo
  1303  0396                     l2584:	
  1304                           
  1305                           ;Carcelero.c: 304:         temperatura();
  1306  0396  120A  158A  255B  120A  118A  	fcall	_temperatura
  1307  039B                     l2586:	
  1308                           
  1309                           ;Carcelero.c: 305:         shift();
  1310  039B  160A  118A  27B6  120A  118A  	fcall	_shift
  1311  03A0                     l2588:	
  1312                           
  1313                           ;Carcelero.c: 307:         UARTmostrar(Humo);
  1314  03A0  1283               	bcf	3,5	;RP0=0, select bank0
  1315  03A1  1303               	bcf	3,6	;RP1=0, select bank0
  1316  03A2  086B               	movf	_Humo,w
  1317  03A3  00E4               	movwf	??_main
  1318  03A4  01E5               	clrf	??_main+1
  1319  03A5  01E6               	clrf	??_main+2
  1320  03A6  01E7               	clrf	??_main+3
  1321  03A7  0867               	movf	??_main+3,w
  1322  03A8  00F3               	movwf	___xxtofl@val+3
  1323  03A9  0866               	movf	??_main+2,w
  1324  03AA  00F2               	movwf	___xxtofl@val+2
  1325  03AB  0865               	movf	??_main+1,w
  1326  03AC  00F1               	movwf	___xxtofl@val+1
  1327  03AD  0864               	movf	??_main,w
  1328  03AE  00F0               	movwf	___xxtofl@val
  1329  03AF  3000               	movlw	0
  1330  03B0  120A  158A  24A1  120A  118A  	fcall	___xxtofl
  1331  03B5  0873               	movf	?___xxtofl+3,w
  1332  03B6  1283               	bcf	3,5	;RP0=0, select bank0
  1333  03B7  1303               	bcf	3,6	;RP1=0, select bank0
  1334  03B8  00E2               	movwf	UARTmostrar@x+3
  1335  03B9  0872               	movf	?___xxtofl+2,w
  1336  03BA  00E1               	movwf	UARTmostrar@x+2
  1337  03BB  0871               	movf	?___xxtofl+1,w
  1338  03BC  00E0               	movwf	UARTmostrar@x+1
  1339  03BD  0870               	movf	?___xxtofl,w
  1340  03BE  00DF               	movwf	UARTmostrar@x
  1341  03BF  120A  118A  2008  120A  118A  	fcall	_UARTmostrar
  1342  03C4                     l2590:	
  1343                           
  1344                           ;Carcelero.c: 308:         _delay((unsigned long)((2)*(4000000/4000.0)));
  1345  03C4  3003               	movlw	3
  1346  03C5  1283               	bcf	3,5	;RP0=0, select bank0
  1347  03C6  1303               	bcf	3,6	;RP1=0, select bank0
  1348  03C7  00E5               	movwf	??_main+1
  1349  03C8  3097               	movlw	151
  1350  03C9  00E4               	movwf	??_main
  1351  03CA                     u2727:	
  1352  03CA  0BE4               	decfsz	??_main,f
  1353  03CB  2BCA               	goto	u2727
  1354  03CC  0BE5               	decfsz	??_main+1,f
  1355  03CD  2BCA               	goto	u2727
  1356  03CE                     l2592:	
  1357                           
  1358                           ;Carcelero.c: 309:         UARTmostrar(Distancia);
  1359  03CE  1283               	bcf	3,5	;RP0=0, select bank0
  1360  03CF  1303               	bcf	3,6	;RP1=0, select bank0
  1361  03D0  086C               	movf	_Distancia,w
  1362  03D1  00E4               	movwf	??_main
  1363  03D2  01E5               	clrf	??_main+1
  1364  03D3  01E6               	clrf	??_main+2
  1365  03D4  01E7               	clrf	??_main+3
  1366  03D5  0867               	movf	??_main+3,w
  1367  03D6  00F3               	movwf	___xxtofl@val+3
  1368  03D7  0866               	movf	??_main+2,w
  1369  03D8  00F2               	movwf	___xxtofl@val+2
  1370  03D9  0865               	movf	??_main+1,w
  1371  03DA  00F1               	movwf	___xxtofl@val+1
  1372  03DB  0864               	movf	??_main,w
  1373  03DC  00F0               	movwf	___xxtofl@val
  1374  03DD  3000               	movlw	0
  1375  03DE  120A  158A  24A1  120A  118A  	fcall	___xxtofl
  1376  03E3  0873               	movf	?___xxtofl+3,w
  1377  03E4  1283               	bcf	3,5	;RP0=0, select bank0
  1378  03E5  1303               	bcf	3,6	;RP1=0, select bank0
  1379  03E6  00E2               	movwf	UARTmostrar@x+3
  1380  03E7  0872               	movf	?___xxtofl+2,w
  1381  03E8  00E1               	movwf	UARTmostrar@x+2
  1382  03E9  0871               	movf	?___xxtofl+1,w
  1383  03EA  00E0               	movwf	UARTmostrar@x+1
  1384  03EB  0870               	movf	?___xxtofl,w
  1385  03EC  00DF               	movwf	UARTmostrar@x
  1386  03ED  120A  118A  2008  120A  118A  	fcall	_UARTmostrar
  1387  03F2                     l2594:	
  1388                           
  1389                           ;Carcelero.c: 310:         _delay((unsigned long)((2)*(4000000/4000.0)));
  1390  03F2  3003               	movlw	3
  1391  03F3  1283               	bcf	3,5	;RP0=0, select bank0
  1392  03F4  1303               	bcf	3,6	;RP1=0, select bank0
  1393  03F5  00E5               	movwf	??_main+1
  1394  03F6  3097               	movlw	151
  1395  03F7  00E4               	movwf	??_main
  1396  03F8                     u2737:	
  1397  03F8  0BE4               	decfsz	??_main,f
  1398  03F9  2BF8               	goto	u2737
  1399  03FA  0BE5               	decfsz	??_main+1,f
  1400  03FB  2BF8               	goto	u2737
  1401  03FC                     l2596:	
  1402                           
  1403                           ;Carcelero.c: 311:         UARTmostrar(Luz);
  1404  03FC  1283               	bcf	3,5	;RP0=0, select bank0
  1405  03FD  1303               	bcf	3,6	;RP1=0, select bank0
  1406  03FE  086E               	movf	_Luz,w
  1407  03FF  00E4               	movwf	??_main
  1408  0400  01E5               	clrf	??_main+1
  1409  0401  01E6               	clrf	??_main+2
  1410  0402  01E7               	clrf	??_main+3
  1411  0403  0867               	movf	??_main+3,w
  1412  0404  00F3               	movwf	___xxtofl@val+3
  1413  0405  0866               	movf	??_main+2,w
  1414  0406  00F2               	movwf	___xxtofl@val+2
  1415  0407  0865               	movf	??_main+1,w
  1416  0408  00F1               	movwf	___xxtofl@val+1
  1417  0409  0864               	movf	??_main,w
  1418  040A  00F0               	movwf	___xxtofl@val
  1419  040B  3000               	movlw	0
  1420  040C  120A  158A  24A1  120A  118A  	fcall	___xxtofl
  1421  0411  0873               	movf	?___xxtofl+3,w
  1422  0412  1283               	bcf	3,5	;RP0=0, select bank0
  1423  0413  1303               	bcf	3,6	;RP1=0, select bank0
  1424  0414  00E2               	movwf	UARTmostrar@x+3
  1425  0415  0872               	movf	?___xxtofl+2,w
  1426  0416  00E1               	movwf	UARTmostrar@x+2
  1427  0417  0871               	movf	?___xxtofl+1,w
  1428  0418  00E0               	movwf	UARTmostrar@x+1
  1429  0419  0870               	movf	?___xxtofl,w
  1430  041A  00DF               	movwf	UARTmostrar@x
  1431  041B  120A  118A  2008  120A  118A  	fcall	_UARTmostrar
  1432  0420                     l2598:	
  1433                           
  1434                           ;Carcelero.c: 312:         _delay((unsigned long)((2)*(4000000/4000.0)));
  1435  0420  3003               	movlw	3
  1436  0421  1283               	bcf	3,5	;RP0=0, select bank0
  1437  0422  1303               	bcf	3,6	;RP1=0, select bank0
  1438  0423  00E5               	movwf	??_main+1
  1439  0424  3097               	movlw	151
  1440  0425  00E4               	movwf	??_main
  1441  0426                     u2747:	
  1442  0426  0BE4               	decfsz	??_main,f
  1443  0427  2C26               	goto	u2747
  1444  0428  0BE5               	decfsz	??_main+1,f
  1445  0429  2C26               	goto	u2747
  1446  042A                     l2600:	
  1447                           
  1448                           ;Carcelero.c: 313:         UARTmostrar(grados);
  1449  042A  1283               	bcf	3,5	;RP0=0, select bank0
  1450  042B  1303               	bcf	3,6	;RP1=0, select bank0
  1451  042C  086D               	movf	_grados,w
  1452  042D  00E4               	movwf	??_main
  1453  042E  01E5               	clrf	??_main+1
  1454  042F  01E6               	clrf	??_main+2
  1455  0430  01E7               	clrf	??_main+3
  1456  0431  0867               	movf	??_main+3,w
  1457  0432  00F3               	movwf	___xxtofl@val+3
  1458  0433  0866               	movf	??_main+2,w
  1459  0434  00F2               	movwf	___xxtofl@val+2
  1460  0435  0865               	movf	??_main+1,w
  1461  0436  00F1               	movwf	___xxtofl@val+1
  1462  0437  0864               	movf	??_main,w
  1463  0438  00F0               	movwf	___xxtofl@val
  1464  0439  3000               	movlw	0
  1465  043A  120A  158A  24A1  120A  118A  	fcall	___xxtofl
  1466  043F  0873               	movf	?___xxtofl+3,w
  1467  0440  1283               	bcf	3,5	;RP0=0, select bank0
  1468  0441  1303               	bcf	3,6	;RP1=0, select bank0
  1469  0442  00E2               	movwf	UARTmostrar@x+3
  1470  0443  0872               	movf	?___xxtofl+2,w
  1471  0444  00E1               	movwf	UARTmostrar@x+2
  1472  0445  0871               	movf	?___xxtofl+1,w
  1473  0446  00E0               	movwf	UARTmostrar@x+1
  1474  0447  0870               	movf	?___xxtofl,w
  1475  0448  00DF               	movwf	UARTmostrar@x
  1476  0449  120A  118A  2008  120A  118A  	fcall	_UARTmostrar
  1477  044E                     l2602:	
  1478                           
  1479                           ;Carcelero.c: 314:         _delay((unsigned long)((2)*(4000000/4000.0)));
  1480  044E  3003               	movlw	3
  1481  044F  1283               	bcf	3,5	;RP0=0, select bank0
  1482  0450  1303               	bcf	3,6	;RP1=0, select bank0
  1483  0451  00E5               	movwf	??_main+1
  1484  0452  3097               	movlw	151
  1485  0453  00E4               	movwf	??_main
  1486  0454                     u2757:	
  1487  0454  0BE4               	decfsz	??_main,f
  1488  0455  2C54               	goto	u2757
  1489  0456  0BE5               	decfsz	??_main+1,f
  1490  0457  2C54               	goto	u2757
  1491  0458                     l2604:	
  1492                           
  1493                           ;Carcelero.c: 315:         UARTmostrar(calor);
  1494  0458  1283               	bcf	3,5	;RP0=0, select bank0
  1495  0459  1303               	bcf	3,6	;RP1=0, select bank0
  1496  045A  086A               	movf	_calor,w
  1497  045B  00E4               	movwf	??_main
  1498  045C  01E5               	clrf	??_main+1
  1499  045D  01E6               	clrf	??_main+2
  1500  045E  01E7               	clrf	??_main+3
  1501  045F  0867               	movf	??_main+3,w
  1502  0460  00F3               	movwf	___xxtofl@val+3
  1503  0461  0866               	movf	??_main+2,w
  1504  0462  00F2               	movwf	___xxtofl@val+2
  1505  0463  0865               	movf	??_main+1,w
  1506  0464  00F1               	movwf	___xxtofl@val+1
  1507  0465  0864               	movf	??_main,w
  1508  0466  00F0               	movwf	___xxtofl@val
  1509  0467  3000               	movlw	0
  1510  0468  120A  158A  24A1  120A  118A  	fcall	___xxtofl
  1511  046D  0873               	movf	?___xxtofl+3,w
  1512  046E  1283               	bcf	3,5	;RP0=0, select bank0
  1513  046F  1303               	bcf	3,6	;RP1=0, select bank0
  1514  0470  00E2               	movwf	UARTmostrar@x+3
  1515  0471  0872               	movf	?___xxtofl+2,w
  1516  0472  00E1               	movwf	UARTmostrar@x+2
  1517  0473  0871               	movf	?___xxtofl+1,w
  1518  0474  00E0               	movwf	UARTmostrar@x+1
  1519  0475  0870               	movf	?___xxtofl,w
  1520  0476  00DF               	movwf	UARTmostrar@x
  1521  0477  120A  118A  2008  120A  118A  	fcall	_UARTmostrar
  1522  047C                     l2606:	
  1523                           
  1524                           ;Carcelero.c: 316:         _delay((unsigned long)((2)*(4000000/4000.0)));
  1525  047C  3003               	movlw	3
  1526  047D  1283               	bcf	3,5	;RP0=0, select bank0
  1527  047E  1303               	bcf	3,6	;RP1=0, select bank0
  1528  047F  00E5               	movwf	??_main+1
  1529  0480  3097               	movlw	151
  1530  0481  00E4               	movwf	??_main
  1531  0482                     u2767:	
  1532  0482  0BE4               	decfsz	??_main,f
  1533  0483  2C82               	goto	u2767
  1534  0484  0BE5               	decfsz	??_main+1,f
  1535  0485  2C82               	goto	u2767
  1536  0486  2AAB               	goto	l2526
  1537  0487  120A  118A  2800   	ljmp	start
  1538  048A                     __end_of_main:	
  1539                           
  1540                           	psect	text1
  1541  0C13                     __ptext1:	
  1542 ;; *************** function _ultrasonico *****************
  1543 ;; Defined at:
  1544 ;;		line 119 in file "Carcelero.c"
  1545 ;; Parameters:    Size  Location     Type
  1546 ;;		None
  1547 ;; Auto vars:     Size  Location     Type
  1548 ;;		None
  1549 ;; Return value:  Size  Location     Type
  1550 ;;                  1    wreg      void 
  1551 ;; Registers used:
  1552 ;;		wreg, fsr0l, fsr0h, status,2, status,0, pclath, cstack
  1553 ;; Tracked objects:
  1554 ;;		On entry : 0/0
  1555 ;;		On exit  : 0/0
  1556 ;;		Unchanged: 0/0
  1557 ;; Data sizes:     COMMON   BANK0   BANK1   BANK3   BANK2
  1558 ;;      Params:         0       0       0       0       0
  1559 ;;      Locals:         0       0       0       0       0
  1560 ;;      Temps:          2       0       0       0       0
  1561 ;;      Totals:         2       0       0       0       0
  1562 ;;Total ram usage:        2 bytes
  1563 ;; Hardware stack levels used:    1
  1564 ;; Hardware stack levels required when called:    2
  1565 ;; This function calls:
  1566 ;;		___awdiv
  1567 ;;		___awmod
  1568 ;;		_colocar
  1569 ;;		_imprimir
  1570 ;;		_mostrar
  1571 ;; This function is called by:
  1572 ;;		_main
  1573 ;; This function uses a non-reentrant model
  1574 ;;
  1575                           
  1576                           
  1577                           ;psect for function _ultrasonico
  1578  0C13                     _ultrasonico:	
  1579  0C13                     l2396:	
  1580                           ;incstack = 0
  1581                           ; Regs used in _ultrasonico: [wreg-fsr0h+status,2+status,0+pclath+cstack]
  1582                           
  1583                           
  1584                           ;Carcelero.c: 121:     z = Distancia/10;
  1585  0C13  300A               	movlw	10
  1586  0C14  00F0               	movwf	___awdiv@divisor
  1587  0C15  3000               	movlw	0
  1588  0C16  00F1               	movwf	___awdiv@divisor+1
  1589  0C17  1283               	bcf	3,5	;RP0=0, select bank0
  1590  0C18  1303               	bcf	3,6	;RP1=0, select bank0
  1591  0C19  086C               	movf	_Distancia,w
  1592  0C1A  00F9               	movwf	??_ultrasonico
  1593  0C1B  01FA               	clrf	??_ultrasonico+1
  1594  0C1C  0879               	movf	??_ultrasonico,w
  1595  0C1D  00F2               	movwf	___awdiv@dividend
  1596  0C1E  087A               	movf	??_ultrasonico+1,w
  1597  0C1F  00F3               	movwf	___awdiv@dividend+1
  1598  0C20  120A  158A  2330  120A  158A  	fcall	___awdiv
  1599  0C25  0871               	movf	?___awdiv+1,w
  1600  0C26  1683               	bsf	3,5	;RP0=1, select bank1
  1601  0C27  1303               	bcf	3,6	;RP1=0, select bank1
  1602  0C28  00B1               	movwf	(_z+1)^(0+128)
  1603  0C29  0870               	movf	?___awdiv,w
  1604  0C2A  00B0               	movwf	_z^(0+128)
  1605                           
  1606                           ;Carcelero.c: 122:     z1 = Distancia%10;
  1607  0C2B  300A               	movlw	10
  1608  0C2C  00F0               	movwf	___awmod@divisor
  1609  0C2D  3000               	movlw	0
  1610  0C2E  00F1               	movwf	___awmod@divisor+1
  1611  0C2F  1283               	bcf	3,5	;RP0=0, select bank0
  1612  0C30  1303               	bcf	3,6	;RP1=0, select bank0
  1613  0C31  086C               	movf	_Distancia,w
  1614  0C32  00F9               	movwf	??_ultrasonico
  1615  0C33  01FA               	clrf	??_ultrasonico+1
  1616  0C34  0879               	movf	??_ultrasonico,w
  1617  0C35  00F2               	movwf	___awmod@dividend
  1618  0C36  087A               	movf	??_ultrasonico+1,w
  1619  0C37  00F3               	movwf	___awmod@dividend+1
  1620  0C38  120A  158A  2210  120A  158A  	fcall	___awmod
  1621  0C3D  0871               	movf	?___awmod+1,w
  1622  0C3E  1683               	bsf	3,5	;RP0=1, select bank1
  1623  0C3F  1303               	bcf	3,6	;RP1=0, select bank1
  1624  0C40  00AF               	movwf	(_z1+1)^(0+128)
  1625  0C41  0870               	movf	?___awmod,w
  1626  0C42  00AE               	movwf	_z1^(0+128)
  1627                           
  1628                           ;Carcelero.c: 124:     colocar(10,1);
  1629  0C43  01F3               	clrf	colocar@y
  1630  0C44  0AF3               	incf	colocar@y,f
  1631  0C45  300A               	movlw	10
  1632  0C46  120A  158A  2085  120A  158A  	fcall	_colocar
  1633  0C4B                     l2398:	
  1634                           
  1635                           ;Carcelero.c: 125:     mostrar(a[z]);
  1636  0C4B  1683               	bsf	3,5	;RP0=1, select bank1
  1637  0C4C  1303               	bcf	3,6	;RP1=0, select bank1
  1638  0C4D  0830               	movf	_z^(0+128),w
  1639  0C4E  3E01               	addlw	low ((_a-__stringbase)| (0+32768))
  1640  0C4F  0084               	movwf	4
  1641  0C50  120A  158A  2000  120A  158A  	fcall	stringdir
  1642  0C55  120A  158A  2058  120A  158A  	fcall	_mostrar
  1643  0C5A                     l2400:	
  1644                           
  1645                           ;Carcelero.c: 126:     colocar(11,1);
  1646  0C5A  01F3               	clrf	colocar@y
  1647  0C5B  0AF3               	incf	colocar@y,f
  1648  0C5C  300B               	movlw	11
  1649  0C5D  120A  158A  2085  120A  158A  	fcall	_colocar
  1650                           
  1651                           ;Carcelero.c: 127:     mostrar(a[z1]);
  1652  0C62  1683               	bsf	3,5	;RP0=1, select bank1
  1653  0C63  1303               	bcf	3,6	;RP1=0, select bank1
  1654  0C64  082E               	movf	_z1^(0+128),w
  1655  0C65  3E01               	addlw	low ((_a-__stringbase)| (0+32768))
  1656  0C66  0084               	movwf	4
  1657  0C67  120A  158A  2000  120A  158A  	fcall	stringdir
  1658  0C6C  120A  158A  2058  120A  158A  	fcall	_mostrar
  1659  0C71                     l2402:	
  1660                           
  1661                           ;Carcelero.c: 129:     if (Distancia < 15)
  1662  0C71  300F               	movlw	15
  1663  0C72  1283               	bcf	3,5	;RP0=0, select bank0
  1664  0C73  1303               	bcf	3,6	;RP1=0, select bank0
  1665  0C74  026C               	subwf	_Distancia,w
  1666  0C75  1803               	skipnc
  1667  0C76  2C78               	goto	u2631
  1668  0C77  2C79               	goto	u2630
  1669  0C78                     u2631:	
  1670  0C78  2C8D               	goto	l2410
  1671  0C79                     u2630:	
  1672  0C79                     l2404:	
  1673                           
  1674                           ;Carcelero.c: 130:     {;Carcelero.c: 131:         colocar(8,2);
  1675  0C79  3002               	movlw	2
  1676  0C7A  00F9               	movwf	??_ultrasonico
  1677  0C7B  0879               	movf	??_ultrasonico,w
  1678  0C7C  00F3               	movwf	colocar@y
  1679  0C7D  3008               	movlw	8
  1680  0C7E  120A  158A  2085  120A  158A  	fcall	_colocar
  1681  0C83                     l2406:	
  1682                           
  1683                           ;Carcelero.c: 132:         imprimir("ALERTA");
  1684  0C83  3012               	movlw	(low ((STR_1-__stringbase)| (0+32768)))& (0+255)
  1685  0C84  120A  158A  20FE  120A  158A  	fcall	_imprimir
  1686  0C89                     l2408:	
  1687                           
  1688                           ;Carcelero.c: 133:         PORTAbits.RA3 = 1;
  1689  0C89  1283               	bcf	3,5	;RP0=0, select bank0
  1690  0C8A  1303               	bcf	3,6	;RP1=0, select bank0
  1691  0C8B  1585               	bsf	5,3	;volatile
  1692                           
  1693                           ;Carcelero.c: 134:     }
  1694  0C8C  2CA0               	goto	l182
  1695  0C8D                     l2410:	
  1696                           
  1697                           ;Carcelero.c: 137:     {;Carcelero.c: 138:         colocar(8,2);
  1698  0C8D  3002               	movlw	2
  1699  0C8E  00F9               	movwf	??_ultrasonico
  1700  0C8F  0879               	movf	??_ultrasonico,w
  1701  0C90  00F3               	movwf	colocar@y
  1702  0C91  3008               	movlw	8
  1703  0C92  120A  158A  2085  120A  158A  	fcall	_colocar
  1704  0C97                     l2412:	
  1705                           
  1706                           ;Carcelero.c: 139:         imprimir("      ");
  1707  0C97  300B               	movlw	(low ((STR_2-__stringbase)| (0+32768)))& (0+255)
  1708  0C98  120A  158A  20FE  120A  158A  	fcall	_imprimir
  1709  0C9D                     l2414:	
  1710                           
  1711                           ;Carcelero.c: 140:         PORTAbits.RA3 = 0;
  1712  0C9D  1283               	bcf	3,5	;RP0=0, select bank0
  1713  0C9E  1303               	bcf	3,6	;RP1=0, select bank0
  1714  0C9F  1185               	bcf	5,3	;volatile
  1715  0CA0                     l182:	
  1716  0CA0  0008               	return
  1717  0CA1                     __end_of_ultrasonico:	
  1718                           
  1719                           	psect	text2
  1720  0D5B                     __ptext2:	
  1721 ;; *************** function _temperatura *****************
  1722 ;; Defined at:
  1723 ;;		line 67 in file "Carcelero.c"
  1724 ;; Parameters:    Size  Location     Type
  1725 ;;		None
  1726 ;; Auto vars:     Size  Location     Type
  1727 ;;		None
  1728 ;; Return value:  Size  Location     Type
  1729 ;;                  1    wreg      void 
  1730 ;; Registers used:
  1731 ;;		wreg, fsr0l, fsr0h, status,2, status,0, btemp+1, pclath, cstack
  1732 ;; Tracked objects:
  1733 ;;		On entry : 0/0
  1734 ;;		On exit  : 0/0
  1735 ;;		Unchanged: 0/0
  1736 ;; Data sizes:     COMMON   BANK0   BANK1   BANK3   BANK2
  1737 ;;      Params:         0       0       0       0       0
  1738 ;;      Locals:         0       0       0       0       0
  1739 ;;      Temps:          0       5       0       0       0
  1740 ;;      Totals:         0       5       0       0       0
  1741 ;;Total ram usage:        5 bytes
  1742 ;; Hardware stack levels used:    1
  1743 ;; Hardware stack levels required when called:    2
  1744 ;; This function calls:
  1745 ;;		___awdiv
  1746 ;;		___awmod
  1747 ;;		___fldiv
  1748 ;;		___flmul
  1749 ;;		___fltol
  1750 ;;		___xxtofl
  1751 ;;		_colocar
  1752 ;;		_mostrar
  1753 ;; This function is called by:
  1754 ;;		_main
  1755 ;; This function uses a non-reentrant model
  1756 ;;
  1757                           
  1758                           
  1759                           ;psect for function _temperatura
  1760  0D5B                     _temperatura:	
  1761  0D5B                     l2354:	
  1762                           ;incstack = 0
  1763                           ; Regs used in _temperatura: [wreg-fsr0h+status,2+status,0+btemp+1+pclath+cstack]
  1764                           
  1765                           
  1766                           ;Carcelero.c: 69:     calor = (5.0*Temp)/255;
  1767  0D5B  1283               	bcf	3,5	;RP0=0, select bank0
  1768  0D5C  1303               	bcf	3,6	;RP1=0, select bank0
  1769  0D5D  086F               	movf	_Temp,w
  1770  0D5E  00DF               	movwf	??_temperatura
  1771  0D5F  01E0               	clrf	??_temperatura+1
  1772  0D60  01E1               	clrf	??_temperatura+2
  1773  0D61  01E2               	clrf	??_temperatura+3
  1774  0D62  0862               	movf	??_temperatura+3,w
  1775  0D63  00F3               	movwf	___xxtofl@val+3
  1776  0D64  0861               	movf	??_temperatura+2,w
  1777  0D65  00F2               	movwf	___xxtofl@val+2
  1778  0D66  0860               	movf	??_temperatura+1,w
  1779  0D67  00F1               	movwf	___xxtofl@val+1
  1780  0D68  085F               	movf	??_temperatura,w
  1781  0D69  00F0               	movwf	___xxtofl@val
  1782  0D6A  3001               	movlw	1
  1783  0D6B  120A  158A  24A1  120A  158A  	fcall	___xxtofl
  1784  0D70  0873               	movf	?___xxtofl+3,w
  1785  0D71  1283               	bcf	3,5	;RP0=0, select bank0
  1786  0D72  1303               	bcf	3,6	;RP1=0, select bank0
  1787  0D73  00A7               	movwf	___flmul@a+3
  1788  0D74  0872               	movf	?___xxtofl+2,w
  1789  0D75  00A6               	movwf	___flmul@a+2
  1790  0D76  0871               	movf	?___xxtofl+1,w
  1791  0D77  00A5               	movwf	___flmul@a+1
  1792  0D78  0870               	movf	?___xxtofl,w
  1793  0D79  00A4               	movwf	___flmul@a
  1794  0D7A  3040               	movlw	64
  1795  0D7B  00A3               	movwf	___flmul@b+3
  1796  0D7C  30A0               	movlw	160
  1797  0D7D  00A2               	movwf	___flmul@b+2
  1798  0D7E  3000               	movlw	0
  1799  0D7F  00A1               	movwf	___flmul@b+1
  1800  0D80  3000               	movlw	0
  1801  0D81  00A0               	movwf	___flmul@b
  1802  0D82  120A  118A  248A  120A  158A  	fcall	___flmul
  1803  0D87  1283               	bcf	3,5	;RP0=0, select bank0
  1804  0D88  1303               	bcf	3,6	;RP1=0, select bank0
  1805  0D89  0823               	movf	?___flmul+3,w
  1806  0D8A  00C1               	movwf	___fldiv@b+3
  1807  0D8B  0822               	movf	?___flmul+2,w
  1808  0D8C  00C0               	movwf	___fldiv@b+2
  1809  0D8D  0821               	movf	?___flmul+1,w
  1810  0D8E  00BF               	movwf	___fldiv@b+1
  1811  0D8F  0820               	movf	?___flmul,w
  1812  0D90  00BE               	movwf	___fldiv@b
  1813  0D91  3043               	movlw	67
  1814  0D92  00BD               	movwf	___fldiv@a+3
  1815  0D93  307F               	movlw	127
  1816  0D94  00BC               	movwf	___fldiv@a+2
  1817  0D95  3000               	movlw	0
  1818  0D96  00BB               	movwf	___fldiv@a+1
  1819  0D97  3000               	movlw	0
  1820  0D98  00BA               	movwf	___fldiv@a
  1821  0D99  120A  158A  2623  120A  158A  	fcall	___fldiv
  1822  0D9E  1283               	bcf	3,5	;RP0=0, select bank0
  1823  0D9F  1303               	bcf	3,6	;RP1=0, select bank0
  1824  0DA0  083D               	movf	?___fldiv+3,w
  1825  0DA1  00D7               	movwf	___fltol@f1+3
  1826  0DA2  083C               	movf	?___fldiv+2,w
  1827  0DA3  00D6               	movwf	___fltol@f1+2
  1828  0DA4  083B               	movf	?___fldiv+1,w
  1829  0DA5  00D5               	movwf	___fltol@f1+1
  1830  0DA6  083A               	movf	?___fldiv,w
  1831  0DA7  00D4               	movwf	___fltol@f1
  1832  0DA8  120A  158A  2397  120A  158A  	fcall	___fltol
  1833  0DAD  1283               	bcf	3,5	;RP0=0, select bank0
  1834  0DAE  1303               	bcf	3,6	;RP1=0, select bank0
  1835  0DAF  0854               	movf	?___fltol,w
  1836  0DB0  00E3               	movwf	??_temperatura+4
  1837  0DB1  0863               	movf	??_temperatura+4,w
  1838  0DB2  00EA               	movwf	_calor
  1839  0DB3                     l2356:	
  1840                           
  1841                           ;Carcelero.c: 71:     t = calor/10;
  1842  0DB3  300A               	movlw	10
  1843  0DB4  00F0               	movwf	___awdiv@divisor
  1844  0DB5  3000               	movlw	0
  1845  0DB6  00F1               	movwf	___awdiv@divisor+1
  1846  0DB7  086A               	movf	_calor,w
  1847  0DB8  00DF               	movwf	??_temperatura
  1848  0DB9  01E0               	clrf	??_temperatura+1
  1849  0DBA  085F               	movf	??_temperatura,w
  1850  0DBB  00F2               	movwf	___awdiv@dividend
  1851  0DBC  0860               	movf	??_temperatura+1,w
  1852  0DBD  00F3               	movwf	___awdiv@dividend+1
  1853  0DBE  120A  158A  2330  120A  158A  	fcall	___awdiv
  1854  0DC3  0871               	movf	?___awdiv+1,w
  1855  0DC4  1683               	bsf	3,5	;RP0=1, select bank1
  1856  0DC5  1303               	bcf	3,6	;RP1=0, select bank1
  1857  0DC6  00A5               	movwf	(_t+1)^(0+128)
  1858  0DC7  0870               	movf	?___awdiv,w
  1859  0DC8  00A4               	movwf	_t^(0+128)
  1860  0DC9                     l2358:	
  1861                           
  1862                           ;Carcelero.c: 72:     t1 = calor%10;
  1863  0DC9  300A               	movlw	10
  1864  0DCA  00F0               	movwf	___awmod@divisor
  1865  0DCB  3000               	movlw	0
  1866  0DCC  00F1               	movwf	___awmod@divisor+1
  1867  0DCD  1283               	bcf	3,5	;RP0=0, select bank0
  1868  0DCE  1303               	bcf	3,6	;RP1=0, select bank0
  1869  0DCF  086A               	movf	_calor,w
  1870  0DD0  00DF               	movwf	??_temperatura
  1871  0DD1  01E0               	clrf	??_temperatura+1
  1872  0DD2  085F               	movf	??_temperatura,w
  1873  0DD3  00F2               	movwf	___awmod@dividend
  1874  0DD4  0860               	movf	??_temperatura+1,w
  1875  0DD5  00F3               	movwf	___awmod@dividend+1
  1876  0DD6  120A  158A  2210  120A  158A  	fcall	___awmod
  1877  0DDB  0871               	movf	?___awmod+1,w
  1878  0DDC  1683               	bsf	3,5	;RP0=1, select bank1
  1879  0DDD  1303               	bcf	3,6	;RP1=0, select bank1
  1880  0DDE  00A3               	movwf	(_t1+1)^(0+128)
  1881  0DDF  0870               	movf	?___awmod,w
  1882  0DE0  00A2               	movwf	_t1^(0+128)
  1883  0DE1                     l2360:	
  1884                           
  1885                           ;Carcelero.c: 74:     colocar(24,2);
  1886  0DE1  3002               	movlw	2
  1887  0DE2  1283               	bcf	3,5	;RP0=0, select bank0
  1888  0DE3  1303               	bcf	3,6	;RP1=0, select bank0
  1889  0DE4  00DF               	movwf	??_temperatura
  1890  0DE5  085F               	movf	??_temperatura,w
  1891  0DE6  00F3               	movwf	colocar@y
  1892  0DE7  3018               	movlw	24
  1893  0DE8  120A  158A  2085  120A  158A  	fcall	_colocar
  1894  0DED                     l2362:	
  1895                           
  1896                           ;Carcelero.c: 75:     mostrar(a[t]);
  1897  0DED  1683               	bsf	3,5	;RP0=1, select bank1
  1898  0DEE  1303               	bcf	3,6	;RP1=0, select bank1
  1899  0DEF  0824               	movf	_t^(0+128),w
  1900  0DF0  3E01               	addlw	low ((_a-__stringbase)| (0+32768))
  1901  0DF1  0084               	movwf	4
  1902  0DF2  120A  158A  2000  120A  158A  	fcall	stringdir
  1903  0DF7  120A  158A  2058  120A  158A  	fcall	_mostrar
  1904  0DFC                     l2364:	
  1905                           
  1906                           ;Carcelero.c: 76:     colocar(25,2);
  1907  0DFC  3002               	movlw	2
  1908  0DFD  1283               	bcf	3,5	;RP0=0, select bank0
  1909  0DFE  1303               	bcf	3,6	;RP1=0, select bank0
  1910  0DFF  00DF               	movwf	??_temperatura
  1911  0E00  085F               	movf	??_temperatura,w
  1912  0E01  00F3               	movwf	colocar@y
  1913  0E02  3019               	movlw	25
  1914  0E03  120A  158A  2085  120A  158A  	fcall	_colocar
  1915  0E08                     l2366:	
  1916                           
  1917                           ;Carcelero.c: 77:     mostrar(a[t1]);
  1918  0E08  1683               	bsf	3,5	;RP0=1, select bank1
  1919  0E09  1303               	bcf	3,6	;RP1=0, select bank1
  1920  0E0A  0822               	movf	_t1^(0+128),w
  1921  0E0B  3E01               	addlw	low ((_a-__stringbase)| (0+32768))
  1922  0E0C  0084               	movwf	4
  1923  0E0D  120A  158A  2000  120A  158A  	fcall	stringdir
  1924  0E12  120A  158A  2058  120A  158A  	fcall	_mostrar
  1925  0E17                     l2368:	
  1926                           
  1927                           ;Carcelero.c: 79:     if (calor > 30)
  1928  0E17  301F               	movlw	31
  1929  0E18  1283               	bcf	3,5	;RP0=0, select bank0
  1930  0E19  1303               	bcf	3,6	;RP1=0, select bank0
  1931  0E1A  026A               	subwf	_calor,w
  1932  0E1B  1C03               	skipc
  1933  0E1C  2E1E               	goto	u2611
  1934  0E1D  2E1F               	goto	u2610
  1935  0E1E                     u2611:	
  1936  0E1E  2E21               	goto	l170
  1937  0E1F                     u2610:	
  1938  0E1F                     l2370:	
  1939                           
  1940                           ;Carcelero.c: 80:     {;Carcelero.c: 81:         PORTAbits.RA5 = 1;
  1941  0E1F  1685               	bsf	5,5	;volatile
  1942                           
  1943                           ;Carcelero.c: 82:     }
  1944  0E20  2E22               	goto	l172
  1945  0E21                     l170:	
  1946                           ;Carcelero.c: 84:     else
  1947                           
  1948                           
  1949                           ;Carcelero.c: 85:     {;Carcelero.c: 86:         PORTAbits.RA5 = 0;
  1950  0E21  1285               	bcf	5,5	;volatile
  1951  0E22                     l172:	
  1952  0E22  0008               	return
  1953  0E23                     __end_of_temperatura:	
  1954                           
  1955                           	psect	text3
  1956  0CA1                     __ptext3:	
  1957 ;; *************** function ___xxtofl *****************
  1958 ;; Defined at:
  1959 ;;		line 10 in file "C:\Program Files (x86)\Microchip\xc8\v2.10\pic\sources\c90\common\xxtofl.c"
  1960 ;; Parameters:    Size  Location     Type
  1961 ;;  sign            1    wreg     unsigned char 
  1962 ;;  val             4    0[COMMON] long 
  1963 ;; Auto vars:     Size  Location     Type
  1964 ;;  sign            1    8[COMMON] unsigned char 
  1965 ;;  arg             4   10[COMMON] unsigned long 
  1966 ;;  exp             1    9[COMMON] unsigned char 
  1967 ;; Return value:  Size  Location     Type
  1968 ;;                  4    0[COMMON] unsigned char 
  1969 ;; Registers used:
  1970 ;;		wreg, status,2, status,0
  1971 ;; Tracked objects:
  1972 ;;		On entry : 0/0
  1973 ;;		On exit  : 0/0
  1974 ;;		Unchanged: 0/0
  1975 ;; Data sizes:     COMMON   BANK0   BANK1   BANK3   BANK2
  1976 ;;      Params:         4       0       0       0       0
  1977 ;;      Locals:         6       0       0       0       0
  1978 ;;      Temps:          4       0       0       0       0
  1979 ;;      Totals:        14       0       0       0       0
  1980 ;;Total ram usage:       14 bytes
  1981 ;; Hardware stack levels used:    1
  1982 ;; This function calls:
  1983 ;;		Nothing
  1984 ;; This function is called by:
  1985 ;;		_temperatura
  1986 ;;		_main
  1987 ;; This function uses a non-reentrant model
  1988 ;;
  1989                           
  1990                           
  1991                           ;psect for function ___xxtofl
  1992  0CA1                     ___xxtofl:	
  1993                           
  1994                           ;incstack = 0
  1995                           ; Regs used in ___xxtofl: [wreg+status,2+status,0]
  1996                           ;___xxtofl@sign stored from wreg
  1997  0CA1  00F8               	movwf	___xxtofl@sign
  1998  0CA2                     l2194:	
  1999  0CA2  0878               	movf	___xxtofl@sign,w
  2000  0CA3  1903               	btfsc	3,2
  2001  0CA4  2CA6               	goto	u2441
  2002  0CA5  2CA7               	goto	u2440
  2003  0CA6                     u2441:	
  2004  0CA6  2CBB               	goto	l2200
  2005  0CA7                     u2440:	
  2006  0CA7                     l2196:	
  2007  0CA7  1FF3               	btfss	___xxtofl@val+3,7
  2008  0CA8  2CAA               	goto	u2451
  2009  0CA9  2CAB               	goto	u2450
  2010  0CAA                     u2451:	
  2011  0CAA  2CBB               	goto	l2200
  2012  0CAB                     u2450:	
  2013  0CAB                     l2198:	
  2014  0CAB  0970               	comf	___xxtofl@val,w
  2015  0CAC  00FA               	movwf	___xxtofl@arg
  2016  0CAD  0971               	comf	___xxtofl@val+1,w
  2017  0CAE  00FB               	movwf	___xxtofl@arg+1
  2018  0CAF  0972               	comf	___xxtofl@val+2,w
  2019  0CB0  00FC               	movwf	___xxtofl@arg+2
  2020  0CB1  0973               	comf	___xxtofl@val+3,w
  2021  0CB2  00FD               	movwf	___xxtofl@arg+3
  2022  0CB3  0AFA               	incf	___xxtofl@arg,f
  2023  0CB4  1903               	skipnz
  2024  0CB5  0AFB               	incf	___xxtofl@arg+1,f
  2025  0CB6  1903               	skipnz
  2026  0CB7  0AFC               	incf	___xxtofl@arg+2,f
  2027  0CB8  1903               	skipnz
  2028  0CB9  0AFD               	incf	___xxtofl@arg+3,f
  2029  0CBA  2CC3               	goto	l717
  2030  0CBB                     l2200:	
  2031  0CBB  0873               	movf	___xxtofl@val+3,w
  2032  0CBC  00FD               	movwf	___xxtofl@arg+3
  2033  0CBD  0872               	movf	___xxtofl@val+2,w
  2034  0CBE  00FC               	movwf	___xxtofl@arg+2
  2035  0CBF  0871               	movf	___xxtofl@val+1,w
  2036  0CC0  00FB               	movwf	___xxtofl@arg+1
  2037  0CC1  0870               	movf	___xxtofl@val,w
  2038  0CC2  00FA               	movwf	___xxtofl@arg
  2039  0CC3                     l717:	
  2040  0CC3  0873               	movf	___xxtofl@val+3,w
  2041  0CC4  0472               	iorwf	___xxtofl@val+2,w
  2042  0CC5  0471               	iorwf	___xxtofl@val+1,w
  2043  0CC6  0470               	iorwf	___xxtofl@val,w
  2044  0CC7  1D03               	skipz
  2045  0CC8  2CCA               	goto	u2461
  2046  0CC9  2CCB               	goto	u2460
  2047  0CCA                     u2461:	
  2048  0CCA  2CD4               	goto	l2206
  2049  0CCB                     u2460:	
  2050  0CCB                     l2202:	
  2051  0CCB  3000               	movlw	0
  2052  0CCC  00F3               	movwf	?___xxtofl+3
  2053  0CCD  3000               	movlw	0
  2054  0CCE  00F2               	movwf	?___xxtofl+2
  2055  0CCF  3000               	movlw	0
  2056  0CD0  00F1               	movwf	?___xxtofl+1
  2057  0CD1  3000               	movlw	0
  2058  0CD2  00F0               	movwf	?___xxtofl
  2059  0CD3  2D5A               	goto	l719
  2060  0CD4                     l2206:	
  2061  0CD4  3096               	movlw	150
  2062  0CD5  00F4               	movwf	??___xxtofl
  2063  0CD6  0874               	movf	??___xxtofl,w
  2064  0CD7  00F9               	movwf	___xxtofl@exp
  2065  0CD8  2CE6               	goto	l2210
  2066  0CD9                     l2208:	
  2067  0CD9  3001               	movlw	1
  2068  0CDA  00F4               	movwf	??___xxtofl
  2069  0CDB  0874               	movf	??___xxtofl,w
  2070  0CDC  07F9               	addwf	___xxtofl@exp,f
  2071  0CDD  3001               	movlw	1
  2072  0CDE                     u2475:	
  2073  0CDE  1003               	clrc
  2074  0CDF  0CFD               	rrf	___xxtofl@arg+3,f
  2075  0CE0  0CFC               	rrf	___xxtofl@arg+2,f
  2076  0CE1  0CFB               	rrf	___xxtofl@arg+1,f
  2077  0CE2  0CFA               	rrf	___xxtofl@arg,f
  2078  0CE3  3EFF               	addlw	-1
  2079  0CE4  1D03               	skipz
  2080  0CE5  2CDE               	goto	u2475
  2081  0CE6                     l2210:	
  2082  0CE6  30FE               	movlw	254
  2083  0CE7  057D               	andwf	___xxtofl@arg+3,w
  2084  0CE8  1D03               	btfss	3,2
  2085  0CE9  2CEB               	goto	u2481
  2086  0CEA  2CEC               	goto	u2480
  2087  0CEB                     u2481:	
  2088  0CEB  2CD9               	goto	l2208
  2089  0CEC                     u2480:	
  2090  0CEC  2D08               	goto	l723
  2091  0CED                     l2212:	
  2092  0CED  3001               	movlw	1
  2093  0CEE  00F4               	movwf	??___xxtofl
  2094  0CEF  0874               	movf	??___xxtofl,w
  2095  0CF0  07F9               	addwf	___xxtofl@exp,f
  2096  0CF1                     l2214:	
  2097  0CF1  3001               	movlw	1
  2098  0CF2  07FA               	addwf	___xxtofl@arg,f
  2099  0CF3  3000               	movlw	0
  2100  0CF4  1803               	skipnc
  2101  0CF5  3001               	movlw	1
  2102  0CF6  07FB               	addwf	___xxtofl@arg+1,f
  2103  0CF7  3000               	movlw	0
  2104  0CF8  1803               	skipnc
  2105  0CF9  3001               	movlw	1
  2106  0CFA  07FC               	addwf	___xxtofl@arg+2,f
  2107  0CFB  3000               	movlw	0
  2108  0CFC  1803               	skipnc
  2109  0CFD  3001               	movlw	1
  2110  0CFE  07FD               	addwf	___xxtofl@arg+3,f
  2111  0CFF                     l2216:	
  2112  0CFF  3001               	movlw	1
  2113  0D00                     u2495:	
  2114  0D00  1003               	clrc
  2115  0D01  0CFD               	rrf	___xxtofl@arg+3,f
  2116  0D02  0CFC               	rrf	___xxtofl@arg+2,f
  2117  0D03  0CFB               	rrf	___xxtofl@arg+1,f
  2118  0D04  0CFA               	rrf	___xxtofl@arg,f
  2119  0D05  3EFF               	addlw	-1
  2120  0D06  1D03               	skipz
  2121  0D07  2D00               	goto	u2495
  2122  0D08                     l723:	
  2123  0D08  30FF               	movlw	255
  2124  0D09  057D               	andwf	___xxtofl@arg+3,w
  2125  0D0A  1D03               	btfss	3,2
  2126  0D0B  2D0D               	goto	u2501
  2127  0D0C  2D0E               	goto	u2500
  2128  0D0D                     u2501:	
  2129  0D0D  2CED               	goto	l2212
  2130  0D0E                     u2500:	
  2131  0D0E  2D1A               	goto	l2220
  2132  0D0F                     l2218:	
  2133  0D0F  3001               	movlw	1
  2134  0D10  02F9               	subwf	___xxtofl@exp,f
  2135  0D11  3001               	movlw	1
  2136  0D12  00F4               	movwf	??___xxtofl
  2137  0D13                     u2515:	
  2138  0D13  1003               	clrc
  2139  0D14  0DFA               	rlf	___xxtofl@arg,f
  2140  0D15  0DFB               	rlf	___xxtofl@arg+1,f
  2141  0D16  0DFC               	rlf	___xxtofl@arg+2,f
  2142  0D17  0DFD               	rlf	___xxtofl@arg+3,f
  2143  0D18  0BF4               	decfsz	??___xxtofl,f
  2144  0D19  2D13               	goto	u2515
  2145  0D1A                     l2220:	
  2146  0D1A  1BFC               	btfsc	___xxtofl@arg+2,7
  2147  0D1B  2D1D               	goto	u2521
  2148  0D1C  2D1E               	goto	u2520
  2149  0D1D                     u2521:	
  2150  0D1D  2D24               	goto	l730
  2151  0D1E                     u2520:	
  2152  0D1E                     l2222:	
  2153  0D1E  3002               	movlw	2
  2154  0D1F  0279               	subwf	___xxtofl@exp,w
  2155  0D20  1803               	skipnc
  2156  0D21  2D23               	goto	u2531
  2157  0D22  2D24               	goto	u2530
  2158  0D23                     u2531:	
  2159  0D23  2D0F               	goto	l2218
  2160  0D24                     u2530:	
  2161  0D24                     l730:	
  2162  0D24  1879               	btfsc	___xxtofl@exp,0
  2163  0D25  2D27               	goto	u2541
  2164  0D26  2D28               	goto	u2540
  2165  0D27                     u2541:	
  2166  0D27  2D30               	goto	l731
  2167  0D28                     u2540:	
  2168  0D28                     l2224:	
  2169  0D28  30FF               	movlw	255
  2170  0D29  05FA               	andwf	___xxtofl@arg,f
  2171  0D2A  30FF               	movlw	255
  2172  0D2B  05FB               	andwf	___xxtofl@arg+1,f
  2173  0D2C  307F               	movlw	127
  2174  0D2D  05FC               	andwf	___xxtofl@arg+2,f
  2175  0D2E  30FF               	movlw	255
  2176  0D2F  05FD               	andwf	___xxtofl@arg+3,f
  2177  0D30                     l731:	
  2178  0D30  1003               	clrc
  2179  0D31  0CF9               	rrf	___xxtofl@exp,f
  2180  0D32                     l2226:	
  2181  0D32  0879               	movf	___xxtofl@exp,w
  2182  0D33  00F4               	movwf	??___xxtofl
  2183  0D34  01F5               	clrf	??___xxtofl+1
  2184  0D35  01F6               	clrf	??___xxtofl+2
  2185  0D36  01F7               	clrf	??___xxtofl+3
  2186  0D37  3018               	movlw	24
  2187  0D38                     u2555:	
  2188  0D38  1003               	clrc
  2189  0D39  0DF4               	rlf	??___xxtofl,f
  2190  0D3A  0DF5               	rlf	??___xxtofl+1,f
  2191  0D3B  0DF6               	rlf	??___xxtofl+2,f
  2192  0D3C  0DF7               	rlf	??___xxtofl+3,f
  2193  0D3D                     u2550:	
  2194  0D3D  3EFF               	addlw	-1
  2195  0D3E  1D03               	skipz
  2196  0D3F  2D38               	goto	u2555
  2197  0D40  0874               	movf	??___xxtofl,w
  2198  0D41  04FA               	iorwf	___xxtofl@arg,f
  2199  0D42  0875               	movf	??___xxtofl+1,w
  2200  0D43  04FB               	iorwf	___xxtofl@arg+1,f
  2201  0D44  0876               	movf	??___xxtofl+2,w
  2202  0D45  04FC               	iorwf	___xxtofl@arg+2,f
  2203  0D46  0877               	movf	??___xxtofl+3,w
  2204  0D47  04FD               	iorwf	___xxtofl@arg+3,f
  2205  0D48                     l2228:	
  2206  0D48  0878               	movf	___xxtofl@sign,w
  2207  0D49  1903               	btfsc	3,2
  2208  0D4A  2D4C               	goto	u2561
  2209  0D4B  2D4D               	goto	u2560
  2210  0D4C                     u2561:	
  2211  0D4C  2D52               	goto	l2234
  2212  0D4D                     u2560:	
  2213  0D4D                     l2230:	
  2214  0D4D  1FF3               	btfss	___xxtofl@val+3,7
  2215  0D4E  2D50               	goto	u2571
  2216  0D4F  2D51               	goto	u2570
  2217  0D50                     u2571:	
  2218  0D50  2D52               	goto	l2234
  2219  0D51                     u2570:	
  2220  0D51                     l2232:	
  2221  0D51  17FD               	bsf	___xxtofl@arg+3,7
  2222  0D52                     l2234:	
  2223  0D52  087D               	movf	___xxtofl@arg+3,w
  2224  0D53  00F3               	movwf	?___xxtofl+3
  2225  0D54  087C               	movf	___xxtofl@arg+2,w
  2226  0D55  00F2               	movwf	?___xxtofl+2
  2227  0D56  087B               	movf	___xxtofl@arg+1,w
  2228  0D57  00F1               	movwf	?___xxtofl+1
  2229  0D58  087A               	movf	___xxtofl@arg,w
  2230  0D59  00F0               	movwf	?___xxtofl
  2231  0D5A                     l719:	
  2232  0D5A  0008               	return
  2233  0D5B                     __end_of___xxtofl:	
  2234                           
  2235                           	psect	text4
  2236  048A                     __ptext4:	
  2237 ;; *************** function ___flmul *****************
  2238 ;; Defined at:
  2239 ;;		line 8 in file "C:\Program Files (x86)\Microchip\xc8\v2.10\pic\sources\c90\common\sprcmul.c"
  2240 ;; Parameters:    Size  Location     Type
  2241 ;;  b               4    0[BANK0 ] unsigned char 
  2242 ;;  a               4    4[BANK0 ] unsigned char 
  2243 ;; Auto vars:     Size  Location     Type
  2244 ;;  prod            4   20[BANK0 ] struct .
  2245 ;;  grs             4   14[BANK0 ] unsigned long 
  2246 ;;  temp            2   24[BANK0 ] struct .
  2247 ;;  bexp            1   19[BANK0 ] unsigned char 
  2248 ;;  aexp            1   18[BANK0 ] unsigned char 
  2249 ;;  sign            1   13[BANK0 ] unsigned char 
  2250 ;; Return value:  Size  Location     Type
  2251 ;;                  4    0[BANK0 ] unsigned char 
  2252 ;; Registers used:
  2253 ;;		wreg, status,2, status,0, btemp+1, pclath, cstack
  2254 ;; Tracked objects:
  2255 ;;		On entry : 0/0
  2256 ;;		On exit  : 0/0
  2257 ;;		Unchanged: 0/0
  2258 ;; Data sizes:     COMMON   BANK0   BANK1   BANK3   BANK2
  2259 ;;      Params:         0       8       0       0       0
  2260 ;;      Locals:         0      13       0       0       0
  2261 ;;      Temps:          0       5       0       0       0
  2262 ;;      Totals:         0      26       0       0       0
  2263 ;;Total ram usage:       26 bytes
  2264 ;; Hardware stack levels used:    1
  2265 ;; Hardware stack levels required when called:    1
  2266 ;; This function calls:
  2267 ;;		__Umul8_16
  2268 ;; This function is called by:
  2269 ;;		_temperatura
  2270 ;; This function uses a non-reentrant model
  2271 ;;
  2272                           
  2273                           
  2274                           ;psect for function ___flmul
  2275  048A                     ___flmul:	
  2276  048A                     l2054:	
  2277                           ;incstack = 0
  2278                           ; Regs used in ___flmul: [wreg+status,2+status,0+btemp+1+pclath+cstack]
  2279                           
  2280  048A  1283               	bcf	3,5	;RP0=0, select bank0
  2281  048B  1303               	bcf	3,6	;RP1=0, select bank0
  2282  048C  0823               	movf	___flmul@b+3,w
  2283  048D  3980               	andlw	128
  2284  048E  00A8               	movwf	??___flmul
  2285  048F  0828               	movf	??___flmul,w
  2286  0490  00AD               	movwf	___flmul@sign
  2287  0491                     l2056:	
  2288  0491  0823               	movf	___flmul@b+3,w
  2289  0492  00A8               	movwf	??___flmul
  2290  0493  0728               	addwf	??___flmul,w
  2291  0494  00A9               	movwf	??___flmul+1
  2292  0495  0829               	movf	??___flmul+1,w
  2293  0496  00B3               	movwf	___flmul@bexp
  2294  0497                     l2058:	
  2295  0497  1FA2               	btfss	___flmul@b+2,7
  2296  0498  2C9A               	goto	u2071
  2297  0499  2C9B               	goto	u2070
  2298  049A                     u2071:	
  2299  049A  2C9C               	goto	l2062
  2300  049B                     u2070:	
  2301  049B                     l2060:	
  2302  049B  1433               	bsf	___flmul@bexp,0
  2303  049C                     l2062:	
  2304  049C  0833               	movf	___flmul@bexp,w
  2305  049D  1903               	btfsc	3,2
  2306  049E  2CA0               	goto	u2081
  2307  049F  2CA1               	goto	u2080
  2308  04A0                     u2081:	
  2309  04A0  2CB0               	goto	l2070
  2310  04A1                     u2080:	
  2311  04A1                     l2064:	
  2312  04A1  0A33               	incf	___flmul@bexp,w
  2313  04A2  1D03               	btfss	3,2
  2314  04A3  2CA5               	goto	u2091
  2315  04A4  2CA6               	goto	u2090
  2316  04A5                     u2091:	
  2317  04A5  2CAE               	goto	l2068
  2318  04A6                     u2090:	
  2319  04A6                     l2066:	
  2320  04A6  3000               	movlw	0
  2321  04A7  00A3               	movwf	___flmul@b+3
  2322  04A8  3000               	movlw	0
  2323  04A9  00A2               	movwf	___flmul@b+2
  2324  04AA  3000               	movlw	0
  2325  04AB  00A1               	movwf	___flmul@b+1
  2326  04AC  3000               	movlw	0
  2327  04AD  00A0               	movwf	___flmul@b
  2328  04AE                     l2068:	
  2329  04AE  17A2               	bsf	___flmul@b+2,7
  2330  04AF  2CB8               	goto	l2072
  2331  04B0                     l2070:	
  2332  04B0  3000               	movlw	0
  2333  04B1  00A3               	movwf	___flmul@b+3
  2334  04B2  3000               	movlw	0
  2335  04B3  00A2               	movwf	___flmul@b+2
  2336  04B4  3000               	movlw	0
  2337  04B5  00A1               	movwf	___flmul@b+1
  2338  04B6  3000               	movlw	0
  2339  04B7  00A0               	movwf	___flmul@b
  2340  04B8                     l2072:	
  2341  04B8  0827               	movf	___flmul@a+3,w
  2342  04B9  3980               	andlw	128
  2343  04BA  00A8               	movwf	??___flmul
  2344  04BB  0828               	movf	??___flmul,w
  2345  04BC  06AD               	xorwf	___flmul@sign,f
  2346  04BD                     l2074:	
  2347  04BD  0827               	movf	___flmul@a+3,w
  2348  04BE  00A8               	movwf	??___flmul
  2349  04BF  0728               	addwf	??___flmul,w
  2350  04C0  00A9               	movwf	??___flmul+1
  2351  04C1  0829               	movf	??___flmul+1,w
  2352  04C2  00B2               	movwf	___flmul@aexp
  2353  04C3                     l2076:	
  2354  04C3  1FA6               	btfss	___flmul@a+2,7
  2355  04C4  2CC6               	goto	u2101
  2356  04C5  2CC7               	goto	u2100
  2357  04C6                     u2101:	
  2358  04C6  2CC8               	goto	l2080
  2359  04C7                     u2100:	
  2360  04C7                     l2078:	
  2361  04C7  1432               	bsf	___flmul@aexp,0
  2362  04C8                     l2080:	
  2363  04C8  0832               	movf	___flmul@aexp,w
  2364  04C9  1903               	btfsc	3,2
  2365  04CA  2CCC               	goto	u2111
  2366  04CB  2CCD               	goto	u2110
  2367  04CC                     u2111:	
  2368  04CC  2CDC               	goto	l2088
  2369  04CD                     u2110:	
  2370  04CD                     l2082:	
  2371  04CD  0A32               	incf	___flmul@aexp,w
  2372  04CE  1D03               	btfss	3,2
  2373  04CF  2CD1               	goto	u2121
  2374  04D0  2CD2               	goto	u2120
  2375  04D1                     u2121:	
  2376  04D1  2CDA               	goto	l2086
  2377  04D2                     u2120:	
  2378  04D2                     l2084:	
  2379  04D2  3000               	movlw	0
  2380  04D3  00A7               	movwf	___flmul@a+3
  2381  04D4  3000               	movlw	0
  2382  04D5  00A6               	movwf	___flmul@a+2
  2383  04D6  3000               	movlw	0
  2384  04D7  00A5               	movwf	___flmul@a+1
  2385  04D8  3000               	movlw	0
  2386  04D9  00A4               	movwf	___flmul@a
  2387  04DA                     l2086:	
  2388  04DA  17A6               	bsf	___flmul@a+2,7
  2389  04DB  2CE4               	goto	l2090
  2390  04DC                     l2088:	
  2391  04DC  3000               	movlw	0
  2392  04DD  00A7               	movwf	___flmul@a+3
  2393  04DE  3000               	movlw	0
  2394  04DF  00A6               	movwf	___flmul@a+2
  2395  04E0  3000               	movlw	0
  2396  04E1  00A5               	movwf	___flmul@a+1
  2397  04E2  3000               	movlw	0
  2398  04E3  00A4               	movwf	___flmul@a
  2399  04E4                     l2090:	
  2400  04E4  0832               	movf	___flmul@aexp,w
  2401  04E5  1903               	btfsc	3,2
  2402  04E6  2CE8               	goto	u2131
  2403  04E7  2CE9               	goto	u2130
  2404  04E8                     u2131:	
  2405  04E8  2CEE               	goto	l2094
  2406  04E9                     u2130:	
  2407  04E9                     l2092:	
  2408  04E9  0833               	movf	___flmul@bexp,w
  2409  04EA  1D03               	btfss	3,2
  2410  04EB  2CED               	goto	u2141
  2411  04EC  2CEE               	goto	u2140
  2412  04ED                     u2141:	
  2413  04ED  2CF7               	goto	l2098
  2414  04EE                     u2140:	
  2415  04EE                     l2094:	
  2416  04EE  3000               	movlw	0
  2417  04EF  00A3               	movwf	?___flmul+3
  2418  04F0  3000               	movlw	0
  2419  04F1  00A2               	movwf	?___flmul+2
  2420  04F2  3000               	movlw	0
  2421  04F3  00A1               	movwf	?___flmul+1
  2422  04F4  3000               	movlw	0
  2423  04F5  00A0               	movwf	?___flmul
  2424  04F6  2FEA               	goto	l679
  2425  04F7                     l2098:	
  2426  04F7  0820               	movf	___flmul@b,w
  2427  04F8  00A8               	movwf	??___flmul
  2428  04F9  0828               	movf	??___flmul,w
  2429  04FA  00F0               	movwf	__Umul8_16@multiplicand
  2430  04FB  0826               	movf	___flmul@a+2,w
  2431  04FC  120A  158A  20A9  120A  118A  	fcall	__Umul8_16
  2432  0501  0871               	movf	?__Umul8_16+1,w
  2433  0502  1283               	bcf	3,5	;RP0=0, select bank0
  2434  0503  1303               	bcf	3,6	;RP1=0, select bank0
  2435  0504  00B9               	movwf	___flmul@temp+1
  2436  0505  0870               	movf	?__Umul8_16,w
  2437  0506  00B8               	movwf	___flmul@temp
  2438  0507                     l2100:	
  2439  0507  0838               	movf	___flmul@temp,w
  2440  0508  00A8               	movwf	??___flmul
  2441  0509  01A9               	clrf	??___flmul+1
  2442  050A  01AA               	clrf	??___flmul+2
  2443  050B  01AB               	clrf	??___flmul+3
  2444  050C  082B               	movf	??___flmul+3,w
  2445  050D  00B1               	movwf	___flmul@grs+3
  2446  050E  082A               	movf	??___flmul+2,w
  2447  050F  00B0               	movwf	___flmul@grs+2
  2448  0510  0829               	movf	??___flmul+1,w
  2449  0511  00AF               	movwf	___flmul@grs+1
  2450  0512  0828               	movf	??___flmul,w
  2451  0513  00AE               	movwf	___flmul@grs
  2452  0514                     l2102:	
  2453  0514  0839               	movf	___flmul@temp+1,w
  2454  0515  00A8               	movwf	??___flmul
  2455  0516  01A9               	clrf	??___flmul+1
  2456  0517  01AA               	clrf	??___flmul+2
  2457  0518  01AB               	clrf	??___flmul+3
  2458  0519  082B               	movf	??___flmul+3,w
  2459  051A  00B7               	movwf	___flmul@prod+3
  2460  051B  082A               	movf	??___flmul+2,w
  2461  051C  00B6               	movwf	___flmul@prod+2
  2462  051D  0829               	movf	??___flmul+1,w
  2463  051E  00B5               	movwf	___flmul@prod+1
  2464  051F  0828               	movf	??___flmul,w
  2465  0520  00B4               	movwf	___flmul@prod
  2466  0521  0821               	movf	___flmul@b+1,w
  2467  0522  00A8               	movwf	??___flmul
  2468  0523  0828               	movf	??___flmul,w
  2469  0524  00F0               	movwf	__Umul8_16@multiplicand
  2470  0525  0825               	movf	___flmul@a+1,w
  2471  0526  120A  158A  20A9  120A  118A  	fcall	__Umul8_16
  2472  052B  0871               	movf	?__Umul8_16+1,w
  2473  052C  1283               	bcf	3,5	;RP0=0, select bank0
  2474  052D  1303               	bcf	3,6	;RP1=0, select bank0
  2475  052E  00B9               	movwf	___flmul@temp+1
  2476  052F  0870               	movf	?__Umul8_16,w
  2477  0530  00B8               	movwf	___flmul@temp
  2478  0531                     l2104:	
  2479  0531  0838               	movf	___flmul@temp,w
  2480  0532  00A8               	movwf	??___flmul
  2481  0533  01A9               	clrf	??___flmul+1
  2482  0534  01AA               	clrf	??___flmul+2
  2483  0535  01AB               	clrf	??___flmul+3
  2484  0536  0828               	movf	??___flmul,w
  2485  0537  07AE               	addwf	___flmul@grs,f
  2486  0538  0829               	movf	??___flmul+1,w
  2487  0539  1103               	clrz
  2488  053A  1803               	skipnc
  2489  053B  3E01               	addlw	1
  2490  053C  1903               	skipnz
  2491  053D  2D3F               	goto	u2151
  2492  053E  07AF               	addwf	___flmul@grs+1,f
  2493  053F                     u2151:	
  2494  053F  082A               	movf	??___flmul+2,w
  2495  0540  1103               	clrz
  2496  0541  1803               	skipnc
  2497  0542  3E01               	addlw	1
  2498  0543  1903               	skipnz
  2499  0544  2D46               	goto	u2152
  2500  0545  07B0               	addwf	___flmul@grs+2,f
  2501  0546                     u2152:	
  2502  0546  082B               	movf	??___flmul+3,w
  2503  0547  1103               	clrz
  2504  0548  1803               	skipnc
  2505  0549  3E01               	addlw	1
  2506  054A  1903               	skipnz
  2507  054B  2D4D               	goto	u2153
  2508  054C  07B1               	addwf	___flmul@grs+3,f
  2509  054D                     u2153:	
  2510  054D                     l2106:	
  2511  054D  0839               	movf	___flmul@temp+1,w
  2512  054E  00A8               	movwf	??___flmul
  2513  054F  01A9               	clrf	??___flmul+1
  2514  0550  01AA               	clrf	??___flmul+2
  2515  0551  01AB               	clrf	??___flmul+3
  2516  0552  0828               	movf	??___flmul,w
  2517  0553  07B4               	addwf	___flmul@prod,f
  2518  0554  0829               	movf	??___flmul+1,w
  2519  0555  1103               	clrz
  2520  0556  1803               	skipnc
  2521  0557  3E01               	addlw	1
  2522  0558  1903               	skipnz
  2523  0559  2D5B               	goto	u2161
  2524  055A  07B5               	addwf	___flmul@prod+1,f
  2525  055B                     u2161:	
  2526  055B  082A               	movf	??___flmul+2,w
  2527  055C  1103               	clrz
  2528  055D  1803               	skipnc
  2529  055E  3E01               	addlw	1
  2530  055F  1903               	skipnz
  2531  0560  2D62               	goto	u2162
  2532  0561  07B6               	addwf	___flmul@prod+2,f
  2533  0562                     u2162:	
  2534  0562  082B               	movf	??___flmul+3,w
  2535  0563  1103               	clrz
  2536  0564  1803               	skipnc
  2537  0565  3E01               	addlw	1
  2538  0566  1903               	skipnz
  2539  0567  2D69               	goto	u2163
  2540  0568  07B7               	addwf	___flmul@prod+3,f
  2541  0569                     u2163:	
  2542  0569  0822               	movf	___flmul@b+2,w
  2543  056A  00A8               	movwf	??___flmul
  2544  056B  0828               	movf	??___flmul,w
  2545  056C  00F0               	movwf	__Umul8_16@multiplicand
  2546  056D  0824               	movf	___flmul@a,w
  2547  056E  120A  158A  20A9  120A  118A  	fcall	__Umul8_16
  2548  0573  0871               	movf	?__Umul8_16+1,w
  2549  0574  1283               	bcf	3,5	;RP0=0, select bank0
  2550  0575  1303               	bcf	3,6	;RP1=0, select bank0
  2551  0576  00B9               	movwf	___flmul@temp+1
  2552  0577  0870               	movf	?__Umul8_16,w
  2553  0578  00B8               	movwf	___flmul@temp
  2554  0579                     l2108:	
  2555  0579  0838               	movf	___flmul@temp,w
  2556  057A  00A8               	movwf	??___flmul
  2557  057B  01A9               	clrf	??___flmul+1
  2558  057C  01AA               	clrf	??___flmul+2
  2559  057D  01AB               	clrf	??___flmul+3
  2560  057E  0828               	movf	??___flmul,w
  2561  057F  07AE               	addwf	___flmul@grs,f
  2562  0580  0829               	movf	??___flmul+1,w
  2563  0581  1103               	clrz
  2564  0582  1803               	skipnc
  2565  0583  3E01               	addlw	1
  2566  0584  1903               	skipnz
  2567  0585  2D87               	goto	u2171
  2568  0586  07AF               	addwf	___flmul@grs+1,f
  2569  0587                     u2171:	
  2570  0587  082A               	movf	??___flmul+2,w
  2571  0588  1103               	clrz
  2572  0589  1803               	skipnc
  2573  058A  3E01               	addlw	1
  2574  058B  1903               	skipnz
  2575  058C  2D8E               	goto	u2172
  2576  058D  07B0               	addwf	___flmul@grs+2,f
  2577  058E                     u2172:	
  2578  058E  082B               	movf	??___flmul+3,w
  2579  058F  1103               	clrz
  2580  0590  1803               	skipnc
  2581  0591  3E01               	addlw	1
  2582  0592  1903               	skipnz
  2583  0593  2D95               	goto	u2173
  2584  0594  07B1               	addwf	___flmul@grs+3,f
  2585  0595                     u2173:	
  2586  0595                     l2110:	
  2587  0595  0839               	movf	___flmul@temp+1,w
  2588  0596  00A8               	movwf	??___flmul
  2589  0597  01A9               	clrf	??___flmul+1
  2590  0598  01AA               	clrf	??___flmul+2
  2591  0599  01AB               	clrf	??___flmul+3
  2592  059A  0828               	movf	??___flmul,w
  2593  059B  07B4               	addwf	___flmul@prod,f
  2594  059C  0829               	movf	??___flmul+1,w
  2595  059D  1103               	clrz
  2596  059E  1803               	skipnc
  2597  059F  3E01               	addlw	1
  2598  05A0  1903               	skipnz
  2599  05A1  2DA3               	goto	u2181
  2600  05A2  07B5               	addwf	___flmul@prod+1,f
  2601  05A3                     u2181:	
  2602  05A3  082A               	movf	??___flmul+2,w
  2603  05A4  1103               	clrz
  2604  05A5  1803               	skipnc
  2605  05A6  3E01               	addlw	1
  2606  05A7  1903               	skipnz
  2607  05A8  2DAA               	goto	u2182
  2608  05A9  07B6               	addwf	___flmul@prod+2,f
  2609  05AA                     u2182:	
  2610  05AA  082B               	movf	??___flmul+3,w
  2611  05AB  1103               	clrz
  2612  05AC  1803               	skipnc
  2613  05AD  3E01               	addlw	1
  2614  05AE  1903               	skipnz
  2615  05AF  2DB1               	goto	u2183
  2616  05B0  07B7               	addwf	___flmul@prod+3,f
  2617  05B1                     u2183:	
  2618  05B1                     l2112:	
  2619  05B1  3008               	movlw	8
  2620  05B2  00A8               	movwf	??___flmul
  2621  05B3                     u2195:	
  2622  05B3  1003               	clrc
  2623  05B4  0DAE               	rlf	___flmul@grs,f
  2624  05B5  0DAF               	rlf	___flmul@grs+1,f
  2625  05B6  0DB0               	rlf	___flmul@grs+2,f
  2626  05B7  0DB1               	rlf	___flmul@grs+3,f
  2627  05B8  0BA8               	decfsz	??___flmul,f
  2628  05B9  2DB3               	goto	u2195
  2629  05BA                     l2114:	
  2630  05BA  0821               	movf	___flmul@b+1,w
  2631  05BB  00A8               	movwf	??___flmul
  2632  05BC  0828               	movf	??___flmul,w
  2633  05BD  00F0               	movwf	__Umul8_16@multiplicand
  2634  05BE  0824               	movf	___flmul@a,w
  2635  05BF  120A  158A  20A9  120A  118A  	fcall	__Umul8_16
  2636  05C4  0871               	movf	?__Umul8_16+1,w
  2637  05C5  1283               	bcf	3,5	;RP0=0, select bank0
  2638  05C6  1303               	bcf	3,6	;RP1=0, select bank0
  2639  05C7  00B9               	movwf	___flmul@temp+1
  2640  05C8  0870               	movf	?__Umul8_16,w
  2641  05C9  00B8               	movwf	___flmul@temp
  2642  05CA                     l2116:	
  2643  05CA  0838               	movf	___flmul@temp,w
  2644  05CB  00A8               	movwf	??___flmul
  2645  05CC  0839               	movf	___flmul@temp+1,w
  2646  05CD  00A9               	movwf	??___flmul+1
  2647  05CE  01AA               	clrf	??___flmul+2
  2648  05CF  01AB               	clrf	??___flmul+3
  2649  05D0  0828               	movf	??___flmul,w
  2650  05D1  07AE               	addwf	___flmul@grs,f
  2651  05D2  0829               	movf	??___flmul+1,w
  2652  05D3  1103               	clrz
  2653  05D4  1803               	skipnc
  2654  05D5  3E01               	addlw	1
  2655  05D6  1903               	skipnz
  2656  05D7  2DD9               	goto	u2201
  2657  05D8  07AF               	addwf	___flmul@grs+1,f
  2658  05D9                     u2201:	
  2659  05D9  082A               	movf	??___flmul+2,w
  2660  05DA  1103               	clrz
  2661  05DB  1803               	skipnc
  2662  05DC  3E01               	addlw	1
  2663  05DD  1903               	skipnz
  2664  05DE  2DE0               	goto	u2202
  2665  05DF  07B0               	addwf	___flmul@grs+2,f
  2666  05E0                     u2202:	
  2667  05E0  082B               	movf	??___flmul+3,w
  2668  05E1  1103               	clrz
  2669  05E2  1803               	skipnc
  2670  05E3  3E01               	addlw	1
  2671  05E4  1903               	skipnz
  2672  05E5  2DE7               	goto	u2203
  2673  05E6  07B1               	addwf	___flmul@grs+3,f
  2674  05E7                     u2203:	
  2675  05E7                     l2118:	
  2676  05E7  0820               	movf	___flmul@b,w
  2677  05E8  00A8               	movwf	??___flmul
  2678  05E9  0828               	movf	??___flmul,w
  2679  05EA  00F0               	movwf	__Umul8_16@multiplicand
  2680  05EB  0825               	movf	___flmul@a+1,w
  2681  05EC  120A  158A  20A9  120A  118A  	fcall	__Umul8_16
  2682  05F1  0871               	movf	?__Umul8_16+1,w
  2683  05F2  1283               	bcf	3,5	;RP0=0, select bank0
  2684  05F3  1303               	bcf	3,6	;RP1=0, select bank0
  2685  05F4  00B9               	movwf	___flmul@temp+1
  2686  05F5  0870               	movf	?__Umul8_16,w
  2687  05F6  00B8               	movwf	___flmul@temp
  2688  05F7                     l2120:	
  2689  05F7  0838               	movf	___flmul@temp,w
  2690  05F8  00A8               	movwf	??___flmul
  2691  05F9  0839               	movf	___flmul@temp+1,w
  2692  05FA  00A9               	movwf	??___flmul+1
  2693  05FB  01AA               	clrf	??___flmul+2
  2694  05FC  01AB               	clrf	??___flmul+3
  2695  05FD  0828               	movf	??___flmul,w
  2696  05FE  07AE               	addwf	___flmul@grs,f
  2697  05FF  0829               	movf	??___flmul+1,w
  2698  0600  1103               	clrz
  2699  0601  1803               	skipnc
  2700  0602  3E01               	addlw	1
  2701  0603  1903               	skipnz
  2702  0604  2E06               	goto	u2211
  2703  0605  07AF               	addwf	___flmul@grs+1,f
  2704  0606                     u2211:	
  2705  0606  082A               	movf	??___flmul+2,w
  2706  0607  1103               	clrz
  2707  0608  1803               	skipnc
  2708  0609  3E01               	addlw	1
  2709  060A  1903               	skipnz
  2710  060B  2E0D               	goto	u2212
  2711  060C  07B0               	addwf	___flmul@grs+2,f
  2712  060D                     u2212:	
  2713  060D  082B               	movf	??___flmul+3,w
  2714  060E  1103               	clrz
  2715  060F  1803               	skipnc
  2716  0610  3E01               	addlw	1
  2717  0611  1903               	skipnz
  2718  0612  2E14               	goto	u2213
  2719  0613  07B1               	addwf	___flmul@grs+3,f
  2720  0614                     u2213:	
  2721  0614                     l2122:	
  2722  0614  3008               	movlw	8
  2723  0615  00A8               	movwf	??___flmul
  2724  0616                     u2225:	
  2725  0616  1003               	clrc
  2726  0617  0DAE               	rlf	___flmul@grs,f
  2727  0618  0DAF               	rlf	___flmul@grs+1,f
  2728  0619  0DB0               	rlf	___flmul@grs+2,f
  2729  061A  0DB1               	rlf	___flmul@grs+3,f
  2730  061B  0BA8               	decfsz	??___flmul,f
  2731  061C  2E16               	goto	u2225
  2732  061D  0820               	movf	___flmul@b,w
  2733  061E  00A8               	movwf	??___flmul
  2734  061F  0828               	movf	??___flmul,w
  2735  0620  00F0               	movwf	__Umul8_16@multiplicand
  2736  0621  0824               	movf	___flmul@a,w
  2737  0622  120A  158A  20A9  120A  118A  	fcall	__Umul8_16
  2738  0627  0871               	movf	?__Umul8_16+1,w
  2739  0628  1283               	bcf	3,5	;RP0=0, select bank0
  2740  0629  1303               	bcf	3,6	;RP1=0, select bank0
  2741  062A  00B9               	movwf	___flmul@temp+1
  2742  062B  0870               	movf	?__Umul8_16,w
  2743  062C  00B8               	movwf	___flmul@temp
  2744  062D                     l2124:	
  2745  062D  0838               	movf	___flmul@temp,w
  2746  062E  00A8               	movwf	??___flmul
  2747  062F  0839               	movf	___flmul@temp+1,w
  2748  0630  00A9               	movwf	??___flmul+1
  2749  0631  01AA               	clrf	??___flmul+2
  2750  0632  01AB               	clrf	??___flmul+3
  2751  0633  0828               	movf	??___flmul,w
  2752  0634  07AE               	addwf	___flmul@grs,f
  2753  0635  0829               	movf	??___flmul+1,w
  2754  0636  1103               	clrz
  2755  0637  1803               	skipnc
  2756  0638  3E01               	addlw	1
  2757  0639  1903               	skipnz
  2758  063A  2E3C               	goto	u2231
  2759  063B  07AF               	addwf	___flmul@grs+1,f
  2760  063C                     u2231:	
  2761  063C  082A               	movf	??___flmul+2,w
  2762  063D  1103               	clrz
  2763  063E  1803               	skipnc
  2764  063F  3E01               	addlw	1
  2765  0640  1903               	skipnz
  2766  0641  2E43               	goto	u2232
  2767  0642  07B0               	addwf	___flmul@grs+2,f
  2768  0643                     u2232:	
  2769  0643  082B               	movf	??___flmul+3,w
  2770  0644  1103               	clrz
  2771  0645  1803               	skipnc
  2772  0646  3E01               	addlw	1
  2773  0647  1903               	skipnz
  2774  0648  2E4A               	goto	u2233
  2775  0649  07B1               	addwf	___flmul@grs+3,f
  2776  064A                     u2233:	
  2777  064A                     l2126:	
  2778  064A  0821               	movf	___flmul@b+1,w
  2779  064B  00A8               	movwf	??___flmul
  2780  064C  0828               	movf	??___flmul,w
  2781  064D  00F0               	movwf	__Umul8_16@multiplicand
  2782  064E  0826               	movf	___flmul@a+2,w
  2783  064F  120A  158A  20A9  120A  118A  	fcall	__Umul8_16
  2784  0654  0871               	movf	?__Umul8_16+1,w
  2785  0655  1283               	bcf	3,5	;RP0=0, select bank0
  2786  0656  1303               	bcf	3,6	;RP1=0, select bank0
  2787  0657  00B9               	movwf	___flmul@temp+1
  2788  0658  0870               	movf	?__Umul8_16,w
  2789  0659  00B8               	movwf	___flmul@temp
  2790  065A  0838               	movf	___flmul@temp,w
  2791  065B  00A8               	movwf	??___flmul
  2792  065C  0839               	movf	___flmul@temp+1,w
  2793  065D  00A9               	movwf	??___flmul+1
  2794  065E  01AA               	clrf	??___flmul+2
  2795  065F  01AB               	clrf	??___flmul+3
  2796  0660  0828               	movf	??___flmul,w
  2797  0661  07B4               	addwf	___flmul@prod,f
  2798  0662  0829               	movf	??___flmul+1,w
  2799  0663  1103               	clrz
  2800  0664  1803               	skipnc
  2801  0665  3E01               	addlw	1
  2802  0666  1903               	skipnz
  2803  0667  2E69               	goto	u2241
  2804  0668  07B5               	addwf	___flmul@prod+1,f
  2805  0669                     u2241:	
  2806  0669  082A               	movf	??___flmul+2,w
  2807  066A  1103               	clrz
  2808  066B  1803               	skipnc
  2809  066C  3E01               	addlw	1
  2810  066D  1903               	skipnz
  2811  066E  2E70               	goto	u2242
  2812  066F  07B6               	addwf	___flmul@prod+2,f
  2813  0670                     u2242:	
  2814  0670  082B               	movf	??___flmul+3,w
  2815  0671  1103               	clrz
  2816  0672  1803               	skipnc
  2817  0673  3E01               	addlw	1
  2818  0674  1903               	skipnz
  2819  0675  2E77               	goto	u2243
  2820  0676  07B7               	addwf	___flmul@prod+3,f
  2821  0677                     u2243:	
  2822  0677                     l2128:	
  2823  0677  0822               	movf	___flmul@b+2,w
  2824  0678  00A8               	movwf	??___flmul
  2825  0679  0828               	movf	??___flmul,w
  2826  067A  00F0               	movwf	__Umul8_16@multiplicand
  2827  067B  0825               	movf	___flmul@a+1,w
  2828  067C  120A  158A  20A9  120A  118A  	fcall	__Umul8_16
  2829  0681  0871               	movf	?__Umul8_16+1,w
  2830  0682  1283               	bcf	3,5	;RP0=0, select bank0
  2831  0683  1303               	bcf	3,6	;RP1=0, select bank0
  2832  0684  00B9               	movwf	___flmul@temp+1
  2833  0685  0870               	movf	?__Umul8_16,w
  2834  0686  00B8               	movwf	___flmul@temp
  2835  0687                     l2130:	
  2836  0687  0838               	movf	___flmul@temp,w
  2837  0688  00A8               	movwf	??___flmul
  2838  0689  0839               	movf	___flmul@temp+1,w
  2839  068A  00A9               	movwf	??___flmul+1
  2840  068B  01AA               	clrf	??___flmul+2
  2841  068C  01AB               	clrf	??___flmul+3
  2842  068D  0828               	movf	??___flmul,w
  2843  068E  07B4               	addwf	___flmul@prod,f
  2844  068F  0829               	movf	??___flmul+1,w
  2845  0690  1103               	clrz
  2846  0691  1803               	skipnc
  2847  0692  3E01               	addlw	1
  2848  0693  1903               	skipnz
  2849  0694  2E96               	goto	u2251
  2850  0695  07B5               	addwf	___flmul@prod+1,f
  2851  0696                     u2251:	
  2852  0696  082A               	movf	??___flmul+2,w
  2853  0697  1103               	clrz
  2854  0698  1803               	skipnc
  2855  0699  3E01               	addlw	1
  2856  069A  1903               	skipnz
  2857  069B  2E9D               	goto	u2252
  2858  069C  07B6               	addwf	___flmul@prod+2,f
  2859  069D                     u2252:	
  2860  069D  082B               	movf	??___flmul+3,w
  2861  069E  1103               	clrz
  2862  069F  1803               	skipnc
  2863  06A0  3E01               	addlw	1
  2864  06A1  1903               	skipnz
  2865  06A2  2EA4               	goto	u2253
  2866  06A3  07B7               	addwf	___flmul@prod+3,f
  2867  06A4                     u2253:	
  2868  06A4  0822               	movf	___flmul@b+2,w
  2869  06A5  00A8               	movwf	??___flmul
  2870  06A6  0828               	movf	??___flmul,w
  2871  06A7  00F0               	movwf	__Umul8_16@multiplicand
  2872  06A8  0826               	movf	___flmul@a+2,w
  2873  06A9  120A  158A  20A9  120A  118A  	fcall	__Umul8_16
  2874  06AE  0871               	movf	?__Umul8_16+1,w
  2875  06AF  1283               	bcf	3,5	;RP0=0, select bank0
  2876  06B0  1303               	bcf	3,6	;RP1=0, select bank0
  2877  06B1  00B9               	movwf	___flmul@temp+1
  2878  06B2  0870               	movf	?__Umul8_16,w
  2879  06B3  00B8               	movwf	___flmul@temp
  2880  06B4                     l2132:	
  2881  06B4  0838               	movf	___flmul@temp,w
  2882  06B5  00A8               	movwf	??___flmul
  2883  06B6  0839               	movf	___flmul@temp+1,w
  2884  06B7  00A9               	movwf	??___flmul+1
  2885  06B8  01AA               	clrf	??___flmul+2
  2886  06B9  01AB               	clrf	??___flmul+3
  2887  06BA  3008               	movlw	8
  2888  06BB                     u2265:	
  2889  06BB  1003               	clrc
  2890  06BC  0DA8               	rlf	??___flmul,f
  2891  06BD  0DA9               	rlf	??___flmul+1,f
  2892  06BE  0DAA               	rlf	??___flmul+2,f
  2893  06BF  0DAB               	rlf	??___flmul+3,f
  2894  06C0                     u2260:	
  2895  06C0  3EFF               	addlw	-1
  2896  06C1  1D03               	skipz
  2897  06C2  2EBB               	goto	u2265
  2898  06C3  0828               	movf	??___flmul,w
  2899  06C4  07B4               	addwf	___flmul@prod,f
  2900  06C5  0829               	movf	??___flmul+1,w
  2901  06C6  1103               	clrz
  2902  06C7  1803               	skipnc
  2903  06C8  3E01               	addlw	1
  2904  06C9  1903               	skipnz
  2905  06CA  2ECC               	goto	u2271
  2906  06CB  07B5               	addwf	___flmul@prod+1,f
  2907  06CC                     u2271:	
  2908  06CC  082A               	movf	??___flmul+2,w
  2909  06CD  1103               	clrz
  2910  06CE  1803               	skipnc
  2911  06CF  3E01               	addlw	1
  2912  06D0  1903               	skipnz
  2913  06D1  2ED3               	goto	u2272
  2914  06D2  07B6               	addwf	___flmul@prod+2,f
  2915  06D3                     u2272:	
  2916  06D3  082B               	movf	??___flmul+3,w
  2917  06D4  1103               	clrz
  2918  06D5  1803               	skipnc
  2919  06D6  3E01               	addlw	1
  2920  06D7  1903               	skipnz
  2921  06D8  2EDA               	goto	u2273
  2922  06D9  07B7               	addwf	___flmul@prod+3,f
  2923  06DA                     u2273:	
  2924  06DA                     l2134:	
  2925  06DA  082E               	movf	___flmul@grs,w
  2926  06DB  00A8               	movwf	??___flmul
  2927  06DC  082F               	movf	___flmul@grs+1,w
  2928  06DD  00A9               	movwf	??___flmul+1
  2929  06DE  0830               	movf	___flmul@grs+2,w
  2930  06DF  00AA               	movwf	??___flmul+2
  2931  06E0  0831               	movf	___flmul@grs+3,w
  2932  06E1  00AB               	movwf	??___flmul+3
  2933  06E2  3018               	movlw	24
  2934  06E3                     u2285:	
  2935  06E3  1003               	clrc
  2936  06E4  0CAB               	rrf	??___flmul+3,f
  2937  06E5  0CAA               	rrf	??___flmul+2,f
  2938  06E6  0CA9               	rrf	??___flmul+1,f
  2939  06E7  0CA8               	rrf	??___flmul,f
  2940  06E8                     u2280:	
  2941  06E8  3EFF               	addlw	-1
  2942  06E9  1D03               	skipz
  2943  06EA  2EE3               	goto	u2285
  2944  06EB  0828               	movf	??___flmul,w
  2945  06EC  07B4               	addwf	___flmul@prod,f
  2946  06ED  0829               	movf	??___flmul+1,w
  2947  06EE  1103               	clrz
  2948  06EF  1803               	skipnc
  2949  06F0  3E01               	addlw	1
  2950  06F1  1903               	skipnz
  2951  06F2  2EF4               	goto	u2291
  2952  06F3  07B5               	addwf	___flmul@prod+1,f
  2953  06F4                     u2291:	
  2954  06F4  082A               	movf	??___flmul+2,w
  2955  06F5  1103               	clrz
  2956  06F6  1803               	skipnc
  2957  06F7  3E01               	addlw	1
  2958  06F8  1903               	skipnz
  2959  06F9  2EFB               	goto	u2292
  2960  06FA  07B6               	addwf	___flmul@prod+2,f
  2961  06FB                     u2292:	
  2962  06FB  082B               	movf	??___flmul+3,w
  2963  06FC  1103               	clrz
  2964  06FD  1803               	skipnc
  2965  06FE  3E01               	addlw	1
  2966  06FF  1903               	skipnz
  2967  0700  2F02               	goto	u2293
  2968  0701  07B7               	addwf	___flmul@prod+3,f
  2969  0702                     u2293:	
  2970  0702                     l2136:	
  2971  0702  3008               	movlw	8
  2972  0703  00A8               	movwf	??___flmul
  2973  0704                     u2305:	
  2974  0704  1003               	clrc
  2975  0705  0DAE               	rlf	___flmul@grs,f
  2976  0706  0DAF               	rlf	___flmul@grs+1,f
  2977  0707  0DB0               	rlf	___flmul@grs+2,f
  2978  0708  0DB1               	rlf	___flmul@grs+3,f
  2979  0709  0BA8               	decfsz	??___flmul,f
  2980  070A  2F04               	goto	u2305
  2981  070B                     l2138:	
  2982  070B  0833               	movf	___flmul@bexp,w
  2983  070C  0732               	addwf	___flmul@aexp,w
  2984  070D  00A8               	movwf	??___flmul
  2985  070E  01A9               	clrf	??___flmul+1
  2986  070F  0DA9               	rlf	??___flmul+1,f
  2987  0710  0828               	movf	??___flmul,w
  2988  0711  3E82               	addlw	130
  2989  0712  00B8               	movwf	___flmul@temp
  2990  0713  0829               	movf	??___flmul+1,w
  2991  0714  1803               	skipnc
  2992  0715  3E01               	addlw	1
  2993  0716  3EFF               	addlw	255
  2994  0717  00B9               	movwf	___flmul@temp+1
  2995  0718  2F36               	goto	l2150
  2996  0719                     l2140:	
  2997  0719  3001               	movlw	1
  2998  071A  00A8               	movwf	??___flmul
  2999  071B                     u2315:	
  3000  071B  1003               	clrc
  3001  071C  0DB4               	rlf	___flmul@prod,f
  3002  071D  0DB5               	rlf	___flmul@prod+1,f
  3003  071E  0DB6               	rlf	___flmul@prod+2,f
  3004  071F  0DB7               	rlf	___flmul@prod+3,f
  3005  0720  0BA8               	decfsz	??___flmul,f
  3006  0721  2F1B               	goto	u2315
  3007  0722                     l2142:	
  3008  0722  1FB1               	btfss	___flmul@grs+3,7
  3009  0723  2F25               	goto	u2321
  3010  0724  2F26               	goto	u2320
  3011  0725                     u2321:	
  3012  0725  2F27               	goto	l2146
  3013  0726                     u2320:	
  3014  0726                     l2144:	
  3015  0726  1434               	bsf	___flmul@prod,0
  3016  0727                     l2146:	
  3017  0727  3001               	movlw	1
  3018  0728  00A8               	movwf	??___flmul
  3019  0729                     u2335:	
  3020  0729  1003               	clrc
  3021  072A  0DAE               	rlf	___flmul@grs,f
  3022  072B  0DAF               	rlf	___flmul@grs+1,f
  3023  072C  0DB0               	rlf	___flmul@grs+2,f
  3024  072D  0DB1               	rlf	___flmul@grs+3,f
  3025  072E  0BA8               	decfsz	??___flmul,f
  3026  072F  2F29               	goto	u2335
  3027  0730                     l2148:	
  3028  0730  30FF               	movlw	255
  3029  0731  07B8               	addwf	___flmul@temp,f
  3030  0732  1803               	skipnc
  3031  0733  0AB9               	incf	___flmul@temp+1,f
  3032  0734  30FF               	movlw	255
  3033  0735  07B9               	addwf	___flmul@temp+1,f
  3034  0736                     l2150:	
  3035  0736  1FB6               	btfss	___flmul@prod+2,7
  3036  0737  2F39               	goto	u2341
  3037  0738  2F3A               	goto	u2340
  3038  0739                     u2341:	
  3039  0739  2F19               	goto	l2140
  3040  073A                     u2340:	
  3041  073A                     l2152:	
  3042  073A  01B2               	clrf	___flmul@aexp
  3043  073B                     l2154:	
  3044  073B  1FB1               	btfss	___flmul@grs+3,7
  3045  073C  2F3E               	goto	u2351
  3046  073D  2F3F               	goto	u2350
  3047  073E                     u2351:	
  3048  073E  2F5B               	goto	l2162
  3049  073F                     u2350:	
  3050  073F                     l2156:	
  3051  073F  30FF               	movlw	255
  3052  0740  052E               	andwf	___flmul@grs,w
  3053  0741  00A8               	movwf	??___flmul
  3054  0742  30FF               	movlw	255
  3055  0743  052F               	andwf	___flmul@grs+1,w
  3056  0744  00A9               	movwf	??___flmul+1
  3057  0745  30FF               	movlw	255
  3058  0746  0530               	andwf	___flmul@grs+2,w
  3059  0747  00AA               	movwf	??___flmul+2
  3060  0748  307F               	movlw	127
  3061  0749  0531               	andwf	___flmul@grs+3,w
  3062  074A  00AB               	movwf	??___flmul+3
  3063  074B  082B               	movf	??___flmul+3,w
  3064  074C  042A               	iorwf	??___flmul+2,w
  3065  074D  0429               	iorwf	??___flmul+1,w
  3066  074E  0428               	iorwf	??___flmul,w
  3067  074F  1903               	skipnz
  3068  0750  2F52               	goto	u2361
  3069  0751  2F53               	goto	u2360
  3070  0752                     u2361:	
  3071  0752  2F56               	goto	l685
  3072  0753                     u2360:	
  3073  0753                     l2158:	
  3074  0753  01B2               	clrf	___flmul@aexp
  3075  0754  0AB2               	incf	___flmul@aexp,f
  3076  0755  2F5B               	goto	l2162
  3077  0756                     l685:	
  3078  0756  1C34               	btfss	___flmul@prod,0
  3079  0757  2F59               	goto	u2371
  3080  0758  2F5A               	goto	u2370
  3081  0759                     u2371:	
  3082  0759  2F5B               	goto	l2162
  3083  075A                     u2370:	
  3084  075A  2F53               	goto	l2158
  3085  075B                     l2162:	
  3086  075B  0832               	movf	___flmul@aexp,w
  3087  075C  1903               	btfsc	3,2
  3088  075D  2F5F               	goto	u2381
  3089  075E  2F60               	goto	u2380
  3090  075F                     u2381:	
  3091  075F  2F91               	goto	l2172
  3092  0760                     u2380:	
  3093  0760                     l2164:	
  3094  0760  3001               	movlw	1
  3095  0761  07B4               	addwf	___flmul@prod,f
  3096  0762  3000               	movlw	0
  3097  0763  1803               	skipnc
  3098  0764  3001               	movlw	1
  3099  0765  07B5               	addwf	___flmul@prod+1,f
  3100  0766  3000               	movlw	0
  3101  0767  1803               	skipnc
  3102  0768  3001               	movlw	1
  3103  0769  07B6               	addwf	___flmul@prod+2,f
  3104  076A  3000               	movlw	0
  3105  076B  1803               	skipnc
  3106  076C  3001               	movlw	1
  3107  076D  07B7               	addwf	___flmul@prod+3,f
  3108  076E                     l2166:	
  3109  076E  1C37               	btfss	___flmul@prod+3,0
  3110  076F  2F71               	goto	u2391
  3111  0770  2F72               	goto	u2390
  3112  0771                     u2391:	
  3113  0771  2F91               	goto	l2172
  3114  0772                     u2390:	
  3115  0772                     l2168:	
  3116  0772  0834               	movf	___flmul@prod,w
  3117  0773  00A8               	movwf	??___flmul
  3118  0774  0835               	movf	___flmul@prod+1,w
  3119  0775  00A9               	movwf	??___flmul+1
  3120  0776  0836               	movf	___flmul@prod+2,w
  3121  0777  00AA               	movwf	??___flmul+2
  3122  0778  0837               	movf	___flmul@prod+3,w
  3123  0779  00AB               	movwf	??___flmul+3
  3124  077A  3001               	movlw	1
  3125  077B  00AC               	movwf	??___flmul+4
  3126  077C                     u2405:	
  3127  077C  0D2B               	rlf	??___flmul+3,w
  3128  077D  0CAB               	rrf	??___flmul+3,f
  3129  077E  0CAA               	rrf	??___flmul+2,f
  3130  077F  0CA9               	rrf	??___flmul+1,f
  3131  0780  0CA8               	rrf	??___flmul,f
  3132  0781                     u2400:	
  3133  0781  0BAC               	decfsz	??___flmul+4,f
  3134  0782  2F7C               	goto	u2405
  3135  0783  082B               	movf	??___flmul+3,w
  3136  0784  00B7               	movwf	___flmul@prod+3
  3137  0785  082A               	movf	??___flmul+2,w
  3138  0786  00B6               	movwf	___flmul@prod+2
  3139  0787  0829               	movf	??___flmul+1,w
  3140  0788  00B5               	movwf	___flmul@prod+1
  3141  0789  0828               	movf	??___flmul,w
  3142  078A  00B4               	movwf	___flmul@prod
  3143  078B                     l2170:	
  3144  078B  3001               	movlw	1
  3145  078C  07B8               	addwf	___flmul@temp,f
  3146  078D  1803               	skipnc
  3147  078E  0AB9               	incf	___flmul@temp+1,f
  3148  078F  3000               	movlw	0
  3149  0790  07B9               	addwf	___flmul@temp+1,f
  3150  0791                     l2172:	
  3151  0791  0839               	movf	___flmul@temp+1,w
  3152  0792  3A80               	xorlw	128
  3153  0793  00FF               	movwf	btemp+1
  3154  0794  3080               	movlw	128
  3155  0795  027F               	subwf	btemp+1,w
  3156  0796  1D03               	skipz
  3157  0797  2F9A               	goto	u2415
  3158  0798  30FF               	movlw	255
  3159  0799  0238               	subwf	___flmul@temp,w
  3160  079A                     u2415:	
  3161  079A  1C03               	skipc
  3162  079B  2F9D               	goto	u2411
  3163  079C  2F9E               	goto	u2410
  3164  079D                     u2411:	
  3165  079D  2FA9               	goto	l2176
  3166  079E                     u2410:	
  3167  079E                     l2174:	
  3168  079E  307F               	movlw	127
  3169  079F  1283               	bcf	3,5	;RP0=0, select bank0
  3170  07A0  1303               	bcf	3,6	;RP1=0, select bank0
  3171  07A1  00B7               	movwf	___flmul@prod+3
  3172  07A2  3080               	movlw	128
  3173  07A3  00B6               	movwf	___flmul@prod+2
  3174  07A4  3000               	movlw	0
  3175  07A5  00B5               	movwf	___flmul@prod+1
  3176  07A6  3000               	movlw	0
  3177  07A7  00B4               	movwf	___flmul@prod
  3178  07A8  2FDE               	goto	l691
  3179  07A9                     l2176:	
  3180  07A9  1283               	bcf	3,5	;RP0=0, select bank0
  3181  07AA  1303               	bcf	3,6	;RP1=0, select bank0
  3182  07AB  0839               	movf	___flmul@temp+1,w
  3183  07AC  3A80               	xorlw	128
  3184  07AD  00FF               	movwf	btemp+1
  3185  07AE  3080               	movlw	128
  3186  07AF  027F               	subwf	btemp+1,w
  3187  07B0  1D03               	skipz
  3188  07B1  2FB4               	goto	u2425
  3189  07B2  3001               	movlw	1
  3190  07B3  0238               	subwf	___flmul@temp,w
  3191  07B4                     u2425:	
  3192  07B4  1803               	skipnc
  3193  07B5  2FB7               	goto	u2421
  3194  07B6  2FB8               	goto	u2420
  3195  07B7                     u2421:	
  3196  07B7  2FC4               	goto	l2182
  3197  07B8                     u2420:	
  3198  07B8                     l2178:	
  3199  07B8  3000               	movlw	0
  3200  07B9  1283               	bcf	3,5	;RP0=0, select bank0
  3201  07BA  1303               	bcf	3,6	;RP1=0, select bank0
  3202  07BB  00B7               	movwf	___flmul@prod+3
  3203  07BC  3000               	movlw	0
  3204  07BD  00B6               	movwf	___flmul@prod+2
  3205  07BE  3000               	movlw	0
  3206  07BF  00B5               	movwf	___flmul@prod+1
  3207  07C0  3000               	movlw	0
  3208  07C1  00B4               	movwf	___flmul@prod
  3209  07C2                     l2180:	
  3210  07C2  01AD               	clrf	___flmul@sign
  3211  07C3  2FDE               	goto	l691
  3212  07C4                     l2182:	
  3213  07C4  1283               	bcf	3,5	;RP0=0, select bank0
  3214  07C5  1303               	bcf	3,6	;RP1=0, select bank0
  3215  07C6  0838               	movf	___flmul@temp,w
  3216  07C7  00A8               	movwf	??___flmul
  3217  07C8  0828               	movf	??___flmul,w
  3218  07C9  00B3               	movwf	___flmul@bexp
  3219  07CA  30FF               	movlw	255
  3220  07CB  05B4               	andwf	___flmul@prod,f
  3221  07CC  30FF               	movlw	255
  3222  07CD  05B5               	andwf	___flmul@prod+1,f
  3223  07CE  307F               	movlw	127
  3224  07CF  05B6               	andwf	___flmul@prod+2,f
  3225  07D0  3000               	movlw	0
  3226  07D1  05B7               	andwf	___flmul@prod+3,f
  3227  07D2                     l2184:	
  3228  07D2  1C33               	btfss	___flmul@bexp,0
  3229  07D3  2FD5               	goto	u2431
  3230  07D4  2FD6               	goto	u2430
  3231  07D5                     u2431:	
  3232  07D5  2FD7               	goto	l2188
  3233  07D6                     u2430:	
  3234  07D6                     l2186:	
  3235  07D6  17B6               	bsf	___flmul@prod+2,7
  3236  07D7                     l2188:	
  3237  07D7  0833               	movf	___flmul@bexp,w
  3238  07D8  00A8               	movwf	??___flmul
  3239  07D9  1003               	clrc
  3240  07DA  0C28               	rrf	??___flmul,w
  3241  07DB  00A9               	movwf	??___flmul+1
  3242  07DC  0829               	movf	??___flmul+1,w
  3243  07DD  00B7               	movwf	___flmul@prod+3
  3244  07DE                     l691:	
  3245  07DE  082D               	movf	___flmul@sign,w
  3246  07DF  00A8               	movwf	??___flmul
  3247  07E0  0828               	movf	??___flmul,w
  3248  07E1  04B7               	iorwf	___flmul@prod+3,f
  3249  07E2                     l2190:	
  3250  07E2  0837               	movf	___flmul@prod+3,w
  3251  07E3  00A3               	movwf	?___flmul+3
  3252  07E4  0836               	movf	___flmul@prod+2,w
  3253  07E5  00A2               	movwf	?___flmul+2
  3254  07E6  0835               	movf	___flmul@prod+1,w
  3255  07E7  00A1               	movwf	?___flmul+1
  3256  07E8  0834               	movf	___flmul@prod,w
  3257  07E9  00A0               	movwf	?___flmul
  3258  07EA                     l679:	
  3259  07EA  0008               	return
  3260  07EB                     __end_of___flmul:	
  3261                           
  3262                           	psect	text5
  3263  08A9                     __ptext5:	
  3264 ;; *************** function __Umul8_16 *****************
  3265 ;; Defined at:
  3266 ;;		line 4 in file "C:\Program Files (x86)\Microchip\xc8\v2.10\pic\sources\c90\common\Umul8_16.c"
  3267 ;; Parameters:    Size  Location     Type
  3268 ;;  multiplier      1    wreg     unsigned char 
  3269 ;;  multiplicand    1    0[COMMON] unsigned char 
  3270 ;; Auto vars:     Size  Location     Type
  3271 ;;  multiplier      1    8[COMMON] unsigned char 
  3272 ;;  word_mpld       2    6[COMMON] unsigned int 
  3273 ;;  product         2    4[COMMON] unsigned int 
  3274 ;; Return value:  Size  Location     Type
  3275 ;;                  2    0[COMMON] unsigned int 
  3276 ;; Registers used:
  3277 ;;		wreg, status,2, status,0
  3278 ;; Tracked objects:
  3279 ;;		On entry : 0/0
  3280 ;;		On exit  : 0/0
  3281 ;;		Unchanged: 0/0
  3282 ;; Data sizes:     COMMON   BANK0   BANK1   BANK3   BANK2
  3283 ;;      Params:         2       0       0       0       0
  3284 ;;      Locals:         5       0       0       0       0
  3285 ;;      Temps:          2       0       0       0       0
  3286 ;;      Totals:         9       0       0       0       0
  3287 ;;Total ram usage:        9 bytes
  3288 ;; Hardware stack levels used:    1
  3289 ;; This function calls:
  3290 ;;		Nothing
  3291 ;; This function is called by:
  3292 ;;		___flmul
  3293 ;; This function uses a non-reentrant model
  3294 ;;
  3295                           
  3296                           
  3297                           ;psect for function __Umul8_16
  3298  08A9                     __Umul8_16:	
  3299                           
  3300                           ;incstack = 0
  3301                           ; Regs used in __Umul8_16: [wreg+status,2+status,0]
  3302                           ;__Umul8_16@multiplier stored from wreg
  3303  08A9  00F8               	movwf	__Umul8_16@multiplier
  3304  08AA                     l1720:	
  3305  08AA  01F4               	clrf	__Umul8_16@product
  3306  08AB  01F5               	clrf	__Umul8_16@product+1
  3307  08AC                     l1722:	
  3308  08AC  0870               	movf	__Umul8_16@multiplicand,w
  3309  08AD  00F2               	movwf	??__Umul8_16
  3310  08AE  01F3               	clrf	??__Umul8_16+1
  3311  08AF  0872               	movf	??__Umul8_16,w
  3312  08B0  00F6               	movwf	__Umul8_16@word_mpld
  3313  08B1  0873               	movf	??__Umul8_16+1,w
  3314  08B2  00F7               	movwf	__Umul8_16@word_mpld+1
  3315  08B3                     l1724:	
  3316  08B3  1C78               	btfss	__Umul8_16@multiplier,0
  3317  08B4  28B6               	goto	u1341
  3318  08B5  28B7               	goto	u1340
  3319  08B6                     u1341:	
  3320  08B6  28BD               	goto	l736
  3321  08B7                     u1340:	
  3322  08B7                     l1726:	
  3323  08B7  0876               	movf	__Umul8_16@word_mpld,w
  3324  08B8  07F4               	addwf	__Umul8_16@product,f
  3325  08B9  1803               	skipnc
  3326  08BA  0AF5               	incf	__Umul8_16@product+1,f
  3327  08BB  0877               	movf	__Umul8_16@word_mpld+1,w
  3328  08BC  07F5               	addwf	__Umul8_16@product+1,f
  3329  08BD                     l736:	
  3330  08BD  3001               	movlw	1
  3331  08BE                     u1355:	
  3332  08BE  1003               	clrc
  3333  08BF  0DF6               	rlf	__Umul8_16@word_mpld,f
  3334  08C0  0DF7               	rlf	__Umul8_16@word_mpld+1,f
  3335  08C1  3EFF               	addlw	-1
  3336  08C2  1D03               	skipz
  3337  08C3  28BE               	goto	u1355
  3338  08C4  1003               	clrc
  3339  08C5  0CF8               	rrf	__Umul8_16@multiplier,f
  3340  08C6                     l1728:	
  3341  08C6  0878               	movf	__Umul8_16@multiplier,w
  3342  08C7  1D03               	btfss	3,2
  3343  08C8  28CA               	goto	u1361
  3344  08C9  28CB               	goto	u1360
  3345  08CA                     u1361:	
  3346  08CA  28B3               	goto	l1724
  3347  08CB                     u1360:	
  3348  08CB                     l1730:	
  3349  08CB  0875               	movf	__Umul8_16@product+1,w
  3350  08CC  00F1               	movwf	?__Umul8_16+1
  3351  08CD  0874               	movf	__Umul8_16@product,w
  3352  08CE  00F0               	movwf	?__Umul8_16
  3353  08CF                     l738:	
  3354  08CF  0008               	return
  3355  08D0                     __end_of__Umul8_16:	
  3356                           
  3357                           	psect	text6
  3358  0E23                     __ptext6:	
  3359 ;; *************** function ___fldiv *****************
  3360 ;; Defined at:
  3361 ;;		line 8 in file "C:\Program Files (x86)\Microchip\xc8\v2.10\pic\sources\c90\common\sprcdiv.c"
  3362 ;; Parameters:    Size  Location     Type
  3363 ;;  a               4   26[BANK0 ] unsigned int 
  3364 ;;  b               4   30[BANK0 ] unsigned int 
  3365 ;; Auto vars:     Size  Location     Type
  3366 ;;  grs             4   46[BANK0 ] unsigned long 
  3367 ;;  rem             4   39[BANK0 ] unsigned long 
  3368 ;;  new_exp         2   44[BANK0 ] int 
  3369 ;;  aexp            1   51[BANK0 ] unsigned char 
  3370 ;;  bexp            1   50[BANK0 ] unsigned char 
  3371 ;;  sign            1   43[BANK0 ] unsigned char 
  3372 ;; Return value:  Size  Location     Type
  3373 ;;                  4   26[BANK0 ] unsigned char 
  3374 ;; Registers used:
  3375 ;;		wreg, status,2, status,0, btemp+1
  3376 ;; Tracked objects:
  3377 ;;		On entry : 0/0
  3378 ;;		On exit  : 0/0
  3379 ;;		Unchanged: 0/0
  3380 ;; Data sizes:     COMMON   BANK0   BANK1   BANK3   BANK2
  3381 ;;      Params:         0       8       0       0       0
  3382 ;;      Locals:         0      13       0       0       0
  3383 ;;      Temps:          0       5       0       0       0
  3384 ;;      Totals:         0      26       0       0       0
  3385 ;;Total ram usage:       26 bytes
  3386 ;; Hardware stack levels used:    1
  3387 ;; This function calls:
  3388 ;;		Nothing
  3389 ;; This function is called by:
  3390 ;;		_temperatura
  3391 ;; This function uses a non-reentrant model
  3392 ;;
  3393                           
  3394                           
  3395                           ;psect for function ___fldiv
  3396  0E23                     ___fldiv:	
  3397  0E23                     l1912:	
  3398                           ;incstack = 0
  3399                           ; Regs used in ___fldiv: [wreg+status,2+status,0+btemp+1]
  3400                           
  3401  0E23  1283               	bcf	3,5	;RP0=0, select bank0
  3402  0E24  1303               	bcf	3,6	;RP1=0, select bank0
  3403  0E25  0841               	movf	___fldiv@b+3,w
  3404  0E26  3980               	andlw	128
  3405  0E27  00C2               	movwf	??___fldiv
  3406  0E28  0842               	movf	??___fldiv,w
  3407  0E29  00CB               	movwf	___fldiv@sign
  3408  0E2A                     l1914:	
  3409  0E2A  0841               	movf	___fldiv@b+3,w
  3410  0E2B  00C2               	movwf	??___fldiv
  3411  0E2C  0742               	addwf	??___fldiv,w
  3412  0E2D  00C3               	movwf	??___fldiv+1
  3413  0E2E  0843               	movf	??___fldiv+1,w
  3414  0E2F  00D2               	movwf	___fldiv@bexp
  3415  0E30                     l1916:	
  3416  0E30  1FC0               	btfss	___fldiv@b+2,7
  3417  0E31  2E33               	goto	u1781
  3418  0E32  2E34               	goto	u1780
  3419  0E33                     u1781:	
  3420  0E33  2E35               	goto	l1920
  3421  0E34                     u1780:	
  3422  0E34                     l1918:	
  3423  0E34  1452               	bsf	___fldiv@bexp,0
  3424  0E35                     l1920:	
  3425  0E35  0852               	movf	___fldiv@bexp,w
  3426  0E36  1903               	btfsc	3,2
  3427  0E37  2E39               	goto	u1791
  3428  0E38  2E3A               	goto	u1790
  3429  0E39                     u1791:	
  3430  0E39  2E4A               	goto	l1930
  3431  0E3A                     u1790:	
  3432  0E3A                     l1922:	
  3433  0E3A  0A52               	incf	___fldiv@bexp,w
  3434  0E3B  1D03               	btfss	3,2
  3435  0E3C  2E3E               	goto	u1801
  3436  0E3D  2E3F               	goto	u1800
  3437  0E3E                     u1801:	
  3438  0E3E  2E47               	goto	l1926
  3439  0E3F                     u1800:	
  3440  0E3F                     l1924:	
  3441  0E3F  3000               	movlw	0
  3442  0E40  00C1               	movwf	___fldiv@b+3
  3443  0E41  3000               	movlw	0
  3444  0E42  00C0               	movwf	___fldiv@b+2
  3445  0E43  3000               	movlw	0
  3446  0E44  00BF               	movwf	___fldiv@b+1
  3447  0E45  3000               	movlw	0
  3448  0E46  00BE               	movwf	___fldiv@b
  3449  0E47                     l1926:	
  3450  0E47  17C0               	bsf	___fldiv@b+2,7
  3451  0E48                     l1928:	
  3452  0E48  01C1               	clrf	___fldiv@b+3
  3453  0E49  2E52               	goto	l1932
  3454  0E4A                     l1930:	
  3455  0E4A  3000               	movlw	0
  3456  0E4B  00C1               	movwf	___fldiv@b+3
  3457  0E4C  3000               	movlw	0
  3458  0E4D  00C0               	movwf	___fldiv@b+2
  3459  0E4E  3000               	movlw	0
  3460  0E4F  00BF               	movwf	___fldiv@b+1
  3461  0E50  3000               	movlw	0
  3462  0E51  00BE               	movwf	___fldiv@b
  3463  0E52                     l1932:	
  3464  0E52  083D               	movf	___fldiv@a+3,w
  3465  0E53  3980               	andlw	128
  3466  0E54  00C2               	movwf	??___fldiv
  3467  0E55  0842               	movf	??___fldiv,w
  3468  0E56  06CB               	xorwf	___fldiv@sign,f
  3469  0E57                     l1934:	
  3470  0E57  083D               	movf	___fldiv@a+3,w
  3471  0E58  00C2               	movwf	??___fldiv
  3472  0E59  0742               	addwf	??___fldiv,w
  3473  0E5A  00C3               	movwf	??___fldiv+1
  3474  0E5B  0843               	movf	??___fldiv+1,w
  3475  0E5C  00D3               	movwf	___fldiv@aexp
  3476  0E5D                     l1936:	
  3477  0E5D  1FBC               	btfss	___fldiv@a+2,7
  3478  0E5E  2E60               	goto	u1811
  3479  0E5F  2E61               	goto	u1810
  3480  0E60                     u1811:	
  3481  0E60  2E62               	goto	l1940
  3482  0E61                     u1810:	
  3483  0E61                     l1938:	
  3484  0E61  1453               	bsf	___fldiv@aexp,0
  3485  0E62                     l1940:	
  3486  0E62  0853               	movf	___fldiv@aexp,w
  3487  0E63  1903               	btfsc	3,2
  3488  0E64  2E66               	goto	u1821
  3489  0E65  2E67               	goto	u1820
  3490  0E66                     u1821:	
  3491  0E66  2E77               	goto	l1950
  3492  0E67                     u1820:	
  3493  0E67                     l1942:	
  3494  0E67  0A53               	incf	___fldiv@aexp,w
  3495  0E68  1D03               	btfss	3,2
  3496  0E69  2E6B               	goto	u1831
  3497  0E6A  2E6C               	goto	u1830
  3498  0E6B                     u1831:	
  3499  0E6B  2E74               	goto	l1946
  3500  0E6C                     u1830:	
  3501  0E6C                     l1944:	
  3502  0E6C  3000               	movlw	0
  3503  0E6D  00BD               	movwf	___fldiv@a+3
  3504  0E6E  3000               	movlw	0
  3505  0E6F  00BC               	movwf	___fldiv@a+2
  3506  0E70  3000               	movlw	0
  3507  0E71  00BB               	movwf	___fldiv@a+1
  3508  0E72  3000               	movlw	0
  3509  0E73  00BA               	movwf	___fldiv@a
  3510  0E74                     l1946:	
  3511  0E74  17BC               	bsf	___fldiv@a+2,7
  3512  0E75                     l1948:	
  3513  0E75  01BD               	clrf	___fldiv@a+3
  3514  0E76  2E7F               	goto	l639
  3515  0E77                     l1950:	
  3516  0E77  3000               	movlw	0
  3517  0E78  00BD               	movwf	___fldiv@a+3
  3518  0E79  3000               	movlw	0
  3519  0E7A  00BC               	movwf	___fldiv@a+2
  3520  0E7B  3000               	movlw	0
  3521  0E7C  00BB               	movwf	___fldiv@a+1
  3522  0E7D  3000               	movlw	0
  3523  0E7E  00BA               	movwf	___fldiv@a
  3524  0E7F                     l639:	
  3525  0E7F  083D               	movf	___fldiv@a+3,w
  3526  0E80  043C               	iorwf	___fldiv@a+2,w
  3527  0E81  043B               	iorwf	___fldiv@a+1,w
  3528  0E82  043A               	iorwf	___fldiv@a,w
  3529  0E83  1D03               	skipz
  3530  0E84  2E86               	goto	u1841
  3531  0E85  2E87               	goto	u1840
  3532  0E86                     u1841:	
  3533  0E86  2EA0               	goto	l1960
  3534  0E87                     u1840:	
  3535  0E87                     l1952:	
  3536  0E87  3000               	movlw	0
  3537  0E88  00C1               	movwf	___fldiv@b+3
  3538  0E89  3000               	movlw	0
  3539  0E8A  00C0               	movwf	___fldiv@b+2
  3540  0E8B  3000               	movlw	0
  3541  0E8C  00BF               	movwf	___fldiv@b+1
  3542  0E8D  3000               	movlw	0
  3543  0E8E  00BE               	movwf	___fldiv@b
  3544  0E8F  3080               	movlw	128
  3545  0E90  04C0               	iorwf	___fldiv@b+2,f
  3546  0E91  307F               	movlw	127
  3547  0E92  04C1               	iorwf	___fldiv@b+3,f
  3548  0E93                     l1954:	
  3549  0E93  084B               	movf	___fldiv@sign,w
  3550  0E94  00C2               	movwf	??___fldiv
  3551  0E95  0842               	movf	??___fldiv,w
  3552  0E96  04C1               	iorwf	___fldiv@b+3,f
  3553  0E97                     l1956:	
  3554  0E97  0841               	movf	___fldiv@b+3,w
  3555  0E98  00BD               	movwf	?___fldiv+3
  3556  0E99  0840               	movf	___fldiv@b+2,w
  3557  0E9A  00BC               	movwf	?___fldiv+2
  3558  0E9B  083F               	movf	___fldiv@b+1,w
  3559  0E9C  00BB               	movwf	?___fldiv+1
  3560  0E9D  083E               	movf	___fldiv@b,w
  3561  0E9E  00BA               	movwf	?___fldiv
  3562  0E9F  2FFF               	goto	l641
  3563  0EA0                     l1960:	
  3564  0EA0  0852               	movf	___fldiv@bexp,w
  3565  0EA1  1D03               	btfss	3,2
  3566  0EA2  2EA4               	goto	u1851
  3567  0EA3  2EA5               	goto	u1850
  3568  0EA4                     u1851:	
  3569  0EA4  2EAE               	goto	l1966
  3570  0EA5                     u1850:	
  3571  0EA5                     l1962:	
  3572  0EA5  3000               	movlw	0
  3573  0EA6  00BD               	movwf	?___fldiv+3
  3574  0EA7  3000               	movlw	0
  3575  0EA8  00BC               	movwf	?___fldiv+2
  3576  0EA9  3000               	movlw	0
  3577  0EAA  00BB               	movwf	?___fldiv+1
  3578  0EAB  3000               	movlw	0
  3579  0EAC  00BA               	movwf	?___fldiv
  3580  0EAD  2FFF               	goto	l641
  3581  0EAE                     l1966:	
  3582  0EAE  0852               	movf	___fldiv@bexp,w
  3583  0EAF  00C2               	movwf	??___fldiv
  3584  0EB0  01C3               	clrf	??___fldiv+1
  3585  0EB1  0843               	movf	??___fldiv+1,w
  3586  0EB2  00C5               	movwf	??___fldiv+3
  3587  0EB3  0853               	movf	___fldiv@aexp,w
  3588  0EB4  0242               	subwf	??___fldiv,w
  3589  0EB5  00C4               	movwf	??___fldiv+2
  3590  0EB6  1C03               	skipc
  3591  0EB7  03C5               	decf	??___fldiv+3,f
  3592  0EB8  0844               	movf	??___fldiv+2,w
  3593  0EB9  3E7F               	addlw	127
  3594  0EBA  00CC               	movwf	___fldiv@new_exp
  3595  0EBB  0845               	movf	??___fldiv+3,w
  3596  0EBC  1803               	skipnc
  3597  0EBD  3E01               	addlw	1
  3598  0EBE  3E00               	addlw	0
  3599  0EBF  00CD               	movwf	___fldiv@new_exp+1
  3600  0EC0                     l1968:	
  3601  0EC0  0841               	movf	___fldiv@b+3,w
  3602  0EC1  00CA               	movwf	___fldiv@rem+3
  3603  0EC2  0840               	movf	___fldiv@b+2,w
  3604  0EC3  00C9               	movwf	___fldiv@rem+2
  3605  0EC4  083F               	movf	___fldiv@b+1,w
  3606  0EC5  00C8               	movwf	___fldiv@rem+1
  3607  0EC6  083E               	movf	___fldiv@b,w
  3608  0EC7  00C7               	movwf	___fldiv@rem
  3609  0EC8                     l1970:	
  3610  0EC8  3000               	movlw	0
  3611  0EC9  00C1               	movwf	___fldiv@b+3
  3612  0ECA  3000               	movlw	0
  3613  0ECB  00C0               	movwf	___fldiv@b+2
  3614  0ECC  3000               	movlw	0
  3615  0ECD  00BF               	movwf	___fldiv@b+1
  3616  0ECE  3000               	movlw	0
  3617  0ECF  00BE               	movwf	___fldiv@b
  3618  0ED0                     l1972:	
  3619  0ED0  3000               	movlw	0
  3620  0ED1  00D1               	movwf	___fldiv@grs+3
  3621  0ED2  3000               	movlw	0
  3622  0ED3  00D0               	movwf	___fldiv@grs+2
  3623  0ED4  3000               	movlw	0
  3624  0ED5  00CF               	movwf	___fldiv@grs+1
  3625  0ED6  3000               	movlw	0
  3626  0ED7  00CE               	movwf	___fldiv@grs
  3627  0ED8                     l1974:	
  3628  0ED8  01D3               	clrf	___fldiv@aexp
  3629  0ED9  2F24               	goto	l1994
  3630  0EDA                     l1976:	
  3631  0EDA  0853               	movf	___fldiv@aexp,w
  3632  0EDB  1903               	btfsc	3,2
  3633  0EDC  2EDE               	goto	u1861
  3634  0EDD  2EDF               	goto	u1860
  3635  0EDE                     u1861:	
  3636  0EDE  2EFF               	goto	l1986
  3637  0EDF                     u1860:	
  3638  0EDF                     l1978:	
  3639  0EDF  3001               	movlw	1
  3640  0EE0  00C2               	movwf	??___fldiv
  3641  0EE1                     u1875:	
  3642  0EE1  1003               	clrc
  3643  0EE2  0DC7               	rlf	___fldiv@rem,f
  3644  0EE3  0DC8               	rlf	___fldiv@rem+1,f
  3645  0EE4  0DC9               	rlf	___fldiv@rem+2,f
  3646  0EE5  0DCA               	rlf	___fldiv@rem+3,f
  3647  0EE6  0BC2               	decfsz	??___fldiv,f
  3648  0EE7  2EE1               	goto	u1875
  3649  0EE8  3001               	movlw	1
  3650  0EE9  00C2               	movwf	??___fldiv
  3651  0EEA                     u1885:	
  3652  0EEA  1003               	clrc
  3653  0EEB  0DBE               	rlf	___fldiv@b,f
  3654  0EEC  0DBF               	rlf	___fldiv@b+1,f
  3655  0EED  0DC0               	rlf	___fldiv@b+2,f
  3656  0EEE  0DC1               	rlf	___fldiv@b+3,f
  3657  0EEF  0BC2               	decfsz	??___fldiv,f
  3658  0EF0  2EEA               	goto	u1885
  3659  0EF1                     l1980:	
  3660  0EF1  1FD1               	btfss	___fldiv@grs+3,7
  3661  0EF2  2EF4               	goto	u1891
  3662  0EF3  2EF5               	goto	u1890
  3663  0EF4                     u1891:	
  3664  0EF4  2EF6               	goto	l1984
  3665  0EF5                     u1890:	
  3666  0EF5                     l1982:	
  3667  0EF5  143E               	bsf	___fldiv@b,0
  3668  0EF6                     l1984:	
  3669  0EF6  3001               	movlw	1
  3670  0EF7  00C2               	movwf	??___fldiv
  3671  0EF8                     u1905:	
  3672  0EF8  1003               	clrc
  3673  0EF9  0DCE               	rlf	___fldiv@grs,f
  3674  0EFA  0DCF               	rlf	___fldiv@grs+1,f
  3675  0EFB  0DD0               	rlf	___fldiv@grs+2,f
  3676  0EFC  0DD1               	rlf	___fldiv@grs+3,f
  3677  0EFD  0BC2               	decfsz	??___fldiv,f
  3678  0EFE  2EF8               	goto	u1905
  3679  0EFF                     l1986:	
  3680  0EFF  083D               	movf	___fldiv@a+3,w
  3681  0F00  024A               	subwf	___fldiv@rem+3,w
  3682  0F01  1D03               	skipz
  3683  0F02  2F0D               	goto	u1915
  3684  0F03  083C               	movf	___fldiv@a+2,w
  3685  0F04  0249               	subwf	___fldiv@rem+2,w
  3686  0F05  1D03               	skipz
  3687  0F06  2F0D               	goto	u1915
  3688  0F07  083B               	movf	___fldiv@a+1,w
  3689  0F08  0248               	subwf	___fldiv@rem+1,w
  3690  0F09  1D03               	skipz
  3691  0F0A  2F0D               	goto	u1915
  3692  0F0B  083A               	movf	___fldiv@a,w
  3693  0F0C  0247               	subwf	___fldiv@rem,w
  3694  0F0D                     u1915:	
  3695  0F0D  1C03               	skipc
  3696  0F0E  2F10               	goto	u1911
  3697  0F0F  2F11               	goto	u1910
  3698  0F10                     u1911:	
  3699  0F10  2F20               	goto	l1992
  3700  0F11                     u1910:	
  3701  0F11                     l1988:	
  3702  0F11  1751               	bsf	___fldiv@grs+3,6
  3703  0F12                     l1990:	
  3704  0F12  083A               	movf	___fldiv@a,w
  3705  0F13  02C7               	subwf	___fldiv@rem,f
  3706  0F14  083B               	movf	___fldiv@a+1,w
  3707  0F15  1C03               	skipc
  3708  0F16  0F3B               	incfsz	___fldiv@a+1,w
  3709  0F17  02C8               	subwf	___fldiv@rem+1,f
  3710  0F18  083C               	movf	___fldiv@a+2,w
  3711  0F19  1C03               	skipc
  3712  0F1A  0F3C               	incfsz	___fldiv@a+2,w
  3713  0F1B  02C9               	subwf	___fldiv@rem+2,f
  3714  0F1C  083D               	movf	___fldiv@a+3,w
  3715  0F1D  1C03               	skipc
  3716  0F1E  0F3D               	incfsz	___fldiv@a+3,w
  3717  0F1F  02CA               	subwf	___fldiv@rem+3,f
  3718  0F20                     l1992:	
  3719  0F20  3001               	movlw	1
  3720  0F21  00C2               	movwf	??___fldiv
  3721  0F22  0842               	movf	??___fldiv,w
  3722  0F23  07D3               	addwf	___fldiv@aexp,f
  3723  0F24                     l1994:	
  3724  0F24  301A               	movlw	26
  3725  0F25  0253               	subwf	___fldiv@aexp,w
  3726  0F26  1C03               	skipc
  3727  0F27  2F29               	goto	u1921
  3728  0F28  2F2A               	goto	u1920
  3729  0F29                     u1921:	
  3730  0F29  2EDA               	goto	l1976
  3731  0F2A                     u1920:	
  3732  0F2A                     l1996:	
  3733  0F2A  084A               	movf	___fldiv@rem+3,w
  3734  0F2B  0449               	iorwf	___fldiv@rem+2,w
  3735  0F2C  0448               	iorwf	___fldiv@rem+1,w
  3736  0F2D  0447               	iorwf	___fldiv@rem,w
  3737  0F2E  1903               	skipnz
  3738  0F2F  2F31               	goto	u1931
  3739  0F30  2F32               	goto	u1930
  3740  0F31                     u1931:	
  3741  0F31  2F51               	goto	l2010
  3742  0F32                     u1930:	
  3743  0F32                     l1998:	
  3744  0F32  144E               	bsf	___fldiv@grs,0
  3745  0F33  2F51               	goto	l2010
  3746  0F34                     l2000:	
  3747  0F34  3001               	movlw	1
  3748  0F35  00C2               	movwf	??___fldiv
  3749  0F36                     u1945:	
  3750  0F36  1003               	clrc
  3751  0F37  0DBE               	rlf	___fldiv@b,f
  3752  0F38  0DBF               	rlf	___fldiv@b+1,f
  3753  0F39  0DC0               	rlf	___fldiv@b+2,f
  3754  0F3A  0DC1               	rlf	___fldiv@b+3,f
  3755  0F3B  0BC2               	decfsz	??___fldiv,f
  3756  0F3C  2F36               	goto	u1945
  3757  0F3D                     l2002:	
  3758  0F3D  1FD1               	btfss	___fldiv@grs+3,7
  3759  0F3E  2F40               	goto	u1951
  3760  0F3F  2F41               	goto	u1950
  3761  0F40                     u1951:	
  3762  0F40  2F42               	goto	l2006
  3763  0F41                     u1950:	
  3764  0F41                     l2004:	
  3765  0F41  143E               	bsf	___fldiv@b,0
  3766  0F42                     l2006:	
  3767  0F42  3001               	movlw	1
  3768  0F43  00C2               	movwf	??___fldiv
  3769  0F44                     u1965:	
  3770  0F44  1003               	clrc
  3771  0F45  0DCE               	rlf	___fldiv@grs,f
  3772  0F46  0DCF               	rlf	___fldiv@grs+1,f
  3773  0F47  0DD0               	rlf	___fldiv@grs+2,f
  3774  0F48  0DD1               	rlf	___fldiv@grs+3,f
  3775  0F49  0BC2               	decfsz	??___fldiv,f
  3776  0F4A  2F44               	goto	u1965
  3777  0F4B                     l2008:	
  3778  0F4B  30FF               	movlw	255
  3779  0F4C  07CC               	addwf	___fldiv@new_exp,f
  3780  0F4D  1803               	skipnc
  3781  0F4E  0ACD               	incf	___fldiv@new_exp+1,f
  3782  0F4F  30FF               	movlw	255
  3783  0F50  07CD               	addwf	___fldiv@new_exp+1,f
  3784  0F51                     l2010:	
  3785  0F51  1FC0               	btfss	___fldiv@b+2,7
  3786  0F52  2F54               	goto	u1971
  3787  0F53  2F55               	goto	u1970
  3788  0F54                     u1971:	
  3789  0F54  2F34               	goto	l2000
  3790  0F55                     u1970:	
  3791  0F55                     l2012:	
  3792  0F55  01D3               	clrf	___fldiv@aexp
  3793  0F56                     l2014:	
  3794  0F56  1FD1               	btfss	___fldiv@grs+3,7
  3795  0F57  2F59               	goto	u1981
  3796  0F58  2F5A               	goto	u1980
  3797  0F59                     u1981:	
  3798  0F59  2F76               	goto	l2022
  3799  0F5A                     u1980:	
  3800  0F5A                     l2016:	
  3801  0F5A  30FF               	movlw	255
  3802  0F5B  054E               	andwf	___fldiv@grs,w
  3803  0F5C  00C2               	movwf	??___fldiv
  3804  0F5D  30FF               	movlw	255
  3805  0F5E  054F               	andwf	___fldiv@grs+1,w
  3806  0F5F  00C3               	movwf	??___fldiv+1
  3807  0F60  30FF               	movlw	255
  3808  0F61  0550               	andwf	___fldiv@grs+2,w
  3809  0F62  00C4               	movwf	??___fldiv+2
  3810  0F63  307F               	movlw	127
  3811  0F64  0551               	andwf	___fldiv@grs+3,w
  3812  0F65  00C5               	movwf	??___fldiv+3
  3813  0F66  0845               	movf	??___fldiv+3,w
  3814  0F67  0444               	iorwf	??___fldiv+2,w
  3815  0F68  0443               	iorwf	??___fldiv+1,w
  3816  0F69  0442               	iorwf	??___fldiv,w
  3817  0F6A  1903               	skipnz
  3818  0F6B  2F6D               	goto	u1991
  3819  0F6C  2F6E               	goto	u1990
  3820  0F6D                     u1991:	
  3821  0F6D  2F71               	goto	l655
  3822  0F6E                     u1990:	
  3823  0F6E                     l2018:	
  3824  0F6E  01D3               	clrf	___fldiv@aexp
  3825  0F6F  0AD3               	incf	___fldiv@aexp,f
  3826  0F70  2F76               	goto	l2022
  3827  0F71                     l655:	
  3828  0F71  1C3E               	btfss	___fldiv@b,0
  3829  0F72  2F74               	goto	u2001
  3830  0F73  2F75               	goto	u2000
  3831  0F74                     u2001:	
  3832  0F74  2F76               	goto	l2022
  3833  0F75                     u2000:	
  3834  0F75  2F6E               	goto	l2018
  3835  0F76                     l2022:	
  3836  0F76  0853               	movf	___fldiv@aexp,w
  3837  0F77  1903               	btfsc	3,2
  3838  0F78  2F7A               	goto	u2011
  3839  0F79  2F7B               	goto	u2010
  3840  0F7A                     u2011:	
  3841  0F7A  2FAC               	goto	l2032
  3842  0F7B                     u2010:	
  3843  0F7B                     l2024:	
  3844  0F7B  3001               	movlw	1
  3845  0F7C  07BE               	addwf	___fldiv@b,f
  3846  0F7D  3000               	movlw	0
  3847  0F7E  1803               	skipnc
  3848  0F7F  3001               	movlw	1
  3849  0F80  07BF               	addwf	___fldiv@b+1,f
  3850  0F81  3000               	movlw	0
  3851  0F82  1803               	skipnc
  3852  0F83  3001               	movlw	1
  3853  0F84  07C0               	addwf	___fldiv@b+2,f
  3854  0F85  3000               	movlw	0
  3855  0F86  1803               	skipnc
  3856  0F87  3001               	movlw	1
  3857  0F88  07C1               	addwf	___fldiv@b+3,f
  3858  0F89                     l2026:	
  3859  0F89  1C41               	btfss	___fldiv@b+3,0
  3860  0F8A  2F8C               	goto	u2021
  3861  0F8B  2F8D               	goto	u2020
  3862  0F8C                     u2021:	
  3863  0F8C  2FAC               	goto	l2032
  3864  0F8D                     u2020:	
  3865  0F8D                     l2028:	
  3866  0F8D  083E               	movf	___fldiv@b,w
  3867  0F8E  00C2               	movwf	??___fldiv
  3868  0F8F  083F               	movf	___fldiv@b+1,w
  3869  0F90  00C3               	movwf	??___fldiv+1
  3870  0F91  0840               	movf	___fldiv@b+2,w
  3871  0F92  00C4               	movwf	??___fldiv+2
  3872  0F93  0841               	movf	___fldiv@b+3,w
  3873  0F94  00C5               	movwf	??___fldiv+3
  3874  0F95  3001               	movlw	1
  3875  0F96  00C6               	movwf	??___fldiv+4
  3876  0F97                     u2035:	
  3877  0F97  0D45               	rlf	??___fldiv+3,w
  3878  0F98  0CC5               	rrf	??___fldiv+3,f
  3879  0F99  0CC4               	rrf	??___fldiv+2,f
  3880  0F9A  0CC3               	rrf	??___fldiv+1,f
  3881  0F9B  0CC2               	rrf	??___fldiv,f
  3882  0F9C                     u2030:	
  3883  0F9C  0BC6               	decfsz	??___fldiv+4,f
  3884  0F9D  2F97               	goto	u2035
  3885  0F9E  0845               	movf	??___fldiv+3,w
  3886  0F9F  00C1               	movwf	___fldiv@b+3
  3887  0FA0  0844               	movf	??___fldiv+2,w
  3888  0FA1  00C0               	movwf	___fldiv@b+2
  3889  0FA2  0843               	movf	??___fldiv+1,w
  3890  0FA3  00BF               	movwf	___fldiv@b+1
  3891  0FA4  0842               	movf	??___fldiv,w
  3892  0FA5  00BE               	movwf	___fldiv@b
  3893  0FA6                     l2030:	
  3894  0FA6  3001               	movlw	1
  3895  0FA7  07CC               	addwf	___fldiv@new_exp,f
  3896  0FA8  1803               	skipnc
  3897  0FA9  0ACD               	incf	___fldiv@new_exp+1,f
  3898  0FAA  3000               	movlw	0
  3899  0FAB  07CD               	addwf	___fldiv@new_exp+1,f
  3900  0FAC                     l2032:	
  3901  0FAC  084D               	movf	___fldiv@new_exp+1,w
  3902  0FAD  3A80               	xorlw	128
  3903  0FAE  00FF               	movwf	btemp+1
  3904  0FAF  3080               	movlw	128
  3905  0FB0  027F               	subwf	btemp+1,w
  3906  0FB1  1D03               	skipz
  3907  0FB2  2FB5               	goto	u2045
  3908  0FB3  30FF               	movlw	255
  3909  0FB4  024C               	subwf	___fldiv@new_exp,w
  3910  0FB5                     u2045:	
  3911  0FB5  1C03               	skipc
  3912  0FB6  2FB8               	goto	u2041
  3913  0FB7  2FB9               	goto	u2040
  3914  0FB8                     u2041:	
  3915  0FB8  2FC7               	goto	l2036
  3916  0FB9                     u2040:	
  3917  0FB9                     l2034:	
  3918  0FB9  30FF               	movlw	255
  3919  0FBA  1283               	bcf	3,5	;RP0=0, select bank0
  3920  0FBB  1303               	bcf	3,6	;RP1=0, select bank0
  3921  0FBC  00CC               	movwf	___fldiv@new_exp
  3922  0FBD  3000               	movlw	0
  3923  0FBE  00CD               	movwf	___fldiv@new_exp+1
  3924  0FBF  3000               	movlw	0
  3925  0FC0  00C1               	movwf	___fldiv@b+3
  3926  0FC1  3000               	movlw	0
  3927  0FC2  00C0               	movwf	___fldiv@b+2
  3928  0FC3  3000               	movlw	0
  3929  0FC4  00BF               	movwf	___fldiv@b+1
  3930  0FC5  3000               	movlw	0
  3931  0FC6  00BE               	movwf	___fldiv@b
  3932  0FC7                     l2036:	
  3933  0FC7  1283               	bcf	3,5	;RP0=0, select bank0
  3934  0FC8  1303               	bcf	3,6	;RP1=0, select bank0
  3935  0FC9  084D               	movf	___fldiv@new_exp+1,w
  3936  0FCA  3A80               	xorlw	128
  3937  0FCB  00FF               	movwf	btemp+1
  3938  0FCC  3080               	movlw	128
  3939  0FCD  027F               	subwf	btemp+1,w
  3940  0FCE  1D03               	skipz
  3941  0FCF  2FD2               	goto	u2055
  3942  0FD0  3001               	movlw	1
  3943  0FD1  024C               	subwf	___fldiv@new_exp,w
  3944  0FD2                     u2055:	
  3945  0FD2  1803               	skipnc
  3946  0FD3  2FD5               	goto	u2051
  3947  0FD4  2FD6               	goto	u2050
  3948  0FD5                     u2051:	
  3949  0FD5  2FE3               	goto	l661
  3950  0FD6                     u2050:	
  3951  0FD6                     l2038:	
  3952  0FD6  1283               	bcf	3,5	;RP0=0, select bank0
  3953  0FD7  1303               	bcf	3,6	;RP1=0, select bank0
  3954  0FD8  01CC               	clrf	___fldiv@new_exp
  3955  0FD9  01CD               	clrf	___fldiv@new_exp+1
  3956  0FDA                     l2040:	
  3957  0FDA  3000               	movlw	0
  3958  0FDB  00C1               	movwf	___fldiv@b+3
  3959  0FDC  3000               	movlw	0
  3960  0FDD  00C0               	movwf	___fldiv@b+2
  3961  0FDE  3000               	movlw	0
  3962  0FDF  00BF               	movwf	___fldiv@b+1
  3963  0FE0  3000               	movlw	0
  3964  0FE1  00BE               	movwf	___fldiv@b
  3965  0FE2                     l2042:	
  3966  0FE2  01CB               	clrf	___fldiv@sign
  3967  0FE3                     l661:	
  3968  0FE3  1283               	bcf	3,5	;RP0=0, select bank0
  3969  0FE4  1303               	bcf	3,6	;RP1=0, select bank0
  3970  0FE5  084C               	movf	___fldiv@new_exp,w
  3971  0FE6  00C2               	movwf	??___fldiv
  3972  0FE7  0842               	movf	??___fldiv,w
  3973  0FE8  00D2               	movwf	___fldiv@bexp
  3974  0FE9                     l2044:	
  3975  0FE9  1C52               	btfss	___fldiv@bexp,0
  3976  0FEA  2FEC               	goto	u2061
  3977  0FEB  2FED               	goto	u2060
  3978  0FEC                     u2061:	
  3979  0FEC  2FEF               	goto	l2048
  3980  0FED                     u2060:	
  3981  0FED                     l2046:	
  3982  0FED  17C0               	bsf	___fldiv@b+2,7
  3983  0FEE  2FF3               	goto	l663
  3984  0FEF                     l2048:	
  3985  0FEF  307F               	movlw	127
  3986  0FF0  00C2               	movwf	??___fldiv
  3987  0FF1  0842               	movf	??___fldiv,w
  3988  0FF2  05C0               	andwf	___fldiv@b+2,f
  3989  0FF3                     l663:	
  3990  0FF3  0852               	movf	___fldiv@bexp,w
  3991  0FF4  00C2               	movwf	??___fldiv
  3992  0FF5  1003               	clrc
  3993  0FF6  0C42               	rrf	??___fldiv,w
  3994  0FF7  00C3               	movwf	??___fldiv+1
  3995  0FF8  0843               	movf	??___fldiv+1,w
  3996  0FF9  00C1               	movwf	___fldiv@b+3
  3997  0FFA  084B               	movf	___fldiv@sign,w
  3998  0FFB  00C2               	movwf	??___fldiv
  3999  0FFC  0842               	movf	??___fldiv,w
  4000  0FFD  04C1               	iorwf	___fldiv@b+3,f
  4001  0FFE  2E97               	goto	l1956
  4002  0FFF                     l641:	
  4003  0FFF  0008               	return
  4004  1000                     __end_of___fldiv:	
  4005                           
  4006                           	psect	text7
  4007  17B6                     __ptext7:	
  4008 ;; *************** function _shift *****************
  4009 ;; Defined at:
  4010 ;;		line 99 in file "./LCD.h"
  4011 ;; Parameters:    Size  Location     Type
  4012 ;;		None
  4013 ;; Auto vars:     Size  Location     Type
  4014 ;;		None
  4015 ;; Return value:  Size  Location     Type
  4016 ;;                  1    wreg      void 
  4017 ;; Registers used:
  4018 ;;		wreg
  4019 ;; Tracked objects:
  4020 ;;		On entry : 0/0
  4021 ;;		On exit  : 0/0
  4022 ;;		Unchanged: 0/0
  4023 ;; Data sizes:     COMMON   BANK0   BANK1   BANK3   BANK2
  4024 ;;      Params:         0       0       0       0       0
  4025 ;;      Locals:         0       0       0       0       0
  4026 ;;      Temps:          1       0       0       0       0
  4027 ;;      Totals:         1       0       0       0       0
  4028 ;;Total ram usage:        1 bytes
  4029 ;; Hardware stack levels used:    1
  4030 ;; This function calls:
  4031 ;;		Nothing
  4032 ;; This function is called by:
  4033 ;;		_main
  4034 ;; This function uses a non-reentrant model
  4035 ;;
  4036                           
  4037                           
  4038                           ;psect for function _shift
  4039  17B6                     _shift:	
  4040  17B6                     l2304:	
  4041                           ;incstack = 0
  4042                           ; Regs used in _shift: [wreg]
  4043                           
  4044                           
  4045                           ;./LCD.h: 104:     PORTDbits.RD6 = 0;
  4046  17B6  1283               	bcf	3,5	;RP0=0, select bank0
  4047  17B7  1303               	bcf	3,6	;RP1=0, select bank0
  4048  17B8  1308               	bcf	8,6	;volatile
  4049  17B9                     l2306:	
  4050                           
  4051                           ;./LCD.h: 105:     PORTB = 0b00011000;
  4052  17B9  3018               	movlw	24
  4053  17BA  0086               	movwf	6	;volatile
  4054  17BB                     l2308:	
  4055                           
  4056                           ;./LCD.h: 106:     PORTDbits.RD7 = 1;
  4057  17BB  1788               	bsf	8,7	;volatile
  4058                           
  4059                           ;./LCD.h: 107:     _delay((unsigned long)((1)*(4000000/4000.0)));
  4060  17BC  30C7               	movlw	199
  4061  17BD  00F0               	movwf	??_shift
  4062  17BE                     u2777:	
  4063  17BE  2FBF               	nop2
  4064  17BF  0BF0               	decfsz	??_shift,f
  4065  17C0  2FBE               	goto	u2777
  4066  17C1  2FC2               	nop2
  4067  17C2  2FC3               	nop2
  4068  17C3                     l2310:	
  4069                           
  4070                           ;./LCD.h: 108:     PORTDbits.RD7 = 0;
  4071  17C3  1283               	bcf	3,5	;RP0=0, select bank0
  4072  17C4  1303               	bcf	3,6	;RP1=0, select bank0
  4073  17C5  1388               	bcf	8,7	;volatile
  4074  17C6                     l104:	
  4075  17C6  0008               	return
  4076  17C7                     __end_of_shift:	
  4077                           
  4078                           	psect	text8
  4079  17C7                     __ptext8:	
  4080 ;; *************** function _setup *****************
  4081 ;; Defined at:
  4082 ;;		line 202 in file "Carcelero.c"
  4083 ;; Parameters:    Size  Location     Type
  4084 ;;		None
  4085 ;; Auto vars:     Size  Location     Type
  4086 ;;		None
  4087 ;; Return value:  Size  Location     Type
  4088 ;;                  1    wreg      void 
  4089 ;; Registers used:
  4090 ;;		status,2
  4091 ;; Tracked objects:
  4092 ;;		On entry : 0/0
  4093 ;;		On exit  : 0/0
  4094 ;;		Unchanged: 0/0
  4095 ;; Data sizes:     COMMON   BANK0   BANK1   BANK3   BANK2
  4096 ;;      Params:         0       0       0       0       0
  4097 ;;      Locals:         0       0       0       0       0
  4098 ;;      Temps:          0       0       0       0       0
  4099 ;;      Totals:         0       0       0       0       0
  4100 ;;Total ram usage:        0 bytes
  4101 ;; Hardware stack levels used:    1
  4102 ;; This function calls:
  4103 ;;		Nothing
  4104 ;; This function is called by:
  4105 ;;		_main
  4106 ;; This function uses a non-reentrant model
  4107 ;;
  4108                           
  4109                           
  4110                           ;psect for function _setup
  4111  17C7                     _setup:	
  4112  17C7                     l2464:	
  4113                           ;incstack = 0
  4114                           ; Regs used in _setup: [status,2]
  4115                           
  4116                           
  4117                           ;Carcelero.c: 204:     ANSEL = 0;
  4118  17C7  1683               	bsf	3,5	;RP0=1, select bank3
  4119  17C8  1703               	bsf	3,6	;RP1=1, select bank3
  4120  17C9  0188               	clrf	8	;volatile
  4121                           
  4122                           ;Carcelero.c: 205:     ANSELH = 0;
  4123  17CA  0189               	clrf	9	;volatile
  4124                           
  4125                           ;Carcelero.c: 207:     TRISA = 0;
  4126  17CB  1683               	bsf	3,5	;RP0=1, select bank1
  4127  17CC  1303               	bcf	3,6	;RP1=0, select bank1
  4128  17CD  0185               	clrf	5	;volatile
  4129                           
  4130                           ;Carcelero.c: 208:     TRISB = 0;
  4131  17CE  0186               	clrf	6	;volatile
  4132                           
  4133                           ;Carcelero.c: 209:     TRISC = 0;
  4134  17CF  0187               	clrf	7	;volatile
  4135  17D0                     l2466:	
  4136                           
  4137                           ;Carcelero.c: 211:     TRISDbits.TRISD6 = 0;
  4138  17D0  1308               	bcf	8,6	;volatile
  4139  17D1                     l2468:	
  4140                           
  4141                           ;Carcelero.c: 212:     TRISDbits.TRISD7 = 0;
  4142  17D1  1388               	bcf	8,7	;volatile
  4143                           
  4144                           ;Carcelero.c: 214:     PORTA = 0;
  4145  17D2  1283               	bcf	3,5	;RP0=0, select bank0
  4146  17D3  1303               	bcf	3,6	;RP1=0, select bank0
  4147  17D4  0185               	clrf	5	;volatile
  4148                           
  4149                           ;Carcelero.c: 215:     PORTB = 0;
  4150  17D5  0186               	clrf	6	;volatile
  4151                           
  4152                           ;Carcelero.c: 216:     PORTC = 0;
  4153  17D6  0187               	clrf	7	;volatile
  4154                           
  4155                           ;Carcelero.c: 217:     PORTD = 0;
  4156  17D7  0188               	clrf	8	;volatile
  4157  17D8                     l196:	
  4158  17D8  0008               	return
  4159  17D9                     __end_of_setup:	
  4160                           
  4161                           	psect	text9
  4162  00ED                     __ptext9:	
  4163 ;; *************** function _luces *****************
  4164 ;; Defined at:
  4165 ;;		line 144 in file "Carcelero.c"
  4166 ;; Parameters:    Size  Location     Type
  4167 ;;		None
  4168 ;; Auto vars:     Size  Location     Type
  4169 ;;		None
  4170 ;; Return value:  Size  Location     Type
  4171 ;;                  1    wreg      void 
  4172 ;; Registers used:
  4173 ;;		wreg, fsr0l, fsr0h, status,2, status,0, pclath, cstack
  4174 ;; Tracked objects:
  4175 ;;		On entry : 0/0
  4176 ;;		On exit  : 0/0
  4177 ;;		Unchanged: 0/0
  4178 ;; Data sizes:     COMMON   BANK0   BANK1   BANK3   BANK2
  4179 ;;      Params:         0       0       0       0       0
  4180 ;;      Locals:         0       0       0       0       0
  4181 ;;      Temps:          2       0       0       0       0
  4182 ;;      Totals:         2       0       0       0       0
  4183 ;;Total ram usage:        2 bytes
  4184 ;; Hardware stack levels used:    1
  4185 ;; Hardware stack levels required when called:    2
  4186 ;; This function calls:
  4187 ;;		___awdiv
  4188 ;;		___awmod
  4189 ;;		_colocar
  4190 ;;		_imprimir
  4191 ;;		_mostrar
  4192 ;; This function is called by:
  4193 ;;		_main
  4194 ;; This function uses a non-reentrant model
  4195 ;;
  4196                           
  4197                           
  4198                           ;psect for function _luces
  4199  00ED                     _luces:	
  4200  00ED                     l2416:	
  4201                           ;incstack = 0
  4202                           ; Regs used in _luces: [wreg-fsr0h+status,2+status,0+pclath+cstack]
  4203                           
  4204                           
  4205                           ;Carcelero.c: 146:     y = Luz/100;
  4206  00ED  3064               	movlw	100
  4207  00EE  00F0               	movwf	___awdiv@divisor
  4208  00EF  3000               	movlw	0
  4209  00F0  00F1               	movwf	___awdiv@divisor+1
  4210  00F1  1283               	bcf	3,5	;RP0=0, select bank0
  4211  00F2  1303               	bcf	3,6	;RP1=0, select bank0
  4212  00F3  086E               	movf	_Luz,w
  4213  00F4  00F9               	movwf	??_luces
  4214  00F5  01FA               	clrf	??_luces+1
  4215  00F6  0879               	movf	??_luces,w
  4216  00F7  00F2               	movwf	___awdiv@dividend
  4217  00F8  087A               	movf	??_luces+1,w
  4218  00F9  00F3               	movwf	___awdiv@dividend+1
  4219  00FA  120A  158A  2330  120A  118A  	fcall	___awdiv
  4220  00FF  0871               	movf	?___awdiv+1,w
  4221  0100  1683               	bsf	3,5	;RP0=1, select bank1
  4222  0101  1303               	bcf	3,6	;RP1=0, select bank1
  4223  0102  00B7               	movwf	(_y+1)^(0+128)
  4224  0103  0870               	movf	?___awdiv,w
  4225  0104  00B6               	movwf	_y^(0+128)
  4226                           
  4227                           ;Carcelero.c: 147:     y1 = Luz%100;
  4228  0105  3064               	movlw	100
  4229  0106  00F0               	movwf	___awmod@divisor
  4230  0107  3000               	movlw	0
  4231  0108  00F1               	movwf	___awmod@divisor+1
  4232  0109  1283               	bcf	3,5	;RP0=0, select bank0
  4233  010A  1303               	bcf	3,6	;RP1=0, select bank0
  4234  010B  086E               	movf	_Luz,w
  4235  010C  00F9               	movwf	??_luces
  4236  010D  01FA               	clrf	??_luces+1
  4237  010E  0879               	movf	??_luces,w
  4238  010F  00F2               	movwf	___awmod@dividend
  4239  0110  087A               	movf	??_luces+1,w
  4240  0111  00F3               	movwf	___awmod@dividend+1
  4241  0112  120A  158A  2210  120A  118A  	fcall	___awmod
  4242  0117  0871               	movf	?___awmod+1,w
  4243  0118  1283               	bcf	3,5	;RP0=0, select bank0
  4244  0119  1303               	bcf	3,6	;RP1=0, select bank0
  4245  011A  00E9               	movwf	_y1+1
  4246  011B  0870               	movf	?___awmod,w
  4247  011C  00E8               	movwf	_y1
  4248                           
  4249                           ;Carcelero.c: 148:     y2 = y1/10;
  4250  011D  300A               	movlw	10
  4251  011E  00F0               	movwf	___awdiv@divisor
  4252  011F  3000               	movlw	0
  4253  0120  00F1               	movwf	___awdiv@divisor+1
  4254  0121  0869               	movf	_y1+1,w
  4255  0122  00F3               	movwf	___awdiv@dividend+1
  4256  0123  0868               	movf	_y1,w
  4257  0124  00F2               	movwf	___awdiv@dividend
  4258  0125  120A  158A  2330  120A  118A  	fcall	___awdiv
  4259  012A  0871               	movf	?___awdiv+1,w
  4260  012B  1683               	bsf	3,5	;RP0=1, select bank1
  4261  012C  1303               	bcf	3,6	;RP1=0, select bank1
  4262  012D  00B5               	movwf	(_y2+1)^(0+128)
  4263  012E  0870               	movf	?___awdiv,w
  4264  012F  00B4               	movwf	_y2^(0+128)
  4265                           
  4266                           ;Carcelero.c: 149:     y3 = y1%10;
  4267  0130  300A               	movlw	10
  4268  0131  00F0               	movwf	___awmod@divisor
  4269  0132  3000               	movlw	0
  4270  0133  00F1               	movwf	___awmod@divisor+1
  4271  0134  1283               	bcf	3,5	;RP0=0, select bank0
  4272  0135  1303               	bcf	3,6	;RP1=0, select bank0
  4273  0136  0869               	movf	_y1+1,w
  4274  0137  00F3               	movwf	___awmod@dividend+1
  4275  0138  0868               	movf	_y1,w
  4276  0139  00F2               	movwf	___awmod@dividend
  4277  013A  120A  158A  2210  120A  118A  	fcall	___awmod
  4278  013F  0871               	movf	?___awmod+1,w
  4279  0140  1683               	bsf	3,5	;RP0=1, select bank1
  4280  0141  1303               	bcf	3,6	;RP1=0, select bank1
  4281  0142  00B3               	movwf	(_y3+1)^(0+128)
  4282  0143  0870               	movf	?___awmod,w
  4283  0144  00B2               	movwf	_y3^(0+128)
  4284                           
  4285                           ;Carcelero.c: 151:     colocar(1,2);
  4286  0145  3002               	movlw	2
  4287  0146  00F9               	movwf	??_luces
  4288  0147  0879               	movf	??_luces,w
  4289  0148  00F3               	movwf	colocar@y
  4290  0149  3001               	movlw	1
  4291  014A  120A  158A  2085  120A  118A  	fcall	_colocar
  4292  014F                     l2418:	
  4293                           
  4294                           ;Carcelero.c: 152:     mostrar(a[y]);
  4295  014F  1683               	bsf	3,5	;RP0=1, select bank1
  4296  0150  1303               	bcf	3,6	;RP1=0, select bank1
  4297  0151  0836               	movf	_y^(0+128),w
  4298  0152  3E01               	addlw	low ((_a-__stringbase)| (0+32768))
  4299  0153  0084               	movwf	4
  4300  0154  120A  158A  2000  120A  118A  	fcall	stringdir
  4301  0159  120A  158A  2058  120A  118A  	fcall	_mostrar
  4302  015E                     l2420:	
  4303                           
  4304                           ;Carcelero.c: 153:     colocar(2,2);
  4305  015E  3002               	movlw	2
  4306  015F  00F9               	movwf	??_luces
  4307  0160  0879               	movf	??_luces,w
  4308  0161  00F3               	movwf	colocar@y
  4309  0162  3002               	movlw	2
  4310  0163  120A  158A  2085  120A  118A  	fcall	_colocar
  4311                           
  4312                           ;Carcelero.c: 154:     mostrar(a[y2]);
  4313  0168  1683               	bsf	3,5	;RP0=1, select bank1
  4314  0169  1303               	bcf	3,6	;RP1=0, select bank1
  4315  016A  0834               	movf	_y2^(0+128),w
  4316  016B  3E01               	addlw	low ((_a-__stringbase)| (0+32768))
  4317  016C  0084               	movwf	4
  4318  016D  120A  158A  2000  120A  118A  	fcall	stringdir
  4319  0172  120A  158A  2058  120A  118A  	fcall	_mostrar
  4320  0177                     l2422:	
  4321                           
  4322                           ;Carcelero.c: 155:     colocar(3,2);
  4323  0177  3002               	movlw	2
  4324  0178  00F9               	movwf	??_luces
  4325  0179  0879               	movf	??_luces,w
  4326  017A  00F3               	movwf	colocar@y
  4327  017B  3003               	movlw	3
  4328  017C  120A  158A  2085  120A  118A  	fcall	_colocar
  4329  0181                     l2424:	
  4330                           
  4331                           ;Carcelero.c: 156:     mostrar(a[y3]);
  4332  0181  1683               	bsf	3,5	;RP0=1, select bank1
  4333  0182  1303               	bcf	3,6	;RP1=0, select bank1
  4334  0183  0832               	movf	_y3^(0+128),w
  4335  0184  3E01               	addlw	low ((_a-__stringbase)| (0+32768))
  4336  0185  0084               	movwf	4
  4337  0186  120A  158A  2000  120A  118A  	fcall	stringdir
  4338  018B  120A  158A  2058  120A  118A  	fcall	_mostrar
  4339  0190                     l2426:	
  4340                           
  4341                           ;Carcelero.c: 158:     if (Luz < 50)
  4342  0190  3032               	movlw	50
  4343  0191  1283               	bcf	3,5	;RP0=0, select bank0
  4344  0192  1303               	bcf	3,6	;RP1=0, select bank0
  4345  0193  026E               	subwf	_Luz,w
  4346  0194  1803               	skipnc
  4347  0195  2997               	goto	u2641
  4348  0196  2998               	goto	u2640
  4349  0197                     u2641:	
  4350  0197  29BA               	goto	l2436
  4351  0198                     u2640:	
  4352  0198                     l2428:	
  4353                           
  4354                           ;Carcelero.c: 159:     {;Carcelero.c: 160:         colocar(4,2);
  4355  0198  3002               	movlw	2
  4356  0199  00F9               	movwf	??_luces
  4357  019A  0879               	movf	??_luces,w
  4358  019B  00F3               	movwf	colocar@y
  4359  019C  3004               	movlw	4
  4360  019D  120A  158A  2085  120A  118A  	fcall	_colocar
  4361  01A2                     l2430:	
  4362                           
  4363                           ;Carcelero.c: 161:         imprimir("   ");
  4364  01A2  300E               	movlw	(low (((STR_2+3)-__stringbase)| (0+32768)))& (0+255)
  4365  01A3  120A  158A  20FE  120A  118A  	fcall	_imprimir
  4366  01A8                     l2432:	
  4367                           
  4368                           ;Carcelero.c: 162:         colocar(5,1);
  4369  01A8  01F3               	clrf	colocar@y
  4370  01A9  0AF3               	incf	colocar@y,f
  4371  01AA  3005               	movlw	5
  4372  01AB  120A  158A  2085  120A  118A  	fcall	_colocar
  4373                           
  4374                           ;Carcelero.c: 163:         imprimir("ON");
  4375  01B0  3039               	movlw	(low ((STR_6-__stringbase)| (0+32768)))& (0+255)
  4376  01B1  120A  158A  20FE  120A  118A  	fcall	_imprimir
  4377  01B6                     l2434:	
  4378                           
  4379                           ;Carcelero.c: 164:         PORTAbits.RA2 = 1;
  4380  01B6  1283               	bcf	3,5	;RP0=0, select bank0
  4381  01B7  1303               	bcf	3,6	;RP1=0, select bank0
  4382  01B8  1505               	bsf	5,2	;volatile
  4383                           
  4384                           ;Carcelero.c: 165:     }
  4385  01B9  29DB               	goto	l187
  4386  01BA                     l2436:	
  4387                           
  4388                           ;Carcelero.c: 168:     {;Carcelero.c: 169:         colocar(5,1);
  4389  01BA  01F3               	clrf	colocar@y
  4390  01BB  0AF3               	incf	colocar@y,f
  4391  01BC  3005               	movlw	5
  4392  01BD  120A  158A  2085  120A  118A  	fcall	_colocar
  4393  01C2                     l2438:	
  4394                           
  4395                           ;Carcelero.c: 170:         imprimir("  ");
  4396  01C2  300F               	movlw	(low (((STR_2+4)-__stringbase)| (0+32768)))& (0+255)
  4397  01C3  120A  158A  20FE  120A  118A  	fcall	_imprimir
  4398  01C8                     l2440:	
  4399                           
  4400                           ;Carcelero.c: 171:         colocar(4,2);
  4401  01C8  3002               	movlw	2
  4402  01C9  00F9               	movwf	??_luces
  4403  01CA  0879               	movf	??_luces,w
  4404  01CB  00F3               	movwf	colocar@y
  4405  01CC  3004               	movlw	4
  4406  01CD  120A  158A  2085  120A  118A  	fcall	_colocar
  4407                           
  4408                           ;Carcelero.c: 172:         imprimir("OFF");
  4409  01D2  302F               	movlw	(low ((STR_8-__stringbase)| (0+32768)))& (0+255)
  4410  01D3  120A  158A  20FE  120A  118A  	fcall	_imprimir
  4411  01D8                     l2442:	
  4412                           
  4413                           ;Carcelero.c: 173:         PORTAbits.RA2 = 0;
  4414  01D8  1283               	bcf	3,5	;RP0=0, select bank0
  4415  01D9  1303               	bcf	3,6	;RP1=0, select bank0
  4416  01DA  1105               	bcf	5,2	;volatile
  4417  01DB                     l187:	
  4418  01DB  0008               	return
  4419  01DC                     __end_of_luces:	
  4420                           
  4421                           	psect	text10
  4422  086C                     __ptext10:	
  4423 ;; *************** function _iniciarUART *****************
  4424 ;; Defined at:
  4425 ;;		line 13 in file "./UART.h"
  4426 ;; Parameters:    Size  Location     Type
  4427 ;;		None
  4428 ;; Auto vars:     Size  Location     Type
  4429 ;;		None
  4430 ;; Return value:  Size  Location     Type
  4431 ;;                  1    wreg      void 
  4432 ;; Registers used:
  4433 ;;		wreg, status,2
  4434 ;; Tracked objects:
  4435 ;;		On entry : 0/0
  4436 ;;		On exit  : 0/0
  4437 ;;		Unchanged: 0/0
  4438 ;; Data sizes:     COMMON   BANK0   BANK1   BANK3   BANK2
  4439 ;;      Params:         0       0       0       0       0
  4440 ;;      Locals:         0       0       0       0       0
  4441 ;;      Temps:          0       0       0       0       0
  4442 ;;      Totals:         0       0       0       0       0
  4443 ;;Total ram usage:        0 bytes
  4444 ;; Hardware stack levels used:    1
  4445 ;; This function calls:
  4446 ;;		Nothing
  4447 ;; This function is called by:
  4448 ;;		_main
  4449 ;; This function uses a non-reentrant model
  4450 ;;
  4451                           
  4452                           
  4453                           ;psect for function _iniciarUART
  4454  086C                     _iniciarUART:	
  4455  086C                     l2340:	
  4456                           ;incstack = 0
  4457                           ; Regs used in _iniciarUART: [wreg+status,2]
  4458                           
  4459                           
  4460                           ;./UART.h: 15:     TXSTAbits.TXEN = 1;
  4461  086C  1683               	bsf	3,5	;RP0=1, select bank1
  4462  086D  1303               	bcf	3,6	;RP1=0, select bank1
  4463  086E  1698               	bsf	24,5	;volatile
  4464                           
  4465                           ;./UART.h: 16:     TXSTAbits.SYNC = 0;
  4466  086F  1218               	bcf	24,4	;volatile
  4467                           
  4468                           ;./UART.h: 17:     RCSTAbits.SPEN = 1;
  4469  0870  1283               	bcf	3,5	;RP0=0, select bank0
  4470  0871  1303               	bcf	3,6	;RP1=0, select bank0
  4471  0872  1798               	bsf	24,7	;volatile
  4472                           
  4473                           ;./UART.h: 18:     TXSTAbits.TX9 = 0;
  4474  0873  1683               	bsf	3,5	;RP0=1, select bank1
  4475  0874  1303               	bcf	3,6	;RP1=0, select bank1
  4476  0875  1318               	bcf	24,6	;volatile
  4477                           
  4478                           ;./UART.h: 19:     RCSTAbits.CREN = 1;
  4479  0876  1283               	bcf	3,5	;RP0=0, select bank0
  4480  0877  1303               	bcf	3,6	;RP1=0, select bank0
  4481  0878  1618               	bsf	24,4	;volatile
  4482  0879                     l2342:	
  4483                           
  4484                           ;./UART.h: 21:     SPBRG = 25;
  4485  0879  3019               	movlw	25
  4486  087A  1683               	bsf	3,5	;RP0=1, select bank1
  4487  087B  1303               	bcf	3,6	;RP1=0, select bank1
  4488  087C  0099               	movwf	25	;volatile
  4489  087D                     l2344:	
  4490                           
  4491                           ;./UART.h: 22:     SPBRGH = 0;
  4492  087D  019A               	clrf	26	;volatile
  4493  087E                     l2346:	
  4494                           
  4495                           ;./UART.h: 23:     BAUDCTLbits.BRG16 = 0;
  4496  087E  1683               	bsf	3,5	;RP0=1, select bank3
  4497  087F  1703               	bsf	3,6	;RP1=1, select bank3
  4498  0880  1187               	bcf	7,3	;volatile
  4499  0881                     l2348:	
  4500                           
  4501                           ;./UART.h: 24:     TXSTAbits.BRGH = 1;
  4502  0881  1683               	bsf	3,5	;RP0=1, select bank1
  4503  0882  1303               	bcf	3,6	;RP1=0, select bank1
  4504  0883  1518               	bsf	24,2	;volatile
  4505  0884                     l121:	
  4506  0884  0008               	return
  4507  0885                     __end_of_iniciarUART:	
  4508                           
  4509                           	psect	text11
  4510  0A69                     __ptext11:	
  4511 ;; *************** function _iniciarOSC *****************
  4512 ;; Defined at:
  4513 ;;		line 5 in file "./Oscilador.h"
  4514 ;; Parameters:    Size  Location     Type
  4515 ;;  frec            1    wreg     unsigned char 
  4516 ;; Auto vars:     Size  Location     Type
  4517 ;;  frec            1    2[COMMON] unsigned char 
  4518 ;; Return value:  Size  Location     Type
  4519 ;;                  1    wreg      void 
  4520 ;; Registers used:
  4521 ;;		wreg, fsr0l, fsr0h, status,2, status,0
  4522 ;; Tracked objects:
  4523 ;;		On entry : 0/0
  4524 ;;		On exit  : 0/0
  4525 ;;		Unchanged: 0/0
  4526 ;; Data sizes:     COMMON   BANK0   BANK1   BANK3   BANK2
  4527 ;;      Params:         0       0       0       0       0
  4528 ;;      Locals:         1       0       0       0       0
  4529 ;;      Temps:          2       0       0       0       0
  4530 ;;      Totals:         3       0       0       0       0
  4531 ;;Total ram usage:        3 bytes
  4532 ;; Hardware stack levels used:    1
  4533 ;; This function calls:
  4534 ;;		Nothing
  4535 ;; This function is called by:
  4536 ;;		_main
  4537 ;; This function uses a non-reentrant model
  4538 ;;
  4539                           
  4540                           
  4541                           ;psect for function _iniciarOSC
  4542  0A69                     _iniciarOSC:	
  4543                           
  4544                           ;incstack = 0
  4545                           ; Regs used in _iniciarOSC: [wreg-fsr0h+status,2+status,0]
  4546                           ;iniciarOSC@frec stored from wreg
  4547  0A69  00F2               	movwf	iniciarOSC@frec
  4548  0A6A                     l2312:	
  4549                           
  4550                           ;./Oscilador.h: 5: void iniciarOSC(uint8_t frec);./Oscilador.h: 6: {;./Oscilador.h: 7:  
      +                             switch(frec)
  4551  0A6A  2AA6               	goto	l2334
  4552  0A6B                     l2314:	
  4553                           
  4554                           ;./Oscilador.h: 10:             OSCCONbits.IRCF = 0b000;
  4555  0A6B  308F               	movlw	-113
  4556  0A6C  1683               	bsf	3,5	;RP0=1, select bank1
  4557  0A6D  1303               	bcf	3,6	;RP1=0, select bank1
  4558  0A6E  058F               	andwf	15,f	;volatile
  4559                           
  4560                           ;./Oscilador.h: 11:             break;
  4561  0A6F  2AC8               	goto	l109
  4562  0A70                     l2316:	
  4563                           
  4564                           ;./Oscilador.h: 14:             OSCCONbits.IRCF = 0b001;
  4565  0A70  1683               	bsf	3,5	;RP0=1, select bank1
  4566  0A71  1303               	bcf	3,6	;RP1=0, select bank1
  4567  0A72  080F               	movf	15,w	;volatile
  4568  0A73  398F               	andlw	-113
  4569  0A74  3810               	iorlw	16
  4570  0A75  008F               	movwf	15	;volatile
  4571                           
  4572                           ;./Oscilador.h: 15:             break;
  4573  0A76  2AC8               	goto	l109
  4574  0A77                     l2318:	
  4575                           
  4576                           ;./Oscilador.h: 18:             OSCCONbits.IRCF = 0b010;
  4577  0A77  1683               	bsf	3,5	;RP0=1, select bank1
  4578  0A78  1303               	bcf	3,6	;RP1=0, select bank1
  4579  0A79  080F               	movf	15,w	;volatile
  4580  0A7A  398F               	andlw	-113
  4581  0A7B  3820               	iorlw	32
  4582  0A7C  008F               	movwf	15	;volatile
  4583                           
  4584                           ;./Oscilador.h: 19:             break;
  4585  0A7D  2AC8               	goto	l109
  4586  0A7E                     l2320:	
  4587                           
  4588                           ;./Oscilador.h: 22:             OSCCONbits.IRCF = 0b001;
  4589  0A7E  1683               	bsf	3,5	;RP0=1, select bank1
  4590  0A7F  1303               	bcf	3,6	;RP1=0, select bank1
  4591  0A80  080F               	movf	15,w	;volatile
  4592  0A81  398F               	andlw	-113
  4593  0A82  3810               	iorlw	16
  4594  0A83  008F               	movwf	15	;volatile
  4595                           
  4596                           ;./Oscilador.h: 23:             break;
  4597  0A84  2AC8               	goto	l109
  4598  0A85                     l2322:	
  4599                           
  4600                           ;./Oscilador.h: 26:             OSCCONbits.IRCF = 0b100;
  4601  0A85  1683               	bsf	3,5	;RP0=1, select bank1
  4602  0A86  1303               	bcf	3,6	;RP1=0, select bank1
  4603  0A87  080F               	movf	15,w	;volatile
  4604  0A88  398F               	andlw	-113
  4605  0A89  3840               	iorlw	64
  4606  0A8A  008F               	movwf	15	;volatile
  4607                           
  4608                           ;./Oscilador.h: 27:             break;
  4609  0A8B  2AC8               	goto	l109
  4610  0A8C                     l2324:	
  4611                           
  4612                           ;./Oscilador.h: 30:             OSCCONbits.IRCF = 0b101;
  4613  0A8C  1683               	bsf	3,5	;RP0=1, select bank1
  4614  0A8D  1303               	bcf	3,6	;RP1=0, select bank1
  4615  0A8E  080F               	movf	15,w	;volatile
  4616  0A8F  398F               	andlw	-113
  4617  0A90  3850               	iorlw	80
  4618  0A91  008F               	movwf	15	;volatile
  4619                           
  4620                           ;./Oscilador.h: 31:             break;
  4621  0A92  2AC8               	goto	l109
  4622  0A93                     l2326:	
  4623                           
  4624                           ;./Oscilador.h: 34:             OSCCONbits.IRCF = 0b110;
  4625  0A93  1683               	bsf	3,5	;RP0=1, select bank1
  4626  0A94  1303               	bcf	3,6	;RP1=0, select bank1
  4627  0A95  080F               	movf	15,w	;volatile
  4628  0A96  398F               	andlw	-113
  4629  0A97  3860               	iorlw	96
  4630  0A98  008F               	movwf	15	;volatile
  4631                           
  4632                           ;./Oscilador.h: 35:             break;
  4633  0A99  2AC8               	goto	l109
  4634  0A9A                     l2328:	
  4635                           
  4636                           ;./Oscilador.h: 38:             OSCCONbits.IRCF = 0b111;
  4637  0A9A  3070               	movlw	112
  4638  0A9B  1683               	bsf	3,5	;RP0=1, select bank1
  4639  0A9C  1303               	bcf	3,6	;RP1=0, select bank1
  4640  0A9D  048F               	iorwf	15,f	;volatile
  4641                           
  4642                           ;./Oscilador.h: 39:             break;
  4643  0A9E  2AC8               	goto	l109
  4644  0A9F                     l2330:	
  4645                           
  4646                           ;./Oscilador.h: 42:             OSCCONbits.IRCF = 0b110;
  4647  0A9F  1683               	bsf	3,5	;RP0=1, select bank1
  4648  0AA0  1303               	bcf	3,6	;RP1=0, select bank1
  4649  0AA1  080F               	movf	15,w	;volatile
  4650  0AA2  398F               	andlw	-113
  4651  0AA3  3860               	iorlw	96
  4652  0AA4  008F               	movwf	15	;volatile
  4653                           
  4654                           ;./Oscilador.h: 43:             break;
  4655  0AA5  2AC8               	goto	l109
  4656  0AA6                     l2334:	
  4657  0AA6  0872               	movf	iniciarOSC@frec,w
  4658  0AA7  00F0               	movwf	??_iniciarOSC
  4659  0AA8  01F1               	clrf	??_iniciarOSC+1
  4660                           
  4661                           ; Switch on 2 bytes has been partitioned into a top level switch of size 1, and 1 sub-sw
      +                          itches
  4662                           ; Switch size 1, requested type "simple"
  4663                           ; Number of cases is 1, Range of values is 0 to 0
  4664                           ; switch strategies available:
  4665                           ; Name         Instructions Cycles
  4666                           ; simple_byte            4     3 (average)
  4667                           ; direct_byte           11     8 (fixed)
  4668                           ; jumptable            260     6 (fixed)
  4669                           ;	Chosen strategy is simple_byte
  4670  0AA9  0871               	movf	??_iniciarOSC+1,w
  4671  0AAA  3A00               	xorlw	0	; case 0
  4672  0AAB  1903               	skipnz
  4673  0AAC  2AAE               	goto	l2628
  4674  0AAD  2A9F               	goto	l2330
  4675  0AAE                     l2628:	
  4676                           
  4677                           ; Switch size 1, requested type "simple"
  4678                           ; Number of cases is 8, Range of values is 0 to 7
  4679                           ; switch strategies available:
  4680                           ; Name         Instructions Cycles
  4681                           ; simple_byte           25    13 (average)
  4682                           ; direct_byte           32     8 (fixed)
  4683                           ; jumptable            260     6 (fixed)
  4684                           ;	Chosen strategy is simple_byte
  4685  0AAE  0870               	movf	??_iniciarOSC,w
  4686  0AAF  3A00               	xorlw	0	; case 0
  4687  0AB0  1903               	skipnz
  4688  0AB1  2A6B               	goto	l2314
  4689  0AB2  3A01               	xorlw	1	; case 1
  4690  0AB3  1903               	skipnz
  4691  0AB4  2A70               	goto	l2316
  4692  0AB5  3A03               	xorlw	3	; case 2
  4693  0AB6  1903               	skipnz
  4694  0AB7  2A77               	goto	l2318
  4695  0AB8  3A01               	xorlw	1	; case 3
  4696  0AB9  1903               	skipnz
  4697  0ABA  2A7E               	goto	l2320
  4698  0ABB  3A07               	xorlw	7	; case 4
  4699  0ABC  1903               	skipnz
  4700  0ABD  2A85               	goto	l2322
  4701  0ABE  3A01               	xorlw	1	; case 5
  4702  0ABF  1903               	skipnz
  4703  0AC0  2A8C               	goto	l2324
  4704  0AC1  3A03               	xorlw	3	; case 6
  4705  0AC2  1903               	skipnz
  4706  0AC3  2A93               	goto	l2326
  4707  0AC4  3A01               	xorlw	1	; case 7
  4708  0AC5  1903               	skipnz
  4709  0AC6  2A9A               	goto	l2328
  4710  0AC7  2A9F               	goto	l2330
  4711  0AC8                     l109:	
  4712                           
  4713                           ;./Oscilador.h: 47:     OSCCONbits.SCS = 1;
  4714  0AC8  140F               	bsf	15,0	;volatile
  4715  0AC9                     l118:	
  4716  0AC9  0008               	return
  4717  0ACA                     __end_of_iniciarOSC:	
  4718                           
  4719                           	psect	text12
  4720  0967                     __ptext12:	
  4721 ;; *************** function _iniciarLCD *****************
  4722 ;; Defined at:
  4723 ;;		line 25 in file "./LCD.h"
  4724 ;; Parameters:    Size  Location     Type
  4725 ;;		None
  4726 ;; Auto vars:     Size  Location     Type
  4727 ;;		None
  4728 ;; Return value:  Size  Location     Type
  4729 ;;                  1    wreg      void 
  4730 ;; Registers used:
  4731 ;;		wreg, status,2, status,0, pclath, cstack
  4732 ;; Tracked objects:
  4733 ;;		On entry : 0/0
  4734 ;;		On exit  : 0/0
  4735 ;;		Unchanged: 0/0
  4736 ;; Data sizes:     COMMON   BANK0   BANK1   BANK3   BANK2
  4737 ;;      Params:         0       0       0       0       0
  4738 ;;      Locals:         0       0       0       0       0
  4739 ;;      Temps:          2       0       0       0       0
  4740 ;;      Totals:         2       0       0       0       0
  4741 ;;Total ram usage:        2 bytes
  4742 ;; Hardware stack levels used:    1
  4743 ;; Hardware stack levels required when called:    1
  4744 ;; This function calls:
  4745 ;;		_comando
  4746 ;; This function is called by:
  4747 ;;		_main
  4748 ;; This function uses a non-reentrant model
  4749 ;;
  4750                           
  4751                           
  4752                           ;psect for function _iniciarLCD
  4753  0967                     _iniciarLCD:	
  4754  0967                     l2278:	
  4755                           ;incstack = 0
  4756                           ; Regs used in _iniciarLCD: [wreg+status,2+status,0+pclath+cstack]
  4757                           
  4758                           
  4759                           ;./LCD.h: 27:     PORTDbits.RD6 = 0;
  4760  0967  1283               	bcf	3,5	;RP0=0, select bank0
  4761  0968  1303               	bcf	3,6	;RP1=0, select bank0
  4762  0969  1308               	bcf	8,6	;volatile
  4763  096A                     l2280:	
  4764                           
  4765                           ;./LCD.h: 29:     comando(0);
  4766  096A  3000               	movlw	0
  4767  096B  160A  118A  27EC  120A  158A  	fcall	_comando
  4768  0970                     l2282:	
  4769                           
  4770                           ;./LCD.h: 31:     _delay((unsigned long)((15)*(4000000/4000.0)));
  4771  0970  3014               	movlw	20
  4772  0971  00F4               	movwf	??_iniciarLCD+1
  4773  0972  3079               	movlw	121
  4774  0973  00F3               	movwf	??_iniciarLCD
  4775  0974                     u2787:	
  4776  0974  0BF3               	decfsz	??_iniciarLCD,f
  4777  0975  2974               	goto	u2787
  4778  0976  0BF4               	decfsz	??_iniciarLCD+1,f
  4779  0977  2974               	goto	u2787
  4780  0978  2979               	nop2
  4781  0979                     l2284:	
  4782                           
  4783                           ;./LCD.h: 33:     comando(0x30);
  4784  0979  3030               	movlw	48
  4785  097A  160A  118A  27EC  120A  158A  	fcall	_comando
  4786                           
  4787                           ;./LCD.h: 34:     _delay((unsigned long)((4)*(4000000/4000.0)));
  4788  097F  3006               	movlw	6
  4789  0980  00F4               	movwf	??_iniciarLCD+1
  4790  0981  3030               	movlw	48
  4791  0982  00F3               	movwf	??_iniciarLCD
  4792  0983                     u2797:	
  4793  0983  0BF3               	decfsz	??_iniciarLCD,f
  4794  0984  2983               	goto	u2797
  4795  0985  0BF4               	decfsz	??_iniciarLCD+1,f
  4796  0986  2983               	goto	u2797
  4797  0987  0000               	nop
  4798  0988                     l2286:	
  4799                           
  4800                           ;./LCD.h: 36:     comando(0x30);
  4801  0988  3030               	movlw	48
  4802  0989  160A  118A  27EC  120A  158A  	fcall	_comando
  4803  098E                     l2288:	
  4804                           
  4805                           ;./LCD.h: 37:     _delay((unsigned long)((160)*(4000000/4000000.0)));
  4806  098E  3035               	movlw	53
  4807  098F  00F3               	movwf	??_iniciarLCD
  4808  0990                     u2807:	
  4809  0990  0BF3               	decfsz	??_iniciarLCD,f
  4810  0991  2990               	goto	u2807
  4811                           
  4812                           ;./LCD.h: 39:     comando(0x30);
  4813  0992  3030               	movlw	48
  4814  0993  160A  118A  27EC  120A  158A  	fcall	_comando
  4815  0998                     l2290:	
  4816                           
  4817                           ;./LCD.h: 40:     _delay((unsigned long)((160)*(4000000/4000000.0)));
  4818  0998  3035               	movlw	53
  4819  0999  00F3               	movwf	??_iniciarLCD
  4820  099A                     u2817:	
  4821  099A  0BF3               	decfsz	??_iniciarLCD,f
  4822  099B  299A               	goto	u2817
  4823  099C                     l2292:	
  4824                           
  4825                           ;./LCD.h: 42:     comando(0x38);
  4826  099C  3038               	movlw	56
  4827  099D  160A  118A  27EC  120A  158A  	fcall	_comando
  4828  09A2                     l2294:	
  4829                           
  4830                           ;./LCD.h: 44:     comando(0x10);
  4831  09A2  3010               	movlw	16
  4832  09A3  160A  118A  27EC  120A  158A  	fcall	_comando
  4833  09A8                     l2296:	
  4834                           
  4835                           ;./LCD.h: 46:     comando(0x01);
  4836  09A8  3001               	movlw	1
  4837  09A9  160A  118A  27EC  120A  158A  	fcall	_comando
  4838  09AE                     l2298:	
  4839                           
  4840                           ;./LCD.h: 48:     comando(0x06);
  4841  09AE  3006               	movlw	6
  4842  09AF  160A  118A  27EC  120A  158A  	fcall	_comando
  4843  09B4                     l2300:	
  4844                           
  4845                           ;./LCD.h: 50:     comando(0x0F);
  4846  09B4  300F               	movlw	15
  4847  09B5  160A  118A  27EC  120A  158A  	fcall	_comando
  4848  09BA                     l83:	
  4849  09BA  0008               	return
  4850  09BB                     __end_of_iniciarLCD:	
  4851                           
  4852                           	psect	text13
  4853  0022                     __ptext13:	
  4854 ;; *************** function _humo *****************
  4855 ;; Defined at:
  4856 ;;		line 90 in file "Carcelero.c"
  4857 ;; Parameters:    Size  Location     Type
  4858 ;;		None
  4859 ;; Auto vars:     Size  Location     Type
  4860 ;;		None
  4861 ;; Return value:  Size  Location     Type
  4862 ;;                  1    wreg      void 
  4863 ;; Registers used:
  4864 ;;		wreg, fsr0l, fsr0h, status,2, status,0, pclath, cstack
  4865 ;; Tracked objects:
  4866 ;;		On entry : 0/0
  4867 ;;		On exit  : 0/0
  4868 ;;		Unchanged: 0/0
  4869 ;; Data sizes:     COMMON   BANK0   BANK1   BANK3   BANK2
  4870 ;;      Params:         0       0       0       0       0
  4871 ;;      Locals:         0       0       0       0       0
  4872 ;;      Temps:          2       0       0       0       0
  4873 ;;      Totals:         2       0       0       0       0
  4874 ;;Total ram usage:        2 bytes
  4875 ;; Hardware stack levels used:    1
  4876 ;; Hardware stack levels required when called:    2
  4877 ;; This function calls:
  4878 ;;		___awdiv
  4879 ;;		___awmod
  4880 ;;		_colocar
  4881 ;;		_imprimir
  4882 ;;		_mostrar
  4883 ;; This function is called by:
  4884 ;;		_main
  4885 ;; This function uses a non-reentrant model
  4886 ;;
  4887                           
  4888                           
  4889                           ;psect for function _humo
  4890  0022                     _humo:	
  4891  0022                     l2372:	
  4892                           ;incstack = 0
  4893                           ; Regs used in _humo: [wreg-fsr0h+status,2+status,0+pclath+cstack]
  4894                           
  4895                           
  4896                           ;Carcelero.c: 92:     w = Humo/100;
  4897  0022  3064               	movlw	100
  4898  0023  00F0               	movwf	___awdiv@divisor
  4899  0024  3000               	movlw	0
  4900  0025  00F1               	movwf	___awdiv@divisor+1
  4901  0026  1283               	bcf	3,5	;RP0=0, select bank0
  4902  0027  1303               	bcf	3,6	;RP1=0, select bank0
  4903  0028  086B               	movf	_Humo,w
  4904  0029  00F9               	movwf	??_humo
  4905  002A  01FA               	clrf	??_humo+1
  4906  002B  0879               	movf	??_humo,w
  4907  002C  00F2               	movwf	___awdiv@dividend
  4908  002D  087A               	movf	??_humo+1,w
  4909  002E  00F3               	movwf	___awdiv@dividend+1
  4910  002F  120A  158A  2330  120A  118A  	fcall	___awdiv
  4911  0034  0871               	movf	?___awdiv+1,w
  4912  0035  1683               	bsf	3,5	;RP0=1, select bank1
  4913  0036  1303               	bcf	3,6	;RP1=0, select bank1
  4914  0037  00AD               	movwf	(_w+1)^(0+128)
  4915  0038  0870               	movf	?___awdiv,w
  4916  0039  00AC               	movwf	_w^(0+128)
  4917                           
  4918                           ;Carcelero.c: 93:     w1 = Humo%100;
  4919  003A  3064               	movlw	100
  4920  003B  00F0               	movwf	___awmod@divisor
  4921  003C  3000               	movlw	0
  4922  003D  00F1               	movwf	___awmod@divisor+1
  4923  003E  1283               	bcf	3,5	;RP0=0, select bank0
  4924  003F  1303               	bcf	3,6	;RP1=0, select bank0
  4925  0040  086B               	movf	_Humo,w
  4926  0041  00F9               	movwf	??_humo
  4927  0042  01FA               	clrf	??_humo+1
  4928  0043  0879               	movf	??_humo,w
  4929  0044  00F2               	movwf	___awmod@dividend
  4930  0045  087A               	movf	??_humo+1,w
  4931  0046  00F3               	movwf	___awmod@dividend+1
  4932  0047  120A  158A  2210  120A  118A  	fcall	___awmod
  4933  004C  0871               	movf	?___awmod+1,w
  4934  004D  1683               	bsf	3,5	;RP0=1, select bank1
  4935  004E  1303               	bcf	3,6	;RP1=0, select bank1
  4936  004F  00AB               	movwf	(_w1+1)^(0+128)
  4937  0050  0870               	movf	?___awmod,w
  4938  0051  00AA               	movwf	_w1^(0+128)
  4939                           
  4940                           ;Carcelero.c: 94:     w2 = w1/10;
  4941  0052  300A               	movlw	10
  4942  0053  00F0               	movwf	___awdiv@divisor
  4943  0054  3000               	movlw	0
  4944  0055  00F1               	movwf	___awdiv@divisor+1
  4945  0056  082B               	movf	(_w1+1)^(0+128),w
  4946  0057  00F3               	movwf	___awdiv@dividend+1
  4947  0058  082A               	movf	_w1^(0+128),w
  4948  0059  00F2               	movwf	___awdiv@dividend
  4949  005A  120A  158A  2330  120A  118A  	fcall	___awdiv
  4950  005F  0871               	movf	?___awdiv+1,w
  4951  0060  1683               	bsf	3,5	;RP0=1, select bank1
  4952  0061  1303               	bcf	3,6	;RP1=0, select bank1
  4953  0062  00A9               	movwf	(_w2+1)^(0+128)
  4954  0063  0870               	movf	?___awdiv,w
  4955  0064  00A8               	movwf	_w2^(0+128)
  4956                           
  4957                           ;Carcelero.c: 95:     w3 = w1%10;
  4958  0065  300A               	movlw	10
  4959  0066  00F0               	movwf	___awmod@divisor
  4960  0067  3000               	movlw	0
  4961  0068  00F1               	movwf	___awmod@divisor+1
  4962  0069  082B               	movf	(_w1+1)^(0+128),w
  4963  006A  00F3               	movwf	___awmod@dividend+1
  4964  006B  082A               	movf	_w1^(0+128),w
  4965  006C  00F2               	movwf	___awmod@dividend
  4966  006D  120A  158A  2210  120A  118A  	fcall	___awmod
  4967  0072  0871               	movf	?___awmod+1,w
  4968  0073  1683               	bsf	3,5	;RP0=1, select bank1
  4969  0074  1303               	bcf	3,6	;RP1=0, select bank1
  4970  0075  00A7               	movwf	(_w3+1)^(0+128)
  4971  0076  0870               	movf	?___awmod,w
  4972  0077  00A6               	movwf	_w3^(0+128)
  4973                           
  4974                           ;Carcelero.c: 97:     colocar(20,1);
  4975  0078  01F3               	clrf	colocar@y
  4976  0079  0AF3               	incf	colocar@y,f
  4977  007A  3014               	movlw	20
  4978  007B  120A  158A  2085  120A  118A  	fcall	_colocar
  4979  0080                     l2374:	
  4980                           
  4981                           ;Carcelero.c: 98:     mostrar(a[w]);
  4982  0080  1683               	bsf	3,5	;RP0=1, select bank1
  4983  0081  1303               	bcf	3,6	;RP1=0, select bank1
  4984  0082  082C               	movf	_w^(0+128),w
  4985  0083  3E01               	addlw	low ((_a-__stringbase)| (0+32768))
  4986  0084  0084               	movwf	4
  4987  0085  120A  158A  2000  120A  118A  	fcall	stringdir
  4988  008A  120A  158A  2058  120A  118A  	fcall	_mostrar
  4989  008F                     l2376:	
  4990                           
  4991                           ;Carcelero.c: 99:     colocar(21,1);
  4992  008F  01F3               	clrf	colocar@y
  4993  0090  0AF3               	incf	colocar@y,f
  4994  0091  3015               	movlw	21
  4995  0092  120A  158A  2085  120A  118A  	fcall	_colocar
  4996                           
  4997                           ;Carcelero.c: 100:     mostrar(a[w2]);
  4998  0097  1683               	bsf	3,5	;RP0=1, select bank1
  4999  0098  1303               	bcf	3,6	;RP1=0, select bank1
  5000  0099  0828               	movf	_w2^(0+128),w
  5001  009A  3E01               	addlw	low ((_a-__stringbase)| (0+32768))
  5002  009B  0084               	movwf	4
  5003  009C  120A  158A  2000  120A  118A  	fcall	stringdir
  5004  00A1  120A  158A  2058  120A  118A  	fcall	_mostrar
  5005  00A6                     l2378:	
  5006                           
  5007                           ;Carcelero.c: 101:     colocar(22,1);
  5008  00A6  01F3               	clrf	colocar@y
  5009  00A7  0AF3               	incf	colocar@y,f
  5010  00A8  3016               	movlw	22
  5011  00A9  120A  158A  2085  120A  118A  	fcall	_colocar
  5012  00AE                     l2380:	
  5013                           
  5014                           ;Carcelero.c: 102:     mostrar(a[w3]);
  5015  00AE  1683               	bsf	3,5	;RP0=1, select bank1
  5016  00AF  1303               	bcf	3,6	;RP1=0, select bank1
  5017  00B0  0826               	movf	_w3^(0+128),w
  5018  00B1  3E01               	addlw	low ((_a-__stringbase)| (0+32768))
  5019  00B2  0084               	movwf	4
  5020  00B3  120A  158A  2000  120A  118A  	fcall	stringdir
  5021  00B8  120A  158A  2058  120A  118A  	fcall	_mostrar
  5022  00BD                     l2382:	
  5023                           
  5024                           ;Carcelero.c: 104:     if (Humo > 50)
  5025  00BD  3033               	movlw	51
  5026  00BE  1283               	bcf	3,5	;RP0=0, select bank0
  5027  00BF  1303               	bcf	3,6	;RP1=0, select bank0
  5028  00C0  026B               	subwf	_Humo,w
  5029  00C1  1C03               	skipc
  5030  00C2  28C4               	goto	u2621
  5031  00C3  28C5               	goto	u2620
  5032  00C4                     u2621:	
  5033  00C4  28D9               	goto	l2390
  5034  00C5                     u2620:	
  5035  00C5                     l2384:	
  5036                           
  5037                           ;Carcelero.c: 105:     {;Carcelero.c: 106:         colocar(16,2);
  5038  00C5  3002               	movlw	2
  5039  00C6  00F9               	movwf	??_humo
  5040  00C7  0879               	movf	??_humo,w
  5041  00C8  00F3               	movwf	colocar@y
  5042  00C9  3010               	movlw	16
  5043  00CA  120A  158A  2085  120A  118A  	fcall	_colocar
  5044  00CF                     l2386:	
  5045                           
  5046                           ;Carcelero.c: 107:         imprimir("ALERTA");
  5047  00CF  3012               	movlw	(low ((STR_1-__stringbase)| (0+32768)))& (0+255)
  5048  00D0  120A  158A  20FE  120A  118A  	fcall	_imprimir
  5049  00D5                     l2388:	
  5050                           
  5051                           ;Carcelero.c: 108:         PORTAbits.RA4 = 1;
  5052  00D5  1283               	bcf	3,5	;RP0=0, select bank0
  5053  00D6  1303               	bcf	3,6	;RP1=0, select bank0
  5054  00D7  1605               	bsf	5,4	;volatile
  5055                           
  5056                           ;Carcelero.c: 109:     }
  5057  00D8  28EC               	goto	l177
  5058  00D9                     l2390:	
  5059                           
  5060                           ;Carcelero.c: 112:     {;Carcelero.c: 113:         colocar(16,2);
  5061  00D9  3002               	movlw	2
  5062  00DA  00F9               	movwf	??_humo
  5063  00DB  0879               	movf	??_humo,w
  5064  00DC  00F3               	movwf	colocar@y
  5065  00DD  3010               	movlw	16
  5066  00DE  120A  158A  2085  120A  118A  	fcall	_colocar
  5067  00E3                     l2392:	
  5068                           
  5069                           ;Carcelero.c: 114:         imprimir("      ");
  5070  00E3  300B               	movlw	(low ((STR_2-__stringbase)| (0+32768)))& (0+255)
  5071  00E4  120A  158A  20FE  120A  118A  	fcall	_imprimir
  5072  00E9                     l2394:	
  5073                           
  5074                           ;Carcelero.c: 115:         PORTAbits.RA4 = 0;
  5075  00E9  1283               	bcf	3,5	;RP0=0, select bank0
  5076  00EA  1303               	bcf	3,6	;RP1=0, select bank0
  5077  00EB  1205               	bcf	5,4	;volatile
  5078  00EC                     l177:	
  5079  00EC  0008               	return
  5080  00ED                     __end_of_humo:	
  5081                           
  5082                           	psect	text14
  5083  0858                     __ptext14:	
  5084 ;; *************** function _mostrar *****************
  5085 ;; Defined at:
  5086 ;;		line 90 in file "./LCD.h"
  5087 ;; Parameters:    Size  Location     Type
  5088 ;;  t               1    wreg     const unsigned char 
  5089 ;; Auto vars:     Size  Location     Type
  5090 ;;  t               1    2[COMMON] const unsigned char 
  5091 ;; Return value:  Size  Location     Type
  5092 ;;                  1    wreg      void 
  5093 ;; Registers used:
  5094 ;;		wreg
  5095 ;; Tracked objects:
  5096 ;;		On entry : 0/0
  5097 ;;		On exit  : 0/0
  5098 ;;		Unchanged: 0/0
  5099 ;; Data sizes:     COMMON   BANK0   BANK1   BANK3   BANK2
  5100 ;;      Params:         0       0       0       0       0
  5101 ;;      Locals:         1       0       0       0       0
  5102 ;;      Temps:          2       0       0       0       0
  5103 ;;      Totals:         3       0       0       0       0
  5104 ;;Total ram usage:        3 bytes
  5105 ;; Hardware stack levels used:    1
  5106 ;; This function calls:
  5107 ;;		Nothing
  5108 ;; This function is called by:
  5109 ;;		_temperatura
  5110 ;;		_humo
  5111 ;;		_ultrasonico
  5112 ;;		_luces
  5113 ;;		_main
  5114 ;; This function uses a non-reentrant model
  5115 ;;
  5116                           
  5117                           
  5118                           ;psect for function _mostrar
  5119  0858                     _mostrar:	
  5120                           
  5121                           ;incstack = 0
  5122                           ; Regs used in _mostrar: [wreg]
  5123                           ;mostrar@t stored from wreg
  5124  0858  00F2               	movwf	mostrar@t
  5125  0859                     l1762:	
  5126                           
  5127                           ;./LCD.h: 90: void mostrar(const char t);./LCD.h: 91: {;./LCD.h: 92:     PORTDbits.RD6 =
      +                           1;
  5128  0859  1283               	bcf	3,5	;RP0=0, select bank0
  5129  085A  1303               	bcf	3,6	;RP1=0, select bank0
  5130  085B  1708               	bsf	8,6	;volatile
  5131  085C                     l1764:	
  5132                           
  5133                           ;./LCD.h: 93:     PORTB = t;
  5134  085C  0872               	movf	mostrar@t,w
  5135  085D  0086               	movwf	6	;volatile
  5136  085E                     l1766:	
  5137                           
  5138                           ;./LCD.h: 94:     PORTDbits.RD7 = 1;
  5139  085E  1788               	bsf	8,7	;volatile
  5140                           
  5141                           ;./LCD.h: 95:     _delay((unsigned long)((2)*(4000000/4000.0)));
  5142  085F  3003               	movlw	3
  5143  0860  00F1               	movwf	??_mostrar+1
  5144  0861  3097               	movlw	151
  5145  0862  00F0               	movwf	??_mostrar
  5146  0863                     u2827:	
  5147  0863  0BF0               	decfsz	??_mostrar,f
  5148  0864  2863               	goto	u2827
  5149  0865  0BF1               	decfsz	??_mostrar+1,f
  5150  0866  2863               	goto	u2827
  5151  0867  2868               	nop2
  5152  0868                     l1768:	
  5153                           
  5154                           ;./LCD.h: 96:     PORTDbits.RD7 = 0;
  5155  0868  1283               	bcf	3,5	;RP0=0, select bank0
  5156  0869  1303               	bcf	3,6	;RP1=0, select bank0
  5157  086A  1388               	bcf	8,7	;volatile
  5158  086B                     l101:	
  5159  086B  0008               	return
  5160  086C                     __end_of_mostrar:	
  5161                           
  5162                           	psect	text15
  5163  0A10                     __ptext15:	
  5164 ;; *************** function ___awmod *****************
  5165 ;; Defined at:
  5166 ;;		line 5 in file "C:\Program Files (x86)\Microchip\xc8\v2.10\pic\sources\c90\common\awmod.c"
  5167 ;; Parameters:    Size  Location     Type
  5168 ;;  divisor         2    0[COMMON] int 
  5169 ;;  dividend        2    2[COMMON] int 
  5170 ;; Auto vars:     Size  Location     Type
  5171 ;;  sign            1    6[COMMON] unsigned char 
  5172 ;;  counter         1    5[COMMON] unsigned char 
  5173 ;; Return value:  Size  Location     Type
  5174 ;;                  2    0[COMMON] int 
  5175 ;; Registers used:
  5176 ;;		wreg, status,2, status,0
  5177 ;; Tracked objects:
  5178 ;;		On entry : 0/0
  5179 ;;		On exit  : 0/0
  5180 ;;		Unchanged: 0/0
  5181 ;; Data sizes:     COMMON   BANK0   BANK1   BANK3   BANK2
  5182 ;;      Params:         4       0       0       0       0
  5183 ;;      Locals:         2       0       0       0       0
  5184 ;;      Temps:          1       0       0       0       0
  5185 ;;      Totals:         7       0       0       0       0
  5186 ;;Total ram usage:        7 bytes
  5187 ;; Hardware stack levels used:    1
  5188 ;; This function calls:
  5189 ;;		Nothing
  5190 ;; This function is called by:
  5191 ;;		_temperatura
  5192 ;;		_humo
  5193 ;;		_ultrasonico
  5194 ;;		_luces
  5195 ;; This function uses a non-reentrant model
  5196 ;;
  5197                           
  5198                           
  5199                           ;psect for function ___awmod
  5200  0A10                     ___awmod:	
  5201  0A10                     l1838:	
  5202                           ;incstack = 0
  5203                           ; Regs used in ___awmod: [wreg+status,2+status,0]
  5204                           
  5205  0A10  01F6               	clrf	___awmod@sign
  5206  0A11                     l1840:	
  5207  0A11  1FF3               	btfss	___awmod@dividend+1,7
  5208  0A12  2A14               	goto	u1591
  5209  0A13  2A15               	goto	u1590
  5210  0A14                     u1591:	
  5211  0A14  2A1C               	goto	l1846
  5212  0A15                     u1590:	
  5213  0A15                     l1842:	
  5214  0A15  09F2               	comf	___awmod@dividend,f
  5215  0A16  09F3               	comf	___awmod@dividend+1,f
  5216  0A17  0AF2               	incf	___awmod@dividend,f
  5217  0A18  1903               	skipnz
  5218  0A19  0AF3               	incf	___awmod@dividend+1,f
  5219  0A1A                     l1844:	
  5220  0A1A  01F6               	clrf	___awmod@sign
  5221  0A1B  0AF6               	incf	___awmod@sign,f
  5222  0A1C                     l1846:	
  5223  0A1C  1FF1               	btfss	___awmod@divisor+1,7
  5224  0A1D  2A1F               	goto	u1601
  5225  0A1E  2A20               	goto	u1600
  5226  0A1F                     u1601:	
  5227  0A1F  2A25               	goto	l1850
  5228  0A20                     u1600:	
  5229  0A20                     l1848:	
  5230  0A20  09F0               	comf	___awmod@divisor,f
  5231  0A21  09F1               	comf	___awmod@divisor+1,f
  5232  0A22  0AF0               	incf	___awmod@divisor,f
  5233  0A23  1903               	skipnz
  5234  0A24  0AF1               	incf	___awmod@divisor+1,f
  5235  0A25                     l1850:	
  5236  0A25  0870               	movf	___awmod@divisor,w
  5237  0A26  0471               	iorwf	___awmod@divisor+1,w
  5238  0A27  1903               	btfsc	3,2
  5239  0A28  2A2A               	goto	u1611
  5240  0A29  2A2B               	goto	u1610
  5241  0A2A                     u1611:	
  5242  0A2A  2A5A               	goto	l1868
  5243  0A2B                     u1610:	
  5244  0A2B                     l1852:	
  5245  0A2B  01F5               	clrf	___awmod@counter
  5246  0A2C  0AF5               	incf	___awmod@counter,f
  5247  0A2D  2A39               	goto	l1858
  5248  0A2E                     l1854:	
  5249  0A2E  3001               	movlw	1
  5250  0A2F                     u1625:	
  5251  0A2F  1003               	clrc
  5252  0A30  0DF0               	rlf	___awmod@divisor,f
  5253  0A31  0DF1               	rlf	___awmod@divisor+1,f
  5254  0A32  3EFF               	addlw	-1
  5255  0A33  1D03               	skipz
  5256  0A34  2A2F               	goto	u1625
  5257  0A35                     l1856:	
  5258  0A35  3001               	movlw	1
  5259  0A36  00F4               	movwf	??___awmod
  5260  0A37  0874               	movf	??___awmod,w
  5261  0A38  07F5               	addwf	___awmod@counter,f
  5262  0A39                     l1858:	
  5263  0A39  1FF1               	btfss	___awmod@divisor+1,7
  5264  0A3A  2A3C               	goto	u1631
  5265  0A3B  2A3D               	goto	u1630
  5266  0A3C                     u1631:	
  5267  0A3C  2A2E               	goto	l1854
  5268  0A3D                     u1630:	
  5269  0A3D                     l1860:	
  5270  0A3D  0871               	movf	___awmod@divisor+1,w
  5271  0A3E  0273               	subwf	___awmod@dividend+1,w
  5272  0A3F  1D03               	skipz
  5273  0A40  2A43               	goto	u1645
  5274  0A41  0870               	movf	___awmod@divisor,w
  5275  0A42  0272               	subwf	___awmod@dividend,w
  5276  0A43                     u1645:	
  5277  0A43  1C03               	skipc
  5278  0A44  2A46               	goto	u1641
  5279  0A45  2A47               	goto	u1640
  5280  0A46                     u1641:	
  5281  0A46  2A4D               	goto	l1864
  5282  0A47                     u1640:	
  5283  0A47                     l1862:	
  5284  0A47  0870               	movf	___awmod@divisor,w
  5285  0A48  02F2               	subwf	___awmod@dividend,f
  5286  0A49  0871               	movf	___awmod@divisor+1,w
  5287  0A4A  1C03               	skipc
  5288  0A4B  03F3               	decf	___awmod@dividend+1,f
  5289  0A4C  02F3               	subwf	___awmod@dividend+1,f
  5290  0A4D                     l1864:	
  5291  0A4D  3001               	movlw	1
  5292  0A4E                     u1655:	
  5293  0A4E  1003               	clrc
  5294  0A4F  0CF1               	rrf	___awmod@divisor+1,f
  5295  0A50  0CF0               	rrf	___awmod@divisor,f
  5296  0A51  3EFF               	addlw	-1
  5297  0A52  1D03               	skipz
  5298  0A53  2A4E               	goto	u1655
  5299  0A54                     l1866:	
  5300  0A54  3001               	movlw	1
  5301  0A55  02F5               	subwf	___awmod@counter,f
  5302  0A56  1D03               	btfss	3,2
  5303  0A57  2A59               	goto	u1661
  5304  0A58  2A5A               	goto	u1660
  5305  0A59                     u1661:	
  5306  0A59  2A3D               	goto	l1860
  5307  0A5A                     u1660:	
  5308  0A5A                     l1868:	
  5309  0A5A  0876               	movf	___awmod@sign,w
  5310  0A5B  1903               	btfsc	3,2
  5311  0A5C  2A5E               	goto	u1671
  5312  0A5D  2A5F               	goto	u1670
  5313  0A5E                     u1671:	
  5314  0A5E  2A64               	goto	l1872
  5315  0A5F                     u1670:	
  5316  0A5F                     l1870:	
  5317  0A5F  09F2               	comf	___awmod@dividend,f
  5318  0A60  09F3               	comf	___awmod@dividend+1,f
  5319  0A61  0AF2               	incf	___awmod@dividend,f
  5320  0A62  1903               	skipnz
  5321  0A63  0AF3               	incf	___awmod@dividend+1,f
  5322  0A64                     l1872:	
  5323  0A64  0873               	movf	___awmod@dividend+1,w
  5324  0A65  00F1               	movwf	?___awmod+1
  5325  0A66  0872               	movf	___awmod@dividend,w
  5326  0A67  00F0               	movwf	?___awmod
  5327  0A68                     l456:	
  5328  0A68  0008               	return
  5329  0A69                     __end_of___awmod:	
  5330                           
  5331                           	psect	text16
  5332  0B30                     __ptext16:	
  5333 ;; *************** function ___awdiv *****************
  5334 ;; Defined at:
  5335 ;;		line 5 in file "C:\Program Files (x86)\Microchip\xc8\v2.10\pic\sources\c90\common\awdiv.c"
  5336 ;; Parameters:    Size  Location     Type
  5337 ;;  divisor         2    0[COMMON] int 
  5338 ;;  dividend        2    2[COMMON] int 
  5339 ;; Auto vars:     Size  Location     Type
  5340 ;;  quotient        2    7[COMMON] int 
  5341 ;;  sign            1    6[COMMON] unsigned char 
  5342 ;;  counter         1    5[COMMON] unsigned char 
  5343 ;; Return value:  Size  Location     Type
  5344 ;;                  2    0[COMMON] int 
  5345 ;; Registers used:
  5346 ;;		wreg, status,2, status,0
  5347 ;; Tracked objects:
  5348 ;;		On entry : 0/0
  5349 ;;		On exit  : 0/0
  5350 ;;		Unchanged: 0/0
  5351 ;; Data sizes:     COMMON   BANK0   BANK1   BANK3   BANK2
  5352 ;;      Params:         4       0       0       0       0
  5353 ;;      Locals:         4       0       0       0       0
  5354 ;;      Temps:          1       0       0       0       0
  5355 ;;      Totals:         9       0       0       0       0
  5356 ;;Total ram usage:        9 bytes
  5357 ;; Hardware stack levels used:    1
  5358 ;; This function calls:
  5359 ;;		Nothing
  5360 ;; This function is called by:
  5361 ;;		_temperatura
  5362 ;;		_humo
  5363 ;;		_ultrasonico
  5364 ;;		_luces
  5365 ;; This function uses a non-reentrant model
  5366 ;;
  5367                           
  5368                           
  5369                           ;psect for function ___awdiv
  5370  0B30                     ___awdiv:	
  5371  0B30                     l1794:	
  5372                           ;incstack = 0
  5373                           ; Regs used in ___awdiv: [wreg+status,2+status,0]
  5374                           
  5375  0B30  01F6               	clrf	___awdiv@sign
  5376  0B31                     l1796:	
  5377  0B31  1FF1               	btfss	___awdiv@divisor+1,7
  5378  0B32  2B34               	goto	u1491
  5379  0B33  2B35               	goto	u1490
  5380  0B34                     u1491:	
  5381  0B34  2B3C               	goto	l1802
  5382  0B35                     u1490:	
  5383  0B35                     l1798:	
  5384  0B35  09F0               	comf	___awdiv@divisor,f
  5385  0B36  09F1               	comf	___awdiv@divisor+1,f
  5386  0B37  0AF0               	incf	___awdiv@divisor,f
  5387  0B38  1903               	skipnz
  5388  0B39  0AF1               	incf	___awdiv@divisor+1,f
  5389  0B3A                     l1800:	
  5390  0B3A  01F6               	clrf	___awdiv@sign
  5391  0B3B  0AF6               	incf	___awdiv@sign,f
  5392  0B3C                     l1802:	
  5393  0B3C  1FF3               	btfss	___awdiv@dividend+1,7
  5394  0B3D  2B3F               	goto	u1501
  5395  0B3E  2B40               	goto	u1500
  5396  0B3F                     u1501:	
  5397  0B3F  2B49               	goto	l1808
  5398  0B40                     u1500:	
  5399  0B40                     l1804:	
  5400  0B40  09F2               	comf	___awdiv@dividend,f
  5401  0B41  09F3               	comf	___awdiv@dividend+1,f
  5402  0B42  0AF2               	incf	___awdiv@dividend,f
  5403  0B43  1903               	skipnz
  5404  0B44  0AF3               	incf	___awdiv@dividend+1,f
  5405  0B45                     l1806:	
  5406  0B45  3001               	movlw	1
  5407  0B46  00F4               	movwf	??___awdiv
  5408  0B47  0874               	movf	??___awdiv,w
  5409  0B48  06F6               	xorwf	___awdiv@sign,f
  5410  0B49                     l1808:	
  5411  0B49  01F7               	clrf	___awdiv@quotient
  5412  0B4A  01F8               	clrf	___awdiv@quotient+1
  5413  0B4B                     l1810:	
  5414  0B4B  0870               	movf	___awdiv@divisor,w
  5415  0B4C  0471               	iorwf	___awdiv@divisor+1,w
  5416  0B4D  1903               	btfsc	3,2
  5417  0B4E  2B50               	goto	u1511
  5418  0B4F  2B51               	goto	u1510
  5419  0B50                     u1511:	
  5420  0B50  2B88               	goto	l1830
  5421  0B51                     u1510:	
  5422  0B51                     l1812:	
  5423  0B51  01F5               	clrf	___awdiv@counter
  5424  0B52  0AF5               	incf	___awdiv@counter,f
  5425  0B53  2B5F               	goto	l1818
  5426  0B54                     l1814:	
  5427  0B54  3001               	movlw	1
  5428  0B55                     u1525:	
  5429  0B55  1003               	clrc
  5430  0B56  0DF0               	rlf	___awdiv@divisor,f
  5431  0B57  0DF1               	rlf	___awdiv@divisor+1,f
  5432  0B58  3EFF               	addlw	-1
  5433  0B59  1D03               	skipz
  5434  0B5A  2B55               	goto	u1525
  5435  0B5B                     l1816:	
  5436  0B5B  3001               	movlw	1
  5437  0B5C  00F4               	movwf	??___awdiv
  5438  0B5D  0874               	movf	??___awdiv,w
  5439  0B5E  07F5               	addwf	___awdiv@counter,f
  5440  0B5F                     l1818:	
  5441  0B5F  1FF1               	btfss	___awdiv@divisor+1,7
  5442  0B60  2B62               	goto	u1531
  5443  0B61  2B63               	goto	u1530
  5444  0B62                     u1531:	
  5445  0B62  2B54               	goto	l1814
  5446  0B63                     u1530:	
  5447  0B63                     l1820:	
  5448  0B63  3001               	movlw	1
  5449  0B64                     u1545:	
  5450  0B64  1003               	clrc
  5451  0B65  0DF7               	rlf	___awdiv@quotient,f
  5452  0B66  0DF8               	rlf	___awdiv@quotient+1,f
  5453  0B67  3EFF               	addlw	-1
  5454  0B68  1D03               	skipz
  5455  0B69  2B64               	goto	u1545
  5456  0B6A  0871               	movf	___awdiv@divisor+1,w
  5457  0B6B  0273               	subwf	___awdiv@dividend+1,w
  5458  0B6C  1D03               	skipz
  5459  0B6D  2B70               	goto	u1555
  5460  0B6E  0870               	movf	___awdiv@divisor,w
  5461  0B6F  0272               	subwf	___awdiv@dividend,w
  5462  0B70                     u1555:	
  5463  0B70  1C03               	skipc
  5464  0B71  2B73               	goto	u1551
  5465  0B72  2B74               	goto	u1550
  5466  0B73                     u1551:	
  5467  0B73  2B7B               	goto	l1826
  5468  0B74                     u1550:	
  5469  0B74                     l1822:	
  5470  0B74  0870               	movf	___awdiv@divisor,w
  5471  0B75  02F2               	subwf	___awdiv@dividend,f
  5472  0B76  0871               	movf	___awdiv@divisor+1,w
  5473  0B77  1C03               	skipc
  5474  0B78  03F3               	decf	___awdiv@dividend+1,f
  5475  0B79  02F3               	subwf	___awdiv@dividend+1,f
  5476  0B7A                     l1824:	
  5477  0B7A  1477               	bsf	___awdiv@quotient,0
  5478  0B7B                     l1826:	
  5479  0B7B  3001               	movlw	1
  5480  0B7C                     u1565:	
  5481  0B7C  1003               	clrc
  5482  0B7D  0CF1               	rrf	___awdiv@divisor+1,f
  5483  0B7E  0CF0               	rrf	___awdiv@divisor,f
  5484  0B7F  3EFF               	addlw	-1
  5485  0B80  1D03               	skipz
  5486  0B81  2B7C               	goto	u1565
  5487  0B82                     l1828:	
  5488  0B82  3001               	movlw	1
  5489  0B83  02F5               	subwf	___awdiv@counter,f
  5490  0B84  1D03               	btfss	3,2
  5491  0B85  2B87               	goto	u1571
  5492  0B86  2B88               	goto	u1570
  5493  0B87                     u1571:	
  5494  0B87  2B63               	goto	l1820
  5495  0B88                     u1570:	
  5496  0B88                     l1830:	
  5497  0B88  0876               	movf	___awdiv@sign,w
  5498  0B89  1903               	btfsc	3,2
  5499  0B8A  2B8C               	goto	u1581
  5500  0B8B  2B8D               	goto	u1580
  5501  0B8C                     u1581:	
  5502  0B8C  2B92               	goto	l1834
  5503  0B8D                     u1580:	
  5504  0B8D                     l1832:	
  5505  0B8D  09F7               	comf	___awdiv@quotient,f
  5506  0B8E  09F8               	comf	___awdiv@quotient+1,f
  5507  0B8F  0AF7               	incf	___awdiv@quotient,f
  5508  0B90  1903               	skipnz
  5509  0B91  0AF8               	incf	___awdiv@quotient+1,f
  5510  0B92                     l1834:	
  5511  0B92  0878               	movf	___awdiv@quotient+1,w
  5512  0B93  00F1               	movwf	?___awdiv+1
  5513  0B94  0877               	movf	___awdiv@quotient,w
  5514  0B95  00F0               	movwf	?___awdiv
  5515  0B96                     l443:	
  5516  0B96  0008               	return
  5517  0B97                     __end_of___awdiv:	
  5518                           
  5519                           	psect	text17
  5520  09BB                     __ptext17:	
  5521 ;; *************** function _celda *****************
  5522 ;; Defined at:
  5523 ;;		line 177 in file "Carcelero.c"
  5524 ;; Parameters:    Size  Location     Type
  5525 ;;		None
  5526 ;; Auto vars:     Size  Location     Type
  5527 ;;		None
  5528 ;; Return value:  Size  Location     Type
  5529 ;;                  1    wreg      void 
  5530 ;; Registers used:
  5531 ;;		wreg, fsr0l, fsr0h, status,2, status,0, pclath, cstack
  5532 ;; Tracked objects:
  5533 ;;		On entry : 0/0
  5534 ;;		On exit  : 0/0
  5535 ;;		Unchanged: 0/0
  5536 ;; Data sizes:     COMMON   BANK0   BANK1   BANK3   BANK2
  5537 ;;      Params:         0       0       0       0       0
  5538 ;;      Locals:         0       0       0       0       0
  5539 ;;      Temps:          1       0       0       0       0
  5540 ;;      Totals:         1       0       0       0       0
  5541 ;;Total ram usage:        1 bytes
  5542 ;; Hardware stack levels used:    1
  5543 ;; Hardware stack levels required when called:    2
  5544 ;; This function calls:
  5545 ;;		_colocar
  5546 ;;		_imprimir
  5547 ;; This function is called by:
  5548 ;;		_main
  5549 ;; This function uses a non-reentrant model
  5550 ;;
  5551                           
  5552                           
  5553                           ;psect for function _celda
  5554  09BB                     _celda:	
  5555  09BB                     l2444:	
  5556                           ;incstack = 0
  5557                           ; Regs used in _celda: [wreg-fsr0h+status,2+status,0+pclath+cstack]
  5558                           
  5559                           
  5560                           ;Carcelero.c: 179:     if (grados == 0)
  5561  09BB  1283               	bcf	3,5	;RP0=0, select bank0
  5562  09BC  1303               	bcf	3,6	;RP1=0, select bank0
  5563  09BD  086D               	movf	_grados,w
  5564  09BE  1D03               	btfss	3,2
  5565  09BF  29C1               	goto	u2651
  5566  09C0  29C2               	goto	u2650
  5567  09C1                     u2651:	
  5568  09C1  29E6               	goto	l2454
  5569  09C2                     u2650:	
  5570  09C2                     l2446:	
  5571                           
  5572                           ;Carcelero.c: 180:     {;Carcelero.c: 181:         colocar(38,2);
  5573  09C2  3002               	movlw	2
  5574  09C3  00F7               	movwf	??_celda
  5575  09C4  0877               	movf	??_celda,w
  5576  09C5  00F3               	movwf	colocar@y
  5577  09C6  3026               	movlw	38
  5578  09C7  120A  158A  2085  120A  158A  	fcall	_colocar
  5579  09CC                     l2448:	
  5580                           
  5581                           ;Carcelero.c: 182:         imprimir(" ");
  5582  09CC  3010               	movlw	(low (((STR_2+5)-__stringbase)| (0+32768)))& (0+255)
  5583  09CD  120A  158A  20FE  120A  158A  	fcall	_imprimir
  5584  09D2                     l2450:	
  5585                           
  5586                           ;Carcelero.c: 184:         PORTAbits.RA1 = 0;
  5587  09D2  1283               	bcf	3,5	;RP0=0, select bank0
  5588  09D3  1303               	bcf	3,6	;RP1=0, select bank0
  5589  09D4  1085               	bcf	5,1	;volatile
  5590  09D5                     l2452:	
  5591                           
  5592                           ;Carcelero.c: 186:         colocar(39,2);
  5593  09D5  3002               	movlw	2
  5594  09D6  00F7               	movwf	??_celda
  5595  09D7  0877               	movf	??_celda,w
  5596  09D8  00F3               	movwf	colocar@y
  5597  09D9  3027               	movlw	39
  5598  09DA  120A  158A  2085  120A  158A  	fcall	_colocar
  5599                           
  5600                           ;Carcelero.c: 187:         imprimir("-");
  5601  09DF  3044               	movlw	(low ((STR_10-__stringbase)| (0+32768)))& (0+255)
  5602  09E0  120A  158A  20FE  120A  158A  	fcall	_imprimir
  5603                           
  5604                           ;Carcelero.c: 188:     }
  5605  09E5  2A0F               	goto	l193
  5606  09E6                     l2454:	
  5607  09E6  305A               	movlw	90
  5608  09E7  066D               	xorwf	_grados,w
  5609  09E8  1D03               	btfss	3,2
  5610  09E9  29EB               	goto	u2661
  5611  09EA  29EC               	goto	u2660
  5612  09EB                     u2661:	
  5613  09EB  2A0F               	goto	l193
  5614  09EC                     u2660:	
  5615  09EC                     l2456:	
  5616                           
  5617                           ;Carcelero.c: 191:     {;Carcelero.c: 192:         colocar(39,2);
  5618  09EC  3002               	movlw	2
  5619  09ED  00F7               	movwf	??_celda
  5620  09EE  0877               	movf	??_celda,w
  5621  09EF  00F3               	movwf	colocar@y
  5622  09F0  3027               	movlw	39
  5623  09F1  120A  158A  2085  120A  158A  	fcall	_colocar
  5624  09F6                     l2458:	
  5625                           
  5626                           ;Carcelero.c: 193:         imprimir(" ");
  5627  09F6  3010               	movlw	(low (((STR_2+5)-__stringbase)| (0+32768)))& (0+255)
  5628  09F7  120A  158A  20FE  120A  158A  	fcall	_imprimir
  5629  09FC                     l2460:	
  5630                           
  5631                           ;Carcelero.c: 195:         PORTAbits.RA1 = 1;
  5632  09FC  1283               	bcf	3,5	;RP0=0, select bank0
  5633  09FD  1303               	bcf	3,6	;RP1=0, select bank0
  5634  09FE  1485               	bsf	5,1	;volatile
  5635  09FF                     l2462:	
  5636                           
  5637                           ;Carcelero.c: 197:         colocar(38,2);
  5638  09FF  3002               	movlw	2
  5639  0A00  00F7               	movwf	??_celda
  5640  0A01  0877               	movf	??_celda,w
  5641  0A02  00F3               	movwf	colocar@y
  5642  0A03  3026               	movlw	38
  5643  0A04  120A  158A  2085  120A  158A  	fcall	_colocar
  5644                           
  5645                           ;Carcelero.c: 198:         imprimir("+");
  5646  0A09  3042               	movlw	(low ((STR_12-__stringbase)| (0+32768)))& (0+255)
  5647  0A0A  120A  158A  20FE  120A  158A  	fcall	_imprimir
  5648  0A0F                     l193:	
  5649  0A0F  0008               	return
  5650  0A10                     __end_of_celda:	
  5651                           
  5652                           	psect	text18
  5653  08FE                     __ptext18:	
  5654 ;; *************** function _imprimir *****************
  5655 ;; Defined at:
  5656 ;;		line 78 in file "./LCD.h"
  5657 ;; Parameters:    Size  Location     Type
  5658 ;;  texto           1    wreg     PTR const unsigned char 
  5659 ;;		 -> STR_22(3), STR_21(3), STR_20(2), STR_19(6), 
  5660 ;;		 -> STR_18(2), STR_17(5), STR_16(6), STR_15(3), 
  5661 ;;		 -> STR_14(3), STR_13(5), STR_12(2), STR_11(2), 
  5662 ;;		 -> STR_10(2), STR_9(2), STR_8(4), STR_7(3), 
  5663 ;;		 -> STR_6(3), STR_5(4), STR_4(7), STR_3(7), 
  5664 ;;		 -> STR_2(7), STR_1(7), 
  5665 ;; Auto vars:     Size  Location     Type
  5666 ;;  texto           1    4[COMMON] PTR const unsigned char 
  5667 ;;		 -> STR_22(3), STR_21(3), STR_20(2), STR_19(6), 
  5668 ;;		 -> STR_18(2), STR_17(5), STR_16(6), STR_15(3), 
  5669 ;;		 -> STR_14(3), STR_13(5), STR_12(2), STR_11(2), 
  5670 ;;		 -> STR_10(2), STR_9(2), STR_8(4), STR_7(3), 
  5671 ;;		 -> STR_6(3), STR_5(4), STR_4(7), STR_3(7), 
  5672 ;;		 -> STR_2(7), STR_1(7), 
  5673 ;;  i               2    2[COMMON] int 
  5674 ;; Return value:  Size  Location     Type
  5675 ;;                  1    wreg      void 
  5676 ;; Registers used:
  5677 ;;		wreg, fsr0l, fsr0h, status,2, status,0, pclath
  5678 ;; Tracked objects:
  5679 ;;		On entry : 0/0
  5680 ;;		On exit  : 0/0
  5681 ;;		Unchanged: 0/0
  5682 ;; Data sizes:     COMMON   BANK0   BANK1   BANK3   BANK2
  5683 ;;      Params:         0       0       0       0       0
  5684 ;;      Locals:         3       0       0       0       0
  5685 ;;      Temps:          2       0       0       0       0
  5686 ;;      Totals:         5       0       0       0       0
  5687 ;;Total ram usage:        5 bytes
  5688 ;; Hardware stack levels used:    2
  5689 ;; This function calls:
  5690 ;;		Nothing
  5691 ;; This function is called by:
  5692 ;;		_humo
  5693 ;;		_ultrasonico
  5694 ;;		_luces
  5695 ;;		_celda
  5696 ;;		_main
  5697 ;; This function uses a non-reentrant model
  5698 ;;
  5699                           
  5700                           
  5701                           ;psect for function _imprimir
  5702  08FE                     _imprimir:	
  5703                           
  5704                           ;incstack = 0
  5705                           ; Regs used in _imprimir: [wreg-fsr0h+status,2+status,0+pclath]
  5706                           ;imprimir@texto stored from wreg
  5707  08FE  00F4               	movwf	imprimir@texto
  5708  08FF                     l1750:	
  5709                           
  5710                           ;./LCD.h: 78: void imprimir(const char *texto);./LCD.h: 79: {;./LCD.h: 80:     for(int i
      +                           = 0; texto[i] != '\0'; i++)
  5711  08FF  01F2               	clrf	imprimir@i
  5712  0900  01F3               	clrf	imprimir@i+1
  5713  0901  2921               	goto	l95
  5714  0902                     l96:	
  5715                           
  5716                           ;./LCD.h: 81:     {;./LCD.h: 82:         PORTDbits.RD6 = 1;
  5717  0902  1283               	bcf	3,5	;RP0=0, select bank0
  5718  0903  1303               	bcf	3,6	;RP1=0, select bank0
  5719  0904  1708               	bsf	8,6	;volatile
  5720  0905                     l1752:	
  5721                           
  5722                           ;./LCD.h: 83:         PORTB = texto[i];
  5723  0905  0872               	movf	imprimir@i,w
  5724  0906  0774               	addwf	imprimir@texto,w
  5725  0907  0084               	movwf	4
  5726  0908  120A  158A  2000  120A  158A  	fcall	stringdir
  5727  090D  0086               	movwf	6	;volatile
  5728  090E                     l1754:	
  5729                           
  5730                           ;./LCD.h: 84:         PORTDbits.RD7 = 1;
  5731  090E  1788               	bsf	8,7	;volatile
  5732  090F                     l1756:	
  5733                           
  5734                           ;./LCD.h: 85:         _delay((unsigned long)((2)*(4000000/4000.0)));
  5735  090F  3003               	movlw	3
  5736  0910  00F1               	movwf	??_imprimir+1
  5737  0911  3097               	movlw	151
  5738  0912  00F0               	movwf	??_imprimir
  5739  0913                     u2837:	
  5740  0913  0BF0               	decfsz	??_imprimir,f
  5741  0914  2913               	goto	u2837
  5742  0915  0BF1               	decfsz	??_imprimir+1,f
  5743  0916  2913               	goto	u2837
  5744  0917  2918               	nop2
  5745  0918                     l1758:	
  5746                           
  5747                           ;./LCD.h: 86:         PORTDbits.RD7 = 0;
  5748  0918  1283               	bcf	3,5	;RP0=0, select bank0
  5749  0919  1303               	bcf	3,6	;RP1=0, select bank0
  5750  091A  1388               	bcf	8,7	;volatile
  5751  091B                     l1760:	
  5752                           
  5753                           ;./LCD.h: 87:     }
  5754  091B  3001               	movlw	1
  5755  091C  07F2               	addwf	imprimir@i,f
  5756  091D  1803               	skipnc
  5757  091E  0AF3               	incf	imprimir@i+1,f
  5758  091F  3000               	movlw	0
  5759  0920  07F3               	addwf	imprimir@i+1,f
  5760  0921                     l95:	
  5761  0921  0872               	movf	imprimir@i,w
  5762  0922  0774               	addwf	imprimir@texto,w
  5763  0923  0084               	movwf	4
  5764  0924  120A  158A  2000  120A  158A  	fcall	stringdir
  5765  0929  3A00               	xorlw	0
  5766  092A  1D03               	skipz
  5767  092B  292D               	goto	u1411
  5768  092C  292E               	goto	u1410
  5769  092D                     u1411:	
  5770  092D  2902               	goto	l96
  5771  092E                     u1410:	
  5772  092E                     l98:	
  5773  092E  0008               	return
  5774  092F                     __end_of_imprimir:	
  5775                           
  5776                           	psect	text19
  5777  0885                     __ptext19:	
  5778 ;; *************** function _colocar *****************
  5779 ;; Defined at:
  5780 ;;		line 62 in file "./LCD.h"
  5781 ;; Parameters:    Size  Location     Type
  5782 ;;  x               1    wreg     const unsigned char 
  5783 ;;  y               1    3[COMMON] const unsigned char 
  5784 ;; Auto vars:     Size  Location     Type
  5785 ;;  x               1    5[COMMON] const unsigned char 
  5786 ;;  temp            1    6[COMMON] unsigned char 
  5787 ;; Return value:  Size  Location     Type
  5788 ;;                  1    wreg      void 
  5789 ;; Registers used:
  5790 ;;		wreg, status,2, status,0, pclath, cstack
  5791 ;; Tracked objects:
  5792 ;;		On entry : 0/0
  5793 ;;		On exit  : 0/0
  5794 ;;		Unchanged: 0/0
  5795 ;; Data sizes:     COMMON   BANK0   BANK1   BANK3   BANK2
  5796 ;;      Params:         1       0       0       0       0
  5797 ;;      Locals:         2       0       0       0       0
  5798 ;;      Temps:          1       0       0       0       0
  5799 ;;      Totals:         4       0       0       0       0
  5800 ;;Total ram usage:        4 bytes
  5801 ;; Hardware stack levels used:    1
  5802 ;; Hardware stack levels required when called:    1
  5803 ;; This function calls:
  5804 ;;		_comando
  5805 ;; This function is called by:
  5806 ;;		_temperatura
  5807 ;;		_humo
  5808 ;;		_ultrasonico
  5809 ;;		_luces
  5810 ;;		_celda
  5811 ;;		_main
  5812 ;; This function uses a non-reentrant model
  5813 ;;
  5814                           
  5815                           
  5816                           ;psect for function _colocar
  5817  0885                     _colocar:	
  5818                           
  5819                           ;incstack = 0
  5820                           ; Regs used in _colocar: [wreg+status,2+status,0+pclath+cstack]
  5821                           ;colocar@x stored from wreg
  5822  0885  00F5               	movwf	colocar@x
  5823  0886                     l1738:	
  5824                           
  5825                           ;./LCD.h: 62: void colocar(const char x,const char y);./LCD.h: 63: {;./LCD.h: 64:     ch
      +                          ar temp;;./LCD.h: 66:     if (y == 1)
  5826  0886  0373               	decf	colocar@y,w
  5827  0887  1D03               	btfss	3,2
  5828  0888  288A               	goto	u1391
  5829  0889  288B               	goto	u1390
  5830  088A                     u1391:	
  5831  088A  2897               	goto	l1744
  5832  088B                     u1390:	
  5833  088B                     l1740:	
  5834                           
  5835                           ;./LCD.h: 67:     {;./LCD.h: 68:         temp = 0x80 + x - 1;
  5836  088B  0875               	movf	colocar@x,w
  5837  088C  3E7F               	addlw	127
  5838  088D  00F4               	movwf	??_colocar
  5839  088E  0874               	movf	??_colocar,w
  5840  088F  00F6               	movwf	colocar@temp
  5841  0890                     l1742:	
  5842                           
  5843                           ;./LCD.h: 69:         comando(temp);
  5844  0890  0876               	movf	colocar@temp,w
  5845  0891  160A  118A  27EC  120A  158A  	fcall	_comando
  5846                           
  5847                           ;./LCD.h: 70:     }
  5848  0896  28A8               	goto	l92
  5849  0897                     l1744:	
  5850  0897  3002               	movlw	2
  5851  0898  0673               	xorwf	colocar@y,w
  5852  0899  1D03               	btfss	3,2
  5853  089A  289C               	goto	u1401
  5854  089B  289D               	goto	u1400
  5855  089C                     u1401:	
  5856  089C  28A8               	goto	l92
  5857  089D                     u1400:	
  5858  089D                     l1746:	
  5859                           
  5860                           ;./LCD.h: 72:     {;./LCD.h: 73:         temp = 0xC0 + x - 1;
  5861  089D  0875               	movf	colocar@x,w
  5862  089E  3EBF               	addlw	191
  5863  089F  00F4               	movwf	??_colocar
  5864  08A0  0874               	movf	??_colocar,w
  5865  08A1  00F6               	movwf	colocar@temp
  5866  08A2                     l1748:	
  5867                           
  5868                           ;./LCD.h: 74:         comando(temp);
  5869  08A2  0876               	movf	colocar@temp,w
  5870  08A3  160A  118A  27EC  120A  158A  	fcall	_comando
  5871  08A8                     l92:	
  5872  08A8  0008               	return
  5873  08A9                     __end_of_colocar:	
  5874                           
  5875                           	psect	text20
  5876  17D9                     __ptext20:	
  5877 ;; *************** function _borrarv *****************
  5878 ;; Defined at:
  5879 ;;		line 54 in file "./LCD.h"
  5880 ;; Parameters:    Size  Location     Type
  5881 ;;		None
  5882 ;; Auto vars:     Size  Location     Type
  5883 ;;		None
  5884 ;; Return value:  Size  Location     Type
  5885 ;;                  1    wreg      void 
  5886 ;; Registers used:
  5887 ;;		wreg, status,2, status,0, pclath, cstack
  5888 ;; Tracked objects:
  5889 ;;		On entry : 0/0
  5890 ;;		On exit  : 0/0
  5891 ;;		Unchanged: 0/0
  5892 ;; Data sizes:     COMMON   BANK0   BANK1   BANK3   BANK2
  5893 ;;      Params:         0       0       0       0       0
  5894 ;;      Locals:         0       0       0       0       0
  5895 ;;      Temps:          0       0       0       0       0
  5896 ;;      Totals:         0       0       0       0       0
  5897 ;;Total ram usage:        0 bytes
  5898 ;; Hardware stack levels used:    1
  5899 ;; Hardware stack levels required when called:    1
  5900 ;; This function calls:
  5901 ;;		_comando
  5902 ;; This function is called by:
  5903 ;;		_main
  5904 ;; This function uses a non-reentrant model
  5905 ;;
  5906                           
  5907                           
  5908                           ;psect for function _borrarv
  5909  17D9                     _borrarv:	
  5910  17D9                     l2302:	
  5911                           ;incstack = 0
  5912                           ; Regs used in _borrarv: [wreg+status,2+status,0+pclath+cstack]
  5913                           
  5914                           
  5915                           ;./LCD.h: 56:     comando(0);
  5916  17D9  3000               	movlw	0
  5917  17DA  160A  118A  27EC  160A  118A  	fcall	_comando
  5918                           
  5919                           ;./LCD.h: 57:     comando(1);
  5920  17DF  3001               	movlw	1
  5921  17E0  160A  118A  27EC  160A  118A  	fcall	_comando
  5922                           
  5923                           ;./LCD.h: 59:     comando(0x0C);
  5924  17E5  300C               	movlw	12
  5925  17E6  160A  118A  27EC  160A  118A  	fcall	_comando
  5926  17EB                     l86:	
  5927  17EB  0008               	return
  5928  17EC                     __end_of_borrarv:	
  5929                           
  5930                           	psect	text21
  5931  17EC                     __ptext21:	
  5932 ;; *************** function _comando *****************
  5933 ;; Defined at:
  5934 ;;		line 16 in file "./LCD.h"
  5935 ;; Parameters:    Size  Location     Type
  5936 ;;  x               1    wreg     const unsigned char 
  5937 ;; Auto vars:     Size  Location     Type
  5938 ;;  x               1    2[COMMON] const unsigned char 
  5939 ;; Return value:  Size  Location     Type
  5940 ;;                  1    wreg      void 
  5941 ;; Registers used:
  5942 ;;		wreg
  5943 ;; Tracked objects:
  5944 ;;		On entry : 0/0
  5945 ;;		On exit  : 0/0
  5946 ;;		Unchanged: 0/0
  5947 ;; Data sizes:     COMMON   BANK0   BANK1   BANK3   BANK2
  5948 ;;      Params:         0       0       0       0       0
  5949 ;;      Locals:         1       0       0       0       0
  5950 ;;      Temps:          2       0       0       0       0
  5951 ;;      Totals:         3       0       0       0       0
  5952 ;;Total ram usage:        3 bytes
  5953 ;; Hardware stack levels used:    1
  5954 ;; This function calls:
  5955 ;;		Nothing
  5956 ;; This function is called by:
  5957 ;;		_iniciarLCD
  5958 ;;		_borrarv
  5959 ;;		_colocar
  5960 ;; This function uses a non-reentrant model
  5961 ;;
  5962                           
  5963                           
  5964                           ;psect for function _comando
  5965  17EC                     _comando:	
  5966                           
  5967                           ;incstack = 0
  5968                           ; Regs used in _comando: [wreg]
  5969                           ;comando@x stored from wreg
  5970  17EC  00F2               	movwf	comando@x
  5971  17ED                     l1712:	
  5972                           
  5973                           ;./LCD.h: 16: void comando(const char x);./LCD.h: 17: {;./LCD.h: 18:     PORTDbits.RD6 =
      +                           0;
  5974  17ED  1283               	bcf	3,5	;RP0=0, select bank0
  5975  17EE  1303               	bcf	3,6	;RP1=0, select bank0
  5976  17EF  1308               	bcf	8,6	;volatile
  5977  17F0                     l1714:	
  5978                           
  5979                           ;./LCD.h: 19:     PORTB = x;
  5980  17F0  0872               	movf	comando@x,w
  5981  17F1  0086               	movwf	6	;volatile
  5982  17F2                     l1716:	
  5983                           
  5984                           ;./LCD.h: 20:     PORTDbits.RD7 = 1;
  5985  17F2  1788               	bsf	8,7	;volatile
  5986                           
  5987                           ;./LCD.h: 21:     _delay((unsigned long)((4)*(4000000/4000.0)));
  5988  17F3  3006               	movlw	6
  5989  17F4  00F1               	movwf	??_comando+1
  5990  17F5  3030               	movlw	48
  5991  17F6  00F0               	movwf	??_comando
  5992  17F7                     u2847:	
  5993  17F7  0BF0               	decfsz	??_comando,f
  5994  17F8  2FF7               	goto	u2847
  5995  17F9  0BF1               	decfsz	??_comando+1,f
  5996  17FA  2FF7               	goto	u2847
  5997  17FB  0000               	nop
  5998  17FC                     l1718:	
  5999                           
  6000                           ;./LCD.h: 22:     PORTDbits.RD7 = 0;
  6001  17FC  1283               	bcf	3,5	;RP0=0, select bank0
  6002  17FD  1303               	bcf	3,6	;RP1=0, select bank0
  6003  17FE  1388               	bcf	8,7	;volatile
  6004  17FF                     l80:	
  6005  17FF  0008               	return
  6006  1800                     __end_of_comando:	
  6007                           
  6008                           	psect	text22
  6009  0008                     __ptext22:	
  6010 ;; *************** function _UARTmostrar *****************
  6011 ;; Defined at:
  6012 ;;		line 63 in file "./UART.h"
  6013 ;; Parameters:    Size  Location     Type
  6014 ;;  x               4   63[BANK0 ] void 
  6015 ;; Auto vars:     Size  Location     Type
  6016 ;;		None
  6017 ;; Return value:  Size  Location     Type
  6018 ;;                  1    wreg      void 
  6019 ;; Registers used:
  6020 ;;		wreg, status,2, status,0, pclath, cstack
  6021 ;; Tracked objects:
  6022 ;;		On entry : 0/0
  6023 ;;		On exit  : 0/0
  6024 ;;		Unchanged: 0/0
  6025 ;; Data sizes:     COMMON   BANK0   BANK1   BANK3   BANK2
  6026 ;;      Params:         0       4       0       0       0
  6027 ;;      Locals:         0       0       0       0       0
  6028 ;;      Temps:          0       0       0       0       0
  6029 ;;      Totals:         0       4       0       0       0
  6030 ;;Total ram usage:        4 bytes
  6031 ;; Hardware stack levels used:    1
  6032 ;; Hardware stack levels required when called:    1
  6033 ;; This function calls:
  6034 ;;		___fltol
  6035 ;; This function is called by:
  6036 ;;		_main
  6037 ;; This function uses a non-reentrant model
  6038 ;;
  6039                           
  6040                           
  6041                           ;psect for function _UARTmostrar
  6042  0008                     _UARTmostrar:	
  6043  0008                     l2350:	
  6044                           ;incstack = 0
  6045                           ; Regs used in _UARTmostrar: [wreg+status,2+status,0+pclath+cstack]
  6046                           
  6047  0008                     l124:	
  6048                           ;./UART.h: 66:     {;./UART.h: 68:     }
  6049                           
  6050                           
  6051                           ;./UART.h: 65:     while (TXSTAbits.TRMT == 0)
  6052  0008  1683               	bsf	3,5	;RP0=1, select bank1
  6053  0009  1303               	bcf	3,6	;RP1=0, select bank1
  6054  000A  1C98               	btfss	24,1	;volatile
  6055  000B  280D               	goto	u2601
  6056  000C  280E               	goto	u2600
  6057  000D                     u2601:	
  6058  000D  2808               	goto	l124
  6059  000E                     u2600:	
  6060  000E                     l2352:	
  6061                           
  6062                           ;./UART.h: 70:     TXREG = x;
  6063  000E  1283               	bcf	3,5	;RP0=0, select bank0
  6064  000F  1303               	bcf	3,6	;RP1=0, select bank0
  6065  0010  0862               	movf	UARTmostrar@x+3,w
  6066  0011  00D7               	movwf	___fltol@f1+3
  6067  0012  0861               	movf	UARTmostrar@x+2,w
  6068  0013  00D6               	movwf	___fltol@f1+2
  6069  0014  0860               	movf	UARTmostrar@x+1,w
  6070  0015  00D5               	movwf	___fltol@f1+1
  6071  0016  085F               	movf	UARTmostrar@x,w
  6072  0017  00D4               	movwf	___fltol@f1
  6073  0018  120A  158A  2397  120A  118A  	fcall	___fltol
  6074  001D  1283               	bcf	3,5	;RP0=0, select bank0
  6075  001E  1303               	bcf	3,6	;RP1=0, select bank0
  6076  001F  0854               	movf	?___fltol,w
  6077  0020  0099               	movwf	25	;volatile
  6078  0021                     l127:	
  6079  0021  0008               	return
  6080  0022                     __end_of_UARTmostrar:	
  6081                           
  6082                           	psect	text23
  6083  0B97                     __ptext23:	
  6084 ;; *************** function ___fltol *****************
  6085 ;; Defined at:
  6086 ;;		line 43 in file "C:\Program Files (x86)\Microchip\xc8\v2.10\pic\sources\c90\common\fltol.c"
  6087 ;; Parameters:    Size  Location     Type
  6088 ;;  f1              4   52[BANK0 ] void 
  6089 ;; Auto vars:     Size  Location     Type
  6090 ;;  exp1            1   62[BANK0 ] unsigned char 
  6091 ;;  sign1           1   61[BANK0 ] unsigned char 
  6092 ;; Return value:  Size  Location     Type
  6093 ;;                  4   52[BANK0 ] long 
  6094 ;; Registers used:
  6095 ;;		wreg, status,2, status,0
  6096 ;; Tracked objects:
  6097 ;;		On entry : 0/0
  6098 ;;		On exit  : 0/0
  6099 ;;		Unchanged: 0/0
  6100 ;; Data sizes:     COMMON   BANK0   BANK1   BANK3   BANK2
  6101 ;;      Params:         0       4       0       0       0
  6102 ;;      Locals:         0       2       0       0       0
  6103 ;;      Temps:          0       5       0       0       0
  6104 ;;      Totals:         0      11       0       0       0
  6105 ;;Total ram usage:       11 bytes
  6106 ;; Hardware stack levels used:    1
  6107 ;; This function calls:
  6108 ;;		Nothing
  6109 ;; This function is called by:
  6110 ;;		_UARTmostrar
  6111 ;;		_temperatura
  6112 ;; This function uses a non-reentrant model
  6113 ;;
  6114                           
  6115                           
  6116                           ;psect for function ___fltol
  6117  0B97                     ___fltol:	
  6118  0B97                     l1876:	
  6119                           ;incstack = 0
  6120                           ; Regs used in ___fltol: [wreg+status,2+status,0]
  6121                           
  6122  0B97  1003               	clrc
  6123  0B98  1283               	bcf	3,5	;RP0=0, select bank0
  6124  0B99  1303               	bcf	3,6	;RP1=0, select bank0
  6125  0B9A  0D56               	rlf	___fltol@f1+2,w
  6126  0B9B  0D57               	rlf	___fltol@f1+3,w
  6127  0B9C  00D8               	movwf	??___fltol
  6128  0B9D  0858               	movf	??___fltol,w
  6129  0B9E  00DE               	movwf	___fltol@exp1
  6130  0B9F  085E               	movf	___fltol@exp1,w
  6131  0BA0  1D03               	btfss	3,2
  6132  0BA1  2BA3               	goto	u1681
  6133  0BA2  2BA4               	goto	u1680
  6134  0BA3                     u1681:	
  6135  0BA3  2BAD               	goto	l1882
  6136  0BA4                     u1680:	
  6137  0BA4                     l1878:	
  6138  0BA4  3000               	movlw	0
  6139  0BA5  00D7               	movwf	?___fltol+3
  6140  0BA6  3000               	movlw	0
  6141  0BA7  00D6               	movwf	?___fltol+2
  6142  0BA8  3000               	movlw	0
  6143  0BA9  00D5               	movwf	?___fltol+1
  6144  0BAA  3000               	movlw	0
  6145  0BAB  00D4               	movwf	?___fltol
  6146  0BAC  2C12               	goto	l476
  6147  0BAD                     l1882:	
  6148  0BAD  0854               	movf	___fltol@f1,w
  6149  0BAE  00D8               	movwf	??___fltol
  6150  0BAF  0855               	movf	___fltol@f1+1,w
  6151  0BB0  00D9               	movwf	??___fltol+1
  6152  0BB1  0856               	movf	___fltol@f1+2,w
  6153  0BB2  00DA               	movwf	??___fltol+2
  6154  0BB3  0857               	movf	___fltol@f1+3,w
  6155  0BB4  00DB               	movwf	??___fltol+3
  6156  0BB5  301F               	movlw	31
  6157  0BB6                     u1695:	
  6158  0BB6  1003               	clrc
  6159  0BB7  0CDB               	rrf	??___fltol+3,f
  6160  0BB8  0CDA               	rrf	??___fltol+2,f
  6161  0BB9  0CD9               	rrf	??___fltol+1,f
  6162  0BBA  0CD8               	rrf	??___fltol,f
  6163  0BBB                     u1690:	
  6164  0BBB  3EFF               	addlw	-1
  6165  0BBC  1D03               	skipz
  6166  0BBD  2BB6               	goto	u1695
  6167  0BBE  0858               	movf	??___fltol,w
  6168  0BBF  00DC               	movwf	??___fltol+4
  6169  0BC0  085C               	movf	??___fltol+4,w
  6170  0BC1  00DD               	movwf	___fltol@sign1
  6171  0BC2                     l1884:	
  6172  0BC2  17D6               	bsf	___fltol@f1+2,7
  6173  0BC3                     l1886:	
  6174  0BC3  30FF               	movlw	255
  6175  0BC4  05D4               	andwf	___fltol@f1,f
  6176  0BC5  30FF               	movlw	255
  6177  0BC6  05D5               	andwf	___fltol@f1+1,f
  6178  0BC7  30FF               	movlw	255
  6179  0BC8  05D6               	andwf	___fltol@f1+2,f
  6180  0BC9  3000               	movlw	0
  6181  0BCA  05D7               	andwf	___fltol@f1+3,f
  6182  0BCB                     l1888:	
  6183  0BCB  3096               	movlw	150
  6184  0BCC  02DE               	subwf	___fltol@exp1,f
  6185  0BCD                     l1890:	
  6186  0BCD  1FDE               	btfss	___fltol@exp1,7
  6187  0BCE  2BD0               	goto	u1701
  6188  0BCF  2BD1               	goto	u1700
  6189  0BD0                     u1701:	
  6190  0BD0  2BEB               	goto	l1900
  6191  0BD1                     u1700:	
  6192  0BD1                     l1892:	
  6193  0BD1  085E               	movf	___fltol@exp1,w
  6194  0BD2  3A80               	xorlw	128
  6195  0BD3  3E97               	addlw	151
  6196  0BD4  1803               	skipnc
  6197  0BD5  2BD7               	goto	u1711
  6198  0BD6  2BD8               	goto	u1710
  6199  0BD7                     u1711:	
  6200  0BD7  2BD9               	goto	l1898
  6201  0BD8                     u1710:	
  6202  0BD8  2BA4               	goto	l1878
  6203  0BD9                     l1898:	
  6204  0BD9  3001               	movlw	1
  6205  0BDA                     u1725:	
  6206  0BDA  1003               	clrc
  6207  0BDB  0CD7               	rrf	___fltol@f1+3,f
  6208  0BDC  0CD6               	rrf	___fltol@f1+2,f
  6209  0BDD  0CD5               	rrf	___fltol@f1+1,f
  6210  0BDE  0CD4               	rrf	___fltol@f1,f
  6211  0BDF  3EFF               	addlw	-1
  6212  0BE0  1D03               	skipz
  6213  0BE1  2BDA               	goto	u1725
  6214  0BE2  3001               	movlw	1
  6215  0BE3  00D8               	movwf	??___fltol
  6216  0BE4  0858               	movf	??___fltol,w
  6217  0BE5  07DE               	addwf	___fltol@exp1,f
  6218  0BE6  1D03               	btfss	3,2
  6219  0BE7  2BE9               	goto	u1731
  6220  0BE8  2BEA               	goto	u1730
  6221  0BE9                     u1731:	
  6222  0BE9  2BD9               	goto	l1898
  6223  0BEA                     u1730:	
  6224  0BEA  2C02               	goto	l1908
  6225  0BEB                     l1900:	
  6226  0BEB  3020               	movlw	32
  6227  0BEC  025E               	subwf	___fltol@exp1,w
  6228  0BED  1C03               	skipc
  6229  0BEE  2BF0               	goto	u1741
  6230  0BEF  2BF1               	goto	u1740
  6231  0BF0                     u1741:	
  6232  0BF0  2BFD               	goto	l483
  6233  0BF1                     u1740:	
  6234  0BF1  2BA4               	goto	l1878
  6235  0BF2                     l1906:	
  6236  0BF2  3001               	movlw	1
  6237  0BF3  00D8               	movwf	??___fltol
  6238  0BF4                     u1755:	
  6239  0BF4  1003               	clrc
  6240  0BF5  0DD4               	rlf	___fltol@f1,f
  6241  0BF6  0DD5               	rlf	___fltol@f1+1,f
  6242  0BF7  0DD6               	rlf	___fltol@f1+2,f
  6243  0BF8  0DD7               	rlf	___fltol@f1+3,f
  6244  0BF9  0BD8               	decfsz	??___fltol,f
  6245  0BFA  2BF4               	goto	u1755
  6246  0BFB  3001               	movlw	1
  6247  0BFC  02DE               	subwf	___fltol@exp1,f
  6248  0BFD                     l483:	
  6249  0BFD  085E               	movf	___fltol@exp1,w
  6250  0BFE  1D03               	btfss	3,2
  6251  0BFF  2C01               	goto	u1761
  6252  0C00  2C02               	goto	u1760
  6253  0C01                     u1761:	
  6254  0C01  2BF2               	goto	l1906
  6255  0C02                     u1760:	
  6256  0C02                     l1908:	
  6257  0C02  085D               	movf	___fltol@sign1,w
  6258  0C03  1903               	btfsc	3,2
  6259  0C04  2C06               	goto	u1771
  6260  0C05  2C07               	goto	u1770
  6261  0C06                     u1771:	
  6262  0C06  2C12               	goto	l486
  6263  0C07                     u1770:	
  6264  0C07                     l1910:	
  6265  0C07  09D4               	comf	___fltol@f1,f
  6266  0C08  09D5               	comf	___fltol@f1+1,f
  6267  0C09  09D6               	comf	___fltol@f1+2,f
  6268  0C0A  09D7               	comf	___fltol@f1+3,f
  6269  0C0B  0AD4               	incf	___fltol@f1,f
  6270  0C0C  1903               	skipnz
  6271  0C0D  0AD5               	incf	___fltol@f1+1,f
  6272  0C0E  1903               	skipnz
  6273  0C0F  0AD6               	incf	___fltol@f1+2,f
  6274  0C10  1903               	skipnz
  6275  0C11  0AD7               	incf	___fltol@f1+3,f
  6276  0C12                     l486:	
  6277  0C12                     l476:	
  6278  0C12  0008               	return
  6279  0C13                     __end_of___fltol:	
  6280                           
  6281                           	psect	text24
  6282  17AC                     __ptext24:	
  6283 ;; *************** function _I2C_Master_Write *****************
  6284 ;; Defined at:
  6285 ;;		line 65 in file "./I2Cmaestro.h"
  6286 ;; Parameters:    Size  Location     Type
  6287 ;;  d               2    0[COMMON] unsigned int 
  6288 ;; Auto vars:     Size  Location     Type
  6289 ;;		None
  6290 ;; Return value:  Size  Location     Type
  6291 ;;                  1    wreg      void 
  6292 ;; Registers used:
  6293 ;;		wreg, status,2, status,0, pclath, cstack
  6294 ;; Tracked objects:
  6295 ;;		On entry : 0/0
  6296 ;;		On exit  : 0/0
  6297 ;;		Unchanged: 0/0
  6298 ;; Data sizes:     COMMON   BANK0   BANK1   BANK3   BANK2
  6299 ;;      Params:         2       0       0       0       0
  6300 ;;      Locals:         0       0       0       0       0
  6301 ;;      Temps:          0       0       0       0       0
  6302 ;;      Totals:         2       0       0       0       0
  6303 ;;Total ram usage:        2 bytes
  6304 ;; Hardware stack levels used:    1
  6305 ;; Hardware stack levels required when called:    1
  6306 ;; This function calls:
  6307 ;;		_I2C_Master_Wait
  6308 ;; This function is called by:
  6309 ;;		_main
  6310 ;; This function uses a non-reentrant model
  6311 ;;
  6312                           
  6313                           
  6314                           ;psect for function _I2C_Master_Write
  6315  17AC                     _I2C_Master_Write:	
  6316  17AC                     l2258:	
  6317                           ;incstack = 0
  6318                           ; Regs used in _I2C_Master_Write: [wreg+status,2+status,0+pclath+cstack]
  6319                           
  6320                           
  6321                           ;./I2Cmaestro.h: 65: void I2C_Master_Write(unsigned d);./I2Cmaestro.h: 66: {;./I2Cmaestr
      +                          o.h: 67:     I2C_Master_Wait();
  6322  17AC  120A  158A  204B  160A  118A  	fcall	_I2C_Master_Wait
  6323  17B1                     l2260:	
  6324                           
  6325                           ;./I2Cmaestro.h: 68:     SSPBUF = d;
  6326  17B1  0870               	movf	I2C_Master_Write@d,w
  6327  17B2  1283               	bcf	3,5	;RP0=0, select bank0
  6328  17B3  1303               	bcf	3,6	;RP1=0, select bank0
  6329  17B4  0093               	movwf	19	;volatile
  6330  17B5                     l72:	
  6331  17B5  0008               	return
  6332  17B6                     __end_of_I2C_Master_Write:	
  6333                           
  6334                           	psect	text25
  6335  17A3                     __ptext25:	
  6336 ;; *************** function _I2C_Master_Stop *****************
  6337 ;; Defined at:
  6338 ;;		line 55 in file "./I2Cmaestro.h"
  6339 ;; Parameters:    Size  Location     Type
  6340 ;;		None
  6341 ;; Auto vars:     Size  Location     Type
  6342 ;;		None
  6343 ;; Return value:  Size  Location     Type
  6344 ;;                  1    wreg      void 
  6345 ;; Registers used:
  6346 ;;		wreg, status,2, status,0, pclath, cstack
  6347 ;; Tracked objects:
  6348 ;;		On entry : 0/0
  6349 ;;		On exit  : 0/0
  6350 ;;		Unchanged: 0/0
  6351 ;; Data sizes:     COMMON   BANK0   BANK1   BANK3   BANK2
  6352 ;;      Params:         0       0       0       0       0
  6353 ;;      Locals:         0       0       0       0       0
  6354 ;;      Temps:          0       0       0       0       0
  6355 ;;      Totals:         0       0       0       0       0
  6356 ;;Total ram usage:        0 bytes
  6357 ;; Hardware stack levels used:    1
  6358 ;; Hardware stack levels required when called:    1
  6359 ;; This function calls:
  6360 ;;		_I2C_Master_Wait
  6361 ;; This function is called by:
  6362 ;;		_main
  6363 ;; This function uses a non-reentrant model
  6364 ;;
  6365                           
  6366                           
  6367                           ;psect for function _I2C_Master_Stop
  6368  17A3                     _I2C_Master_Stop:	
  6369  17A3                     l2254:	
  6370                           ;incstack = 0
  6371                           ; Regs used in _I2C_Master_Stop: [wreg+status,2+status,0+pclath+cstack]
  6372                           
  6373                           
  6374                           ;./I2Cmaestro.h: 57:     I2C_Master_Wait();
  6375  17A3  120A  158A  204B  160A  118A  	fcall	_I2C_Master_Wait
  6376  17A8                     l2256:	
  6377                           
  6378                           ;./I2Cmaestro.h: 58:     SSPCON2bits.PEN = 1;
  6379  17A8  1683               	bsf	3,5	;RP0=1, select bank1
  6380  17A9  1303               	bcf	3,6	;RP1=0, select bank1
  6381  17AA  1511               	bsf	17,2	;volatile
  6382  17AB                     l69:	
  6383  17AB  0008               	return
  6384  17AC                     __end_of_I2C_Master_Stop:	
  6385                           
  6386                           	psect	text26
  6387  179A                     __ptext26:	
  6388 ;; *************** function _I2C_Master_Start *****************
  6389 ;; Defined at:
  6390 ;;		line 39 in file "./I2Cmaestro.h"
  6391 ;; Parameters:    Size  Location     Type
  6392 ;;		None
  6393 ;; Auto vars:     Size  Location     Type
  6394 ;;		None
  6395 ;; Return value:  Size  Location     Type
  6396 ;;                  1    wreg      void 
  6397 ;; Registers used:
  6398 ;;		wreg, status,2, status,0, pclath, cstack
  6399 ;; Tracked objects:
  6400 ;;		On entry : 0/0
  6401 ;;		On exit  : 0/0
  6402 ;;		Unchanged: 0/0
  6403 ;; Data sizes:     COMMON   BANK0   BANK1   BANK3   BANK2
  6404 ;;      Params:         0       0       0       0       0
  6405 ;;      Locals:         0       0       0       0       0
  6406 ;;      Temps:          0       0       0       0       0
  6407 ;;      Totals:         0       0       0       0       0
  6408 ;;Total ram usage:        0 bytes
  6409 ;; Hardware stack levels used:    1
  6410 ;; Hardware stack levels required when called:    1
  6411 ;; This function calls:
  6412 ;;		_I2C_Master_Wait
  6413 ;; This function is called by:
  6414 ;;		_main
  6415 ;; This function uses a non-reentrant model
  6416 ;;
  6417                           
  6418                           
  6419                           ;psect for function _I2C_Master_Start
  6420  179A                     _I2C_Master_Start:	
  6421  179A                     l2250:	
  6422                           ;incstack = 0
  6423                           ; Regs used in _I2C_Master_Start: [wreg+status,2+status,0+pclath+cstack]
  6424                           
  6425                           
  6426                           ;./I2Cmaestro.h: 41:     I2C_Master_Wait();
  6427  179A  120A  158A  204B  160A  118A  	fcall	_I2C_Master_Wait
  6428  179F                     l2252:	
  6429                           
  6430                           ;./I2Cmaestro.h: 42:     SSPCON2bits.SEN = 1;
  6431  179F  1683               	bsf	3,5	;RP0=1, select bank1
  6432  17A0  1303               	bcf	3,6	;RP1=0, select bank1
  6433  17A1  1411               	bsf	17,0	;volatile
  6434  17A2                     l66:	
  6435  17A2  0008               	return
  6436  17A3                     __end_of_I2C_Master_Start:	
  6437                           
  6438                           	psect	text27
  6439  08D0                     __ptext27:	
  6440 ;; *************** function _I2C_Master_Read *****************
  6441 ;; Defined at:
  6442 ;;		line 74 in file "./I2Cmaestro.h"
  6443 ;; Parameters:    Size  Location     Type
  6444 ;;  a               2    0[COMMON] unsigned short 
  6445 ;; Auto vars:     Size  Location     Type
  6446 ;;  temp            2    4[COMMON] unsigned short 
  6447 ;; Return value:  Size  Location     Type
  6448 ;;                  2    0[COMMON] unsigned short 
  6449 ;; Registers used:
  6450 ;;		wreg, status,2, status,0, pclath, cstack
  6451 ;; Tracked objects:
  6452 ;;		On entry : 0/0
  6453 ;;		On exit  : 0/0
  6454 ;;		Unchanged: 0/0
  6455 ;; Data sizes:     COMMON   BANK0   BANK1   BANK3   BANK2
  6456 ;;      Params:         2       0       0       0       0
  6457 ;;      Locals:         2       0       0       0       0
  6458 ;;      Temps:          2       0       0       0       0
  6459 ;;      Totals:         6       0       0       0       0
  6460 ;;Total ram usage:        6 bytes
  6461 ;; Hardware stack levels used:    1
  6462 ;; Hardware stack levels required when called:    1
  6463 ;; This function calls:
  6464 ;;		_I2C_Master_Wait
  6465 ;; This function is called by:
  6466 ;;		_main
  6467 ;; This function uses a non-reentrant model
  6468 ;;
  6469                           
  6470                           
  6471                           ;psect for function _I2C_Master_Read
  6472  08D0                     _I2C_Master_Read:	
  6473  08D0                     l2262:	
  6474                           ;incstack = 0
  6475                           ; Regs used in _I2C_Master_Read: [wreg+status,2+status,0+pclath+cstack]
  6476                           
  6477                           
  6478                           ;./I2Cmaestro.h: 74: unsigned short I2C_Master_Read(unsigned short a);./I2Cmaestro.h: 75
      +                          : {;./I2Cmaestro.h: 76:     unsigned short temp;;./I2Cmaestro.h: 77:     I2C_Master_Wait
      +                          ();
  6479  08D0  120A  158A  204B  120A  158A  	fcall	_I2C_Master_Wait
  6480  08D5                     l2264:	
  6481                           
  6482                           ;./I2Cmaestro.h: 78:     SSPCON2bits.RCEN = 1;
  6483  08D5  1683               	bsf	3,5	;RP0=1, select bank1
  6484  08D6  1303               	bcf	3,6	;RP1=0, select bank1
  6485  08D7  1591               	bsf	17,3	;volatile
  6486                           
  6487                           ;./I2Cmaestro.h: 79:     I2C_Master_Wait();
  6488  08D8  120A  158A  204B  120A  158A  	fcall	_I2C_Master_Wait
  6489  08DD                     l2266:	
  6490                           
  6491                           ;./I2Cmaestro.h: 80:     temp = SSPBUF;
  6492  08DD  1283               	bcf	3,5	;RP0=0, select bank0
  6493  08DE  1303               	bcf	3,6	;RP1=0, select bank0
  6494  08DF  0813               	movf	19,w	;volatile
  6495  08E0  00F2               	movwf	??_I2C_Master_Read
  6496  08E1  01F3               	clrf	??_I2C_Master_Read+1
  6497  08E2  0872               	movf	??_I2C_Master_Read,w
  6498  08E3  00F4               	movwf	I2C_Master_Read@temp
  6499  08E4  0873               	movf	??_I2C_Master_Read+1,w
  6500  08E5  00F5               	movwf	I2C_Master_Read@temp+1
  6501  08E6                     l2268:	
  6502                           
  6503                           ;./I2Cmaestro.h: 81:     I2C_Master_Wait();
  6504  08E6  120A  158A  204B  120A  158A  	fcall	_I2C_Master_Wait
  6505  08EB                     l2270:	
  6506                           
  6507                           ;./I2Cmaestro.h: 82:     if(a == 1){
  6508  08EB  0370               	decf	I2C_Master_Read@a,w
  6509  08EC  0471               	iorwf	I2C_Master_Read@a+1,w
  6510  08ED  1D03               	btfss	3,2
  6511  08EE  28F0               	goto	u2591
  6512  08EF  28F1               	goto	u2590
  6513  08F0                     u2591:	
  6514  08F0  28F5               	goto	l75
  6515  08F1                     u2590:	
  6516  08F1                     l2272:	
  6517                           
  6518                           ;./I2Cmaestro.h: 83:         SSPCON2bits.ACKDT = 0;
  6519  08F1  1683               	bsf	3,5	;RP0=1, select bank1
  6520  08F2  1303               	bcf	3,6	;RP1=0, select bank1
  6521  08F3  1291               	bcf	17,5	;volatile
  6522                           
  6523                           ;./I2Cmaestro.h: 84:     }else{
  6524  08F4  28F8               	goto	l76
  6525  08F5                     l75:	
  6526                           
  6527                           ;./I2Cmaestro.h: 85:         SSPCON2bits.ACKDT = 1;
  6528  08F5  1683               	bsf	3,5	;RP0=1, select bank1
  6529  08F6  1303               	bcf	3,6	;RP1=0, select bank1
  6530  08F7  1691               	bsf	17,5	;volatile
  6531  08F8                     l76:	
  6532                           ;./I2Cmaestro.h: 86:     }
  6533                           
  6534                           
  6535                           ;./I2Cmaestro.h: 87:     SSPCON2bits.ACKEN = 1;
  6536  08F8  1611               	bsf	17,4	;volatile
  6537  08F9                     l2274:	
  6538                           
  6539                           ;./I2Cmaestro.h: 88:     return temp;
  6540  08F9  0875               	movf	I2C_Master_Read@temp+1,w
  6541  08FA  00F1               	movwf	?_I2C_Master_Read+1
  6542  08FB  0874               	movf	I2C_Master_Read@temp,w
  6543  08FC  00F0               	movwf	?_I2C_Master_Read
  6544  08FD                     l77:	
  6545  08FD  0008               	return
  6546  08FE                     __end_of_I2C_Master_Read:	
  6547                           
  6548                           	psect	text28
  6549  084B                     __ptext28:	
  6550 ;; *************** function _I2C_Master_Wait *****************
  6551 ;; Defined at:
  6552 ;;		line 32 in file "./I2Cmaestro.h"
  6553 ;; Parameters:    Size  Location     Type
  6554 ;;		None
  6555 ;; Auto vars:     Size  Location     Type
  6556 ;;		None
  6557 ;; Return value:  Size  Location     Type
  6558 ;;                  1    wreg      void 
  6559 ;; Registers used:
  6560 ;;		wreg, status,2
  6561 ;; Tracked objects:
  6562 ;;		On entry : 0/0
  6563 ;;		On exit  : 0/0
  6564 ;;		Unchanged: 0/0
  6565 ;; Data sizes:     COMMON   BANK0   BANK1   BANK3   BANK2
  6566 ;;      Params:         0       0       0       0       0
  6567 ;;      Locals:         0       0       0       0       0
  6568 ;;      Temps:          0       0       0       0       0
  6569 ;;      Totals:         0       0       0       0       0
  6570 ;;Total ram usage:        0 bytes
  6571 ;; Hardware stack levels used:    1
  6572 ;; This function calls:
  6573 ;;		Nothing
  6574 ;; This function is called by:
  6575 ;;		_I2C_Master_Start
  6576 ;;		_I2C_Master_Stop
  6577 ;;		_I2C_Master_Write
  6578 ;;		_I2C_Master_Read
  6579 ;; This function uses a non-reentrant model
  6580 ;;
  6581                           
  6582                           
  6583                           ;psect for function _I2C_Master_Wait
  6584  084B                     _I2C_Master_Wait:	
  6585  084B                     l1734:	
  6586                           ;incstack = 0
  6587                           ; Regs used in _I2C_Master_Wait: [wreg+status,2]
  6588                           
  6589  084B                     l60:	
  6590                           ;./I2Cmaestro.h: 34:     while ((SSPSTAT & 0x04) || (SSPCON2 & 0x1F));
  6591                           
  6592  084B  1683               	bsf	3,5	;RP0=1, select bank1
  6593  084C  1303               	bcf	3,6	;RP1=0, select bank1
  6594  084D  1914               	btfsc	20,2	;volatile
  6595  084E  2850               	goto	u1371
  6596  084F  2851               	goto	u1370
  6597  0850                     u1371:	
  6598  0850  284B               	goto	l60
  6599  0851                     u1370:	
  6600  0851                     l1736:	
  6601  0851  0811               	movf	17,w	;volatile
  6602  0852  391F               	andlw	31
  6603  0853  1D03               	btfss	3,2
  6604  0854  2856               	goto	u1381
  6605  0855  2857               	goto	u1380
  6606  0856                     u1381:	
  6607  0856  284B               	goto	l60
  6608  0857                     u1380:	
  6609  0857                     l63:	
  6610  0857  0008               	return
  6611  0858                     __end_of_I2C_Master_Wait:	
  6612                           
  6613                           	psect	text29
  6614  092F                     __ptext29:	
  6615 ;; *************** function _I2C_Master_Init *****************
  6616 ;; Defined at:
  6617 ;;		line 16 in file "./I2Cmaestro.h"
  6618 ;; Parameters:    Size  Location     Type
  6619 ;;  c               4    0[BANK0 ] const unsigned long 
  6620 ;; Auto vars:     Size  Location     Type
  6621 ;;		None
  6622 ;; Return value:  Size  Location     Type
  6623 ;;                  1    wreg      void 
  6624 ;; Registers used:
  6625 ;;		wreg, status,2, status,0, pclath, cstack
  6626 ;; Tracked objects:
  6627 ;;		On entry : 0/0
  6628 ;;		On exit  : 0/0
  6629 ;;		Unchanged: 0/0
  6630 ;; Data sizes:     COMMON   BANK0   BANK1   BANK3   BANK2
  6631 ;;      Params:         0       4       0       0       0
  6632 ;;      Locals:         0       0       0       0       0
  6633 ;;      Temps:          0       4       0       0       0
  6634 ;;      Totals:         0       8       0       0       0
  6635 ;;Total ram usage:        8 bytes
  6636 ;; Hardware stack levels used:    1
  6637 ;; Hardware stack levels required when called:    1
  6638 ;; This function calls:
  6639 ;;		___lldiv
  6640 ;; This function is called by:
  6641 ;;		_main
  6642 ;; This function uses a non-reentrant model
  6643 ;;
  6644                           
  6645                           
  6646                           ;psect for function _I2C_Master_Init
  6647  092F                     _I2C_Master_Init:	
  6648  092F                     l2238:	
  6649                           ;incstack = 0
  6650                           ; Regs used in _I2C_Master_Init: [wreg+status,2+status,0+pclath+cstack]
  6651                           
  6652                           
  6653                           ;./I2Cmaestro.h: 16: void I2C_Master_Init(const unsigned long c);./I2Cmaestro.h: 17: {;.
      +                          /I2Cmaestro.h: 18:     SSPCON = 0b00101000;
  6654  092F  3028               	movlw	40
  6655  0930  1283               	bcf	3,5	;RP0=0, select bank0
  6656  0931  1303               	bcf	3,6	;RP1=0, select bank0
  6657  0932  0094               	movwf	20	;volatile
  6658  0933                     l2240:	
  6659                           
  6660                           ;./I2Cmaestro.h: 19:     SSPCON2 = 0;
  6661  0933  1683               	bsf	3,5	;RP0=1, select bank1
  6662  0934  1303               	bcf	3,6	;RP1=0, select bank1
  6663  0935  0191               	clrf	17	;volatile
  6664  0936                     l2242:	
  6665                           
  6666                           ;./I2Cmaestro.h: 20:     SSPADD = (4000000/(4*c))-1;
  6667  0936  1283               	bcf	3,5	;RP0=0, select bank0
  6668  0937  1303               	bcf	3,6	;RP1=0, select bank0
  6669  0938  0820               	movf	I2C_Master_Init@c,w
  6670  0939  00A4               	movwf	??_I2C_Master_Init
  6671  093A  0821               	movf	I2C_Master_Init@c+1,w
  6672  093B  00A5               	movwf	??_I2C_Master_Init+1
  6673  093C  0822               	movf	I2C_Master_Init@c+2,w
  6674  093D  00A6               	movwf	??_I2C_Master_Init+2
  6675  093E  0823               	movf	I2C_Master_Init@c+3,w
  6676  093F  00A7               	movwf	??_I2C_Master_Init+3
  6677  0940  3002               	movlw	2
  6678  0941                     u2585:	
  6679  0941  1003               	clrc
  6680  0942  0DA4               	rlf	??_I2C_Master_Init,f
  6681  0943  0DA5               	rlf	??_I2C_Master_Init+1,f
  6682  0944  0DA6               	rlf	??_I2C_Master_Init+2,f
  6683  0945  0DA7               	rlf	??_I2C_Master_Init+3,f
  6684  0946                     u2580:	
  6685  0946  3EFF               	addlw	-1
  6686  0947  1D03               	skipz
  6687  0948  2941               	goto	u2585
  6688  0949  0827               	movf	??_I2C_Master_Init+3,w
  6689  094A  00F3               	movwf	___lldiv@divisor+3
  6690  094B  0826               	movf	??_I2C_Master_Init+2,w
  6691  094C  00F2               	movwf	___lldiv@divisor+2
  6692  094D  0825               	movf	??_I2C_Master_Init+1,w
  6693  094E  00F1               	movwf	___lldiv@divisor+1
  6694  094F  0824               	movf	??_I2C_Master_Init,w
  6695  0950  00F0               	movwf	___lldiv@divisor
  6696  0951  3000               	movlw	0
  6697  0952  00F7               	movwf	___lldiv@dividend+3
  6698  0953  303D               	movlw	61
  6699  0954  00F6               	movwf	___lldiv@dividend+2
  6700  0955  3009               	movlw	9
  6701  0956  00F5               	movwf	___lldiv@dividend+1
  6702  0957  3000               	movlw	0
  6703  0958  00F4               	movwf	___lldiv@dividend
  6704  0959  120A  158A  22CA  120A  158A  	fcall	___lldiv
  6705  095E  0870               	movf	?___lldiv,w
  6706  095F  3EFF               	addlw	255
  6707  0960  1683               	bsf	3,5	;RP0=1, select bank1
  6708  0961  1303               	bcf	3,6	;RP1=0, select bank1
  6709  0962  0093               	movwf	19	;volatile
  6710  0963                     l2244:	
  6711                           
  6712                           ;./I2Cmaestro.h: 21:     SSPSTAT = 0;
  6713  0963  0194               	clrf	20	;volatile
  6714  0964                     l2246:	
  6715                           
  6716                           ;./I2Cmaestro.h: 22:     TRISCbits.TRISC3 = 1;
  6717  0964  1587               	bsf	7,3	;volatile
  6718  0965                     l2248:	
  6719                           
  6720                           ;./I2Cmaestro.h: 23:     TRISCbits.TRISC4 = 1;
  6721  0965  1607               	bsf	7,4	;volatile
  6722  0966                     l57:	
  6723  0966  0008               	return
  6724  0967                     __end_of_I2C_Master_Init:	
  6725                           
  6726                           	psect	text30
  6727  0ACA                     __ptext30:	
  6728 ;; *************** function ___lldiv *****************
  6729 ;; Defined at:
  6730 ;;		line 5 in file "C:\Program Files (x86)\Microchip\xc8\v2.10\pic\sources\c90\common\__lldiv.c"
  6731 ;; Parameters:    Size  Location     Type
  6732 ;;  divisor         4    0[COMMON] unsigned long 
  6733 ;;  dividend        4    4[COMMON] unsigned long 
  6734 ;; Auto vars:     Size  Location     Type
  6735 ;;  quotient        4    9[COMMON] unsigned long 
  6736 ;;  counter         1   13[COMMON] unsigned char 
  6737 ;; Return value:  Size  Location     Type
  6738 ;;                  4    0[COMMON] unsigned long 
  6739 ;; Registers used:
  6740 ;;		wreg, status,2, status,0
  6741 ;; Tracked objects:
  6742 ;;		On entry : 0/0
  6743 ;;		On exit  : 0/0
  6744 ;;		Unchanged: 0/0
  6745 ;; Data sizes:     COMMON   BANK0   BANK1   BANK3   BANK2
  6746 ;;      Params:         8       0       0       0       0
  6747 ;;      Locals:         5       0       0       0       0
  6748 ;;      Temps:          1       0       0       0       0
  6749 ;;      Totals:        14       0       0       0       0
  6750 ;;Total ram usage:       14 bytes
  6751 ;; Hardware stack levels used:    1
  6752 ;; This function calls:
  6753 ;;		Nothing
  6754 ;; This function is called by:
  6755 ;;		_I2C_Master_Init
  6756 ;; This function uses a non-reentrant model
  6757 ;;
  6758                           
  6759                           
  6760                           ;psect for function ___lldiv
  6761  0ACA                     ___lldiv:	
  6762  0ACA                     l1770:	
  6763                           ;incstack = 0
  6764                           ; Regs used in ___lldiv: [wreg+status,2+status,0]
  6765                           
  6766  0ACA  3000               	movlw	0
  6767  0ACB  00FC               	movwf	___lldiv@quotient+3
  6768  0ACC  3000               	movlw	0
  6769  0ACD  00FB               	movwf	___lldiv@quotient+2
  6770  0ACE  3000               	movlw	0
  6771  0ACF  00FA               	movwf	___lldiv@quotient+1
  6772  0AD0  3000               	movlw	0
  6773  0AD1  00F9               	movwf	___lldiv@quotient
  6774  0AD2  0873               	movf	___lldiv@divisor+3,w
  6775  0AD3  0472               	iorwf	___lldiv@divisor+2,w
  6776  0AD4  0471               	iorwf	___lldiv@divisor+1,w
  6777  0AD5  0470               	iorwf	___lldiv@divisor,w
  6778  0AD6  1903               	skipnz
  6779  0AD7  2AD9               	goto	u1421
  6780  0AD8  2ADA               	goto	u1420
  6781  0AD9                     u1421:	
  6782  0AD9  2B27               	goto	l1790
  6783  0ADA                     u1420:	
  6784  0ADA                     l1772:	
  6785  0ADA  01FD               	clrf	___lldiv@counter
  6786  0ADB  0AFD               	incf	___lldiv@counter,f
  6787  0ADC  2AEA               	goto	l1776
  6788  0ADD                     l1774:	
  6789  0ADD  3001               	movlw	1
  6790  0ADE  00F8               	movwf	??___lldiv
  6791  0ADF                     u1435:	
  6792  0ADF  1003               	clrc
  6793  0AE0  0DF0               	rlf	___lldiv@divisor,f
  6794  0AE1  0DF1               	rlf	___lldiv@divisor+1,f
  6795  0AE2  0DF2               	rlf	___lldiv@divisor+2,f
  6796  0AE3  0DF3               	rlf	___lldiv@divisor+3,f
  6797  0AE4  0BF8               	decfsz	??___lldiv,f
  6798  0AE5  2ADF               	goto	u1435
  6799  0AE6  3001               	movlw	1
  6800  0AE7  00F8               	movwf	??___lldiv
  6801  0AE8  0878               	movf	??___lldiv,w
  6802  0AE9  07FD               	addwf	___lldiv@counter,f
  6803  0AEA                     l1776:	
  6804  0AEA  1FF3               	btfss	___lldiv@divisor+3,7
  6805  0AEB  2AED               	goto	u1441
  6806  0AEC  2AEE               	goto	u1440
  6807  0AED                     u1441:	
  6808  0AED  2ADD               	goto	l1774
  6809  0AEE                     u1440:	
  6810  0AEE                     l1778:	
  6811  0AEE  3001               	movlw	1
  6812  0AEF  00F8               	movwf	??___lldiv
  6813  0AF0                     u1455:	
  6814  0AF0  1003               	clrc
  6815  0AF1  0DF9               	rlf	___lldiv@quotient,f
  6816  0AF2  0DFA               	rlf	___lldiv@quotient+1,f
  6817  0AF3  0DFB               	rlf	___lldiv@quotient+2,f
  6818  0AF4  0DFC               	rlf	___lldiv@quotient+3,f
  6819  0AF5  0BF8               	decfsz	??___lldiv,f
  6820  0AF6  2AF0               	goto	u1455
  6821  0AF7                     l1780:	
  6822  0AF7  0873               	movf	___lldiv@divisor+3,w
  6823  0AF8  0277               	subwf	___lldiv@dividend+3,w
  6824  0AF9  1D03               	skipz
  6825  0AFA  2B05               	goto	u1465
  6826  0AFB  0872               	movf	___lldiv@divisor+2,w
  6827  0AFC  0276               	subwf	___lldiv@dividend+2,w
  6828  0AFD  1D03               	skipz
  6829  0AFE  2B05               	goto	u1465
  6830  0AFF  0871               	movf	___lldiv@divisor+1,w
  6831  0B00  0275               	subwf	___lldiv@dividend+1,w
  6832  0B01  1D03               	skipz
  6833  0B02  2B05               	goto	u1465
  6834  0B03  0870               	movf	___lldiv@divisor,w
  6835  0B04  0274               	subwf	___lldiv@dividend,w
  6836  0B05                     u1465:	
  6837  0B05  1C03               	skipc
  6838  0B06  2B08               	goto	u1461
  6839  0B07  2B09               	goto	u1460
  6840  0B08                     u1461:	
  6841  0B08  2B18               	goto	l1786
  6842  0B09                     u1460:	
  6843  0B09                     l1782:	
  6844  0B09  0870               	movf	___lldiv@divisor,w
  6845  0B0A  02F4               	subwf	___lldiv@dividend,f
  6846  0B0B  0871               	movf	___lldiv@divisor+1,w
  6847  0B0C  1C03               	skipc
  6848  0B0D  0F71               	incfsz	___lldiv@divisor+1,w
  6849  0B0E  02F5               	subwf	___lldiv@dividend+1,f
  6850  0B0F  0872               	movf	___lldiv@divisor+2,w
  6851  0B10  1C03               	skipc
  6852  0B11  0F72               	incfsz	___lldiv@divisor+2,w
  6853  0B12  02F6               	subwf	___lldiv@dividend+2,f
  6854  0B13  0873               	movf	___lldiv@divisor+3,w
  6855  0B14  1C03               	skipc
  6856  0B15  0F73               	incfsz	___lldiv@divisor+3,w
  6857  0B16  02F7               	subwf	___lldiv@dividend+3,f
  6858  0B17                     l1784:	
  6859  0B17  1479               	bsf	___lldiv@quotient,0
  6860  0B18                     l1786:	
  6861  0B18  3001               	movlw	1
  6862  0B19                     u1475:	
  6863  0B19  1003               	clrc
  6864  0B1A  0CF3               	rrf	___lldiv@divisor+3,f
  6865  0B1B  0CF2               	rrf	___lldiv@divisor+2,f
  6866  0B1C  0CF1               	rrf	___lldiv@divisor+1,f
  6867  0B1D  0CF0               	rrf	___lldiv@divisor,f
  6868  0B1E  3EFF               	addlw	-1
  6869  0B1F  1D03               	skipz
  6870  0B20  2B19               	goto	u1475
  6871  0B21                     l1788:	
  6872  0B21  3001               	movlw	1
  6873  0B22  02FD               	subwf	___lldiv@counter,f
  6874  0B23  1D03               	btfss	3,2
  6875  0B24  2B26               	goto	u1481
  6876  0B25  2B27               	goto	u1480
  6877  0B26                     u1481:	
  6878  0B26  2AEE               	goto	l1778
  6879  0B27                     u1480:	
  6880  0B27                     l1790:	
  6881  0B27  087C               	movf	___lldiv@quotient+3,w
  6882  0B28  00F3               	movwf	?___lldiv+3
  6883  0B29  087B               	movf	___lldiv@quotient+2,w
  6884  0B2A  00F2               	movwf	?___lldiv+2
  6885  0B2B  087A               	movf	___lldiv@quotient+1,w
  6886  0B2C  00F1               	movwf	?___lldiv+1
  6887  0B2D  0879               	movf	___lldiv@quotient,w
  6888  0B2E  00F0               	movwf	?___lldiv
  6889  0B2F                     l326:	
  6890  0B2F  0008               	return
  6891  0B30                     __end_of___lldiv:	
  6892  007E                     btemp	set	126	;btemp
  6893  007E                     wtemp0	set	126


Data Sizes:
    Strings     59
    Constant    10
    Data        0
    BSS         32
    Persistent  0
    Stack       0

Auto Spaces:
    Space          Size  Autos    Used
    COMMON           14     14      14
    BANK0            80     72      80
    BANK1            80      0      24
    BANK3            96      0       0
    BANK2            96      0       0

Pointer List with Targets:

    imprimir@texto	PTR const unsigned char  size(1) Largest target is 7
		 -> STR_22(CODE[3]), STR_21(CODE[3]), STR_20(CODE[2]), STR_19(CODE[6]), 
		 -> STR_18(CODE[2]), STR_17(CODE[5]), STR_16(CODE[6]), STR_15(CODE[3]), 
		 -> STR_14(CODE[3]), STR_13(CODE[5]), STR_12(CODE[2]), STR_11(CODE[2]), 
		 -> STR_10(CODE[2]), STR_9(CODE[2]), STR_8(CODE[4]), STR_7(CODE[3]), 
		 -> STR_6(CODE[3]), STR_5(CODE[4]), STR_4(CODE[7]), STR_3(CODE[7]), 
		 -> STR_2(CODE[7]), STR_1(CODE[7]), 


Critical Paths under _main in COMMON

    _main->___xxtofl
    _ultrasonico->___awdiv
    _temperatura->___xxtofl
    ___flmul->___xxtofl
    ___fldiv->___xxtofl
    _luces->___awdiv
    _iniciarLCD->_comando
    _humo->___awdiv
    _celda->_colocar
    _colocar->_comando
    _borrarv->_comando
    _UARTmostrar->___xxtofl
    ___fltol->___xxtofl
    _I2C_Master_Init->___lldiv

Critical Paths under _main in BANK0

    _main->_temperatura
    _temperatura->___fltol
    ___fldiv->___flmul
    _UARTmostrar->___fltol
    ___fltol->___fldiv

Critical Paths under _main in BANK1

    None.

Critical Paths under _main in BANK3

    None.

Critical Paths under _main in BANK2

    None.

Call Graph Tables:

 ---------------------------------------------------------------------------------
 (Depth) Function   	        Calls       Base Space   Used Autos Params    Refs
 ---------------------------------------------------------------------------------
 (0) _main                                                 4     4      0   37569
                                             68 BANK0      4     4      0
                    _I2C_Master_Init
                    _I2C_Master_Read
                   _I2C_Master_Start
                    _I2C_Master_Stop
                   _I2C_Master_Write
                        _UARTmostrar
                           ___xxtofl
                            _borrarv
                              _celda
                            _colocar
                               _humo
                           _imprimir
                         _iniciarLCD
                         _iniciarOSC
                        _iniciarUART
                              _luces
                            _mostrar
                              _setup
                              _shift
                        _temperatura
                        _ultrasonico
 ---------------------------------------------------------------------------------
 (1) _ultrasonico                                          2     2      0    5922
                                              9 COMMON     2     2      0
                            ___awdiv
                            ___awmod
                            _colocar
                           _imprimir
                            _mostrar
 ---------------------------------------------------------------------------------
 (1) _temperatura                                          5     5      0    9955
                                             63 BANK0      5     5      0
                            ___awdiv
                            ___awmod
                            ___fldiv
                            ___flmul
                            ___fltol
                           ___xxtofl
                            _colocar
                            _mostrar
 ---------------------------------------------------------------------------------
 (2) ___xxtofl                                            14    10      4     778
                                              0 COMMON    14    10      4
 ---------------------------------------------------------------------------------
 (2) ___flmul                                             26    18      8    2417
                                              0 BANK0     26    18      8
                          __Umul8_16
                           ___xxtofl (ARG)
 ---------------------------------------------------------------------------------
 (3) __Umul8_16                                            9     7      2     799
                                              0 COMMON     9     7      2
 ---------------------------------------------------------------------------------
 (2) ___fldiv                                             26    18      8    1273
                                             26 BANK0     26    18      8
                            ___flmul (ARG)
                           ___xxtofl (ARG)
 ---------------------------------------------------------------------------------
 (1) _shift                                                1     1      0       0
                                              0 COMMON     1     1      0
 ---------------------------------------------------------------------------------
 (1) _setup                                                0     0      0       0
 ---------------------------------------------------------------------------------
 (1) _luces                                                2     2      0    5922
                                              9 COMMON     2     2      0
                            ___awdiv
                            ___awmod
                            _colocar
                           _imprimir
                            _mostrar
 ---------------------------------------------------------------------------------
 (1) _iniciarUART                                          0     0      0       0
 ---------------------------------------------------------------------------------
 (1) _iniciarOSC                                           3     3      0      22
                                              0 COMMON     3     3      0
 ---------------------------------------------------------------------------------
 (1) _iniciarLCD                                           2     2      0      22
                                              3 COMMON     2     2      0
                            _comando
 ---------------------------------------------------------------------------------
 (1) _humo                                                 2     2      0    5922
                                              9 COMMON     2     2      0
                            ___awdiv
                            ___awmod
                            _colocar
                           _imprimir
                            _mostrar
 ---------------------------------------------------------------------------------
 (2) _mostrar                                              3     3      0      22
                                              0 COMMON     3     3      0
 ---------------------------------------------------------------------------------
 (2) ___awmod                                              7     3      4    1208
                                              0 COMMON     7     3      4
 ---------------------------------------------------------------------------------
 (2) ___awdiv                                              9     5      4    1212
                                              0 COMMON     9     5      4
 ---------------------------------------------------------------------------------
 (1) _celda                                                1     1      0    3480
                                              7 COMMON     1     1      0
                            _colocar
                           _imprimir
 ---------------------------------------------------------------------------------
 (3) _imprimir                                             5     5      0     816
                                              0 COMMON     5     5      0
 ---------------------------------------------------------------------------------
 (2) _colocar                                              4     3      1    2664
                                              3 COMMON     4     3      1
                            _comando
 ---------------------------------------------------------------------------------
 (1) _borrarv                                              0     0      0      22
                            _comando
 ---------------------------------------------------------------------------------
 (3) _comando                                              3     3      0      22
                                              0 COMMON     3     3      0
 ---------------------------------------------------------------------------------
 (1) _UARTmostrar                                          4     0      4     783
                                             63 BANK0      4     0      4
                            ___fltol
                           ___xxtofl (ARG)
 ---------------------------------------------------------------------------------
 (2) ___fltol                                             11     7      4     381
                                             52 BANK0     11     7      4
                            ___fldiv (ARG)
                            ___flmul (ARG)
                           ___xxtofl (ARG)
 ---------------------------------------------------------------------------------
 (1) _I2C_Master_Write                                     2     0      2     402
                                              0 COMMON     2     0      2
                    _I2C_Master_Wait
 ---------------------------------------------------------------------------------
 (1) _I2C_Master_Stop                                      0     0      0       0
                    _I2C_Master_Wait
 ---------------------------------------------------------------------------------
 (1) _I2C_Master_Start                                     0     0      0       0
                    _I2C_Master_Wait
 ---------------------------------------------------------------------------------
 (1) _I2C_Master_Read                                      6     4      2     425
                                              0 COMMON     6     4      2
                    _I2C_Master_Wait
 ---------------------------------------------------------------------------------
 (2) _I2C_Master_Wait                                      0     0      0       0
 ---------------------------------------------------------------------------------
 (1) _I2C_Master_Init                                      8     4      4     412
                                              0 BANK0      8     4      4
                            ___lldiv
 ---------------------------------------------------------------------------------
 (2) ___lldiv                                             14     6      8     314
                                              0 COMMON    14     6      8
 ---------------------------------------------------------------------------------
 Estimated maximum stack depth 3
 ---------------------------------------------------------------------------------

 Call Graph Graphs:

 _main (ROOT)
   _I2C_Master_Init
     ___lldiv
   _I2C_Master_Read
     _I2C_Master_Wait
   _I2C_Master_Start
     _I2C_Master_Wait
   _I2C_Master_Stop
     _I2C_Master_Wait
   _I2C_Master_Write
     _I2C_Master_Wait
   _UARTmostrar
     ___fltol
       ___fldiv (ARG)
         ___flmul (ARG)
           __Umul8_16
           ___xxtofl (ARG)
         ___xxtofl (ARG)
       ___flmul (ARG)
         __Umul8_16
         ___xxtofl (ARG)
       ___xxtofl (ARG)
     ___xxtofl (ARG)
   ___xxtofl
   _borrarv
     _comando
   _celda
     _colocar
       _comando
     _imprimir
   _colocar
     _comando
   _humo
     ___awdiv
     ___awmod
     _colocar
       _comando
     _imprimir
     _mostrar
   _imprimir
   _iniciarLCD
     _comando
   _iniciarOSC
   _iniciarUART
   _luces
     ___awdiv
     ___awmod
     _colocar
       _comando
     _imprimir
     _mostrar
   _mostrar
   _setup
   _shift
   _temperatura
     ___awdiv
     ___awmod
     ___fldiv
       ___flmul (ARG)
         __Umul8_16
         ___xxtofl (ARG)
       ___xxtofl (ARG)
     ___flmul
       __Umul8_16
       ___xxtofl (ARG)
     ___fltol
       ___fldiv (ARG)
         ___flmul (ARG)
           __Umul8_16
           ___xxtofl (ARG)
         ___xxtofl (ARG)
       ___flmul (ARG)
         __Umul8_16
         ___xxtofl (ARG)
       ___xxtofl (ARG)
     ___xxtofl
     _colocar
       _comando
     _mostrar
   _ultrasonico
     ___awdiv
     ___awmod
     _colocar
       _comando
     _imprimir
     _mostrar

 Address spaces:
Name               Size   Autos  Total    Cost      Usage
BITCOMMON            E      0       0       0        0.0%
EEDATA             100      0       0       0        0.0%
NULL                 0      0       0       0        0.0%
CODE                 0      0       0       0        0.0%
COMMON               E      E       E       1      100.0%
BITSFR0              0      0       0       1        0.0%
SFR0                 0      0       0       1        0.0%
BITSFR1              0      0       0       2        0.0%
SFR1                 0      0       0       2        0.0%
STACK                0      0       0       2        0.0%
ABS                  0      0      76       3        0.0%
BITBANK0            50      0       0       4        0.0%
BITSFR3              0      0       0       4        0.0%
SFR3                 0      0       0       4        0.0%
BANK0               50     48      50       5      100.0%
BITSFR2              0      0       0       5        0.0%
SFR2                 0      0       0       5        0.0%
BITBANK1            50      0       0       6        0.0%
BANK1               50      0      18       7       30.0%
BITBANK3            60      0       0       8        0.0%
BANK3               60      0       0       9        0.0%
BITBANK2            60      0       0      10        0.0%
BANK2               60      0       0      11        0.0%
DATA                 0      0      76      12        0.0%


Microchip Technology PIC Macro Assembler V2.10 build 88905656 
Symbol Table                                                                                   Wed Apr 08 19:33:15 2020

             ___fldiv@aexp 0053               ___fldiv@bexp 0052                          _a 0806  
                        _t 00A4                          _w 00AC                          _y 00B6  
                        _z 00B0                          pc 0002               ___fldiv@sign 004B  
              __CFG_CP$OFF 0000                         l60 084B                         l63 0857  
                       l72 17B5                         l80 17FF                         l57 0966  
                       l66 17A2                         l75 08F5                         l83 09BA  
                       l76 08F8                         l92 08A8                         l77 08FD  
                       l69 17AB                         l86 17EB                         l95 0921  
                       l96 0902                         l98 092E               ___awdiv@sign 0076  
                       _t1 00A2                         _t2 00A0                         _w1 00AA  
                       _w2 00A8                         _w3 00A6                         _y1 0068  
                       _y2 00B4                         _y3 00B2                         _z1 00AE  
                       fsr 0004        __Umul8_16@word_mpld 0076                        l101 086B  
                      l104 17C6                        l121 0884                        l124 0008  
                      l109 0AC8                        l118 0AC9                        l127 0021  
                      l170 0E21                        l172 0E22                        l326 0B2F  
                      l182 0CA0                        l193 0A0F                        l177 00EC  
                      l443 0B96                        l187 01DB                        l196 17D8  
                      l456 0A68                        l641 0FFF                        l730 0D24  
                      l483 0BFD                        l731 0D30                        l723 0D08  
                      l476 0C12                        l661 0FE3                        l717 0CC3  
                      l486 0C12                        l663 0FF3                        l655 0F71  
                      l639 0E7F                        l719 0D5A                        l736 08BD  
                      l738 08CF                        l691 07DE                        l685 0756  
                      l679 07EA               __CFG_CPD$OFF 0000                        _Luz 006E  
                      fsr0 0004                        indf 0000               ___awmod@sign 0076  
             ___flmul@aexp 0032               ___flmul@bexp 0033                colocar@temp 0076  
             ___flmul@sign 002D               ___flmul@temp 0038               ___flmul@prod 0034  
             __CFG_LVP$OFF 0000               ___fltol@exp1 005E                       l2000 0F34  
                     l2002 0F3D                       l2010 0F51                       l2012 0F55  
                     l2004 0F41                       l2100 0507                       l2030 0FA6  
                     l2022 0F76                       l2014 0F56                       l2006 0F42  
                     l2110 0595                       l2102 0514                       l2040 0FDA  
                     l2024 0F7B                       l2032 0FAC                       l2016 0F5A  
                     l2008 0F4B                       l2120 05F7                       l2112 05B1  
                     l2104 0531                       l2200 0CBB                       l2042 0FE2  
                     l2034 0FB9                       l2026 0F89                       l2018 0F6E  
                     l2130 0687                       l2122 0614                       l2114 05BA  
                     l2106 054D                       l2210 0CE6                       l2202 0CCB  
                     l2300 09B4                       l2044 0FE9                       l2036 0FC7  
                     l2028 0F8D                       l2140 0719                       l2132 06B4  
                     l2124 062D                       l2116 05CA                       l2108 0579  
                     l2060 049B                       l2220 0D1A                       l2212 0CED  
                     l2302 17D9                       l2310 17C3                       l2046 0FED  
                     l2038 0FD6                       l2142 0722                       l2150 0736  
                     l2134 06DA                       l2126 064A                       l2118 05E7  
                     l2070 04B0                       l2062 049C                       l2054 048A  
                     l2230 0D4D                       l2222 0D1E                       l2214 0CF1  
                     l2206 0CD4                       l2240 0933                       l2320 0A7E  
                     l2312 0A6A                       l2304 17B6                       l2048 0FEF  
                     l2152 073A                       l2144 0726                       l2136 0702  
                     l2128 0677                       l2080 04C8                       l2072 04B8  
                     l2064 04A1                       l2056 0491                       l2232 0D51  
                     l2224 0D28                       l2216 0CFF                       l2208 0CD9  
                     l2400 0C5A                       l2242 0936                       l2250 179A  
                     l2330 0A9F                       l2322 0A85                       l2314 0A6B  
                     l2306 17B9                       l2170 078B                       l2162 075B  
                     l2154 073B                       l2146 0727                       l2138 070B  
                     l2090 04E4                       l2082 04CD                       l2074 04BD  
                     l2066 04A6                       l2058 0497                       l2234 0D52  
                     l2226 0D32                       l2218 0D0F                       l2410 0C8D  
                     l2402 0C71                       l2244 0963                       l2252 179F  
                     l2260 17B1                       l2324 0A8C                       l2316 0A70  
                     l2340 086C                       l2420 015E                       l2308 17BB  
                     l2180 07C2                       l2164 0760                       l2172 0791  
                     l2156 073F                       l2148 0730                       l2092 04E9  
                     l2084 04D2                       l2076 04C3                       l2068 04AE  
                     l2228 0D48                       l2412 0C97                       l2404 0C79  
                     l2500 0245                       l2246 0964                       l2238 092F  
                     l2270 08EB                       l2262 08D0                       l2254 17A3  
                     l2350 0008                       l2326 0A93                       l2318 0A77  
                     l2334 0AA6                       l2342 0879                       l2430 01A2  
                     l2422 0177                       l2190 07E2                       l2182 07C4  
                     l2174 079E                       l2166 076E                       l2158 0753  
                     l2094 04EE                       l2086 04DA                       l2078 04C7  
                     l2414 0C9D                       l2406 0C83                       l2510 026F  
                     l2502 024B                       l2248 0965                       l2272 08F1  
                     l2264 08D5                       l2256 17A8                       l2352 000E  
                     l1712 17ED                       l1800 0B3A                       l2280 096A  
                     l2328 0A9A                       l2344 087D                       l2440 01C8  
                     l2432 01A8                       l2424 0181                       l2416 00ED  
                     l1720 08AA                       l2184 07D2                       l2176 07A9  
                     l2168 0772                       l2088 04DC                       l2360 0DE1  
                     l2408 0C89                       l2600 042A                       l2520 0297  
                     l2512 0277                       l2504 0257                       l2274 08F9  
                     l2266 08DD                       l2258 17AC                       l1714 17F0  
                     l2450 09D2                       l1810 0B4B                       l1802 0B3C  
                     l2290 0998                       l2282 0970                       l2346 087E  
                     l2442 01D8                       l2434 01B6                       l2426 0190  
                     l2418 014F                       l1730 08CB                       l1722 08AC  
                     l2186 07D6                       l2178 07B8                       l2098 04F7  
                     l2194 0CA2                       l2370 0E1F                       l2362 0DED  
                     l2354 0D5B                       l2602 044E                       l2530 02B9  
                     l2522 029D                       l2514 027D                       l2506 025D  
                     l2268 08E6                       l1900 0BEB                       l1716 17F2  
                     l1740 088B                       l2460 09FC                       l2452 09D5  
                     l2444 09BB                       l1820 0B63                       l1812 0B51  
                     l1804 0B40                       l2380 00AE                       l2372 0022  
                     l2292 099C                       l2284 0979                       l2348 0881  
                     l2428 0198                       l2436 01BA                       l1724 08B3  
                     l2188 07D7                       l2196 0CA7                       l2364 0DFC  
                     l2356 0DB3                       l2604 0458                       l2540 02E4  
                     l2532 02C7                       l2524 02A5                       l2516 0289  
                     l2508 0269                       l1734 084B                       l1910 0C07  
                     l1718 17FC                       l1742 0890                       l1750 08FF  
                     l2462 09FF                       l2446 09C2                       l2454 09E6  
                     l1822 0B74                       l1814 0B54                       l1830 0B88  
                     l1806 0B45                       l2390 00D9                       l2382 00BD  
                     l2374 0080                       l2294 09A2                       l2286 0988  
                     l2278 0967                       l2438 01C2                       l1726 08B7  
                     l2198 0CAB                       l2366 0E08                       l2358 0DC9  
                     l2606 047C                       l2550 030F                       l2542 02F2  
                     l2534 02CC                       l2526 02AB                       l2518 028F  
                     l2470 01DC                       l1736 0851                       l1744 0897  
                     l1760 091B                       l1752 0905                       l2456 09EC  
                     l2448 09CC                       l1832 0B8D                       l1824 0B7A  
                     l1816 0B5B                       l1808 0B49                       l1840 0A11  
                     l2392 00E3                       l2384 00C5                       l2376 008F  
                     l2296 09A8                       l2288 098E                       l2464 17C7  
                     l1920 0E35                       l1912 0E23                       l1728 08C6  
                     l2368 0E17                       l2560 033A                       l2552 031D  
                     l2544 02F7                       l2536 02D6                       l2528 02B0  
                     l2480 01F6                       l2472 01E2                       l1770 0ACA  
                     l1906 0BF2                       l1746 089D                       l1738 0886  
                     l1754 090E                       l2458 09F6                       l1834 0B92  
                     l1826 0B7B                       l1818 0B5F                       l1850 0A25  
                     l1842 0A15                       l1762 0859                       l2394 00E9  
                     l2386 00CF                       l2378 00A6                       l2298 09AE  
                     l2466 17D0                       l1922 0E3A                       l1930 0E4A  
                     l1914 0E2A                       l2570 0365                       l2562 0348  
                     l2554 0322                       l2546 0301                       l2538 02DB  
                     l2490 0221                       l2482 0205                       l2474 01E7  
                     l1780 0AF7                       l1772 0ADA                       l1908 0C02  
                     l1748 08A2                       l1756 090F                       l1828 0B82  
                     l1860 0A3D                       l1852 0A2B                       l1844 0A1A  
                     l1764 085C                       l2388 00D5                       l2628 0AAE  
                     l2468 17D1                       l1940 0E62                       l1932 0E52  
                     l1924 0E3F                       l1916 0E30                       l2396 0C13  
                     l2580 038C                       l2572 0373                       l2564 034D  
                     l2556 032C                       l2548 0306                       l2492 0229  
                     l2484 020D                       l2476 01EC                       l1782 0B09  
                     l1774 0ADD                       l1790 0B27                       l1758 0918  
                     l1870 0A5F                       l1862 0A47                       l1854 0A2E  
                     l1846 0A1C                       l1838 0A10                       l1766 085E  
                     l1942 0E67                       l1950 0E77                       l1934 0E57  
                     l1926 0E47                       l1918 0E34                       l2398 0C4B  
                     l2590 03C4                       l2582 0391                       l2574 0378  
                     l2566 0357                       l2558 0331                       l2494 022F  
                     l2486 0213                       l2478 01F1                       l1784 0B17  
                     l1776 0AEA                       l1872 0A64                       l1864 0A4D  
                     l1856 0A35                       l1848 0A20                       l1768 0868  
                     l1952 0E87                       l1960 0EA0                       l1944 0E6C  
                     l1936 0E5D                       l1928 0E48                       l2592 03CE  
                     l2584 0396                       l2576 0382                       l2568 035C  
                     l2496 0237                       l2488 021B                       l1786 0B18  
                     l1778 0AEE                       l1890 0BCD                       l1882 0BAD  
                     l1794 0B30                       l1866 0A54                       l1858 0A39  
                     l1970 0EC8                       l1962 0EA5                       l1954 0E93  
                     l1946 0E74                       l1938 0E61                       l2594 03F2  
                     l2586 039B                       l2578 0387                       l2498 023D  
                     l1788 0B21                       l1892 0BD1                       l1884 0BC2  
                     l1876 0B97                       l1796 0B31                       l1868 0A5A  
                     l1980 0EF1                       l1972 0ED0                       l1956 0E97  
                     l1948 0E75                       l2596 03FC                       l2588 03A0  
                     l1886 0BC3                       l1878 0BA4                       l1798 0B35  
                     l1990 0F12                       l1982 0EF5                       l1974 0ED8  
                     l1966 0EAE                       l2598 0420                       l1888 0BCB  
                     l1992 0F20                       l1984 0EF6                       l1976 0EDA  
                     l1968 0EC0                       l1898 0BD9                       l1978 0EDF  
                     l1986 0EFF                       l1994 0F24                       l1996 0F2A  
                     l1988 0F11                       l1998 0F32                       STR_1 0817  
                     STR_2 0810                       STR_3 0817                       STR_4 0810  
                     STR_5 0813                       STR_6 083E                       STR_7 0814  
                     STR_8 0834                       STR_9 0815                       u2000 0F75  
                     u2001 0F74                       u2010 0F7B                       u2011 0F7A  
                     u2020 0F8D                       u2100 04C7                       u2021 0F8C  
                     u2101 04C6                       u2030 0F9C                       u2110 04CD  
                     u2111 04CC                       u1400 089D                       u2040 0FB9  
                     u2120 04D2                       u1401 089C                       u2041 0FB8  
                     u2201 05D9                       u2121 04D1                       u1410 092E  
                     u2050 0FD6                       u2202 05E0                       u2130 04E9  
                     u1411 092D                       u2051 0FD5                       u2035 0F97  
                     u2211 0606                       u2203 05E7                       u2131 04E8  
                     u1420 0ADA                       u1500 0B40                       u2060 0FED  
                     u1340 08B7                       u2212 060D                       u2140 04EE  
                     u1421 0AD9                       u1501 0B3F                       u2061 0FEC  
                     u2045 0FB5                       u1341 08B6                       u2213 0614  
                     u2141 04ED                       u1510 0B51                       u2070 049B  
                     u1511 0B50                       u2055 0FD2                       u2231 063C  
                     u2151 053F                       u2071 049A                       u1440 0AEE  
                     u1600 0A20                       u1360 08CB                       u2400 0781  
                     u2320 0726                       u2232 0643                       u2152 0546  
                     u2080 04A1                       u1441 0AED                       u1601 0A1F  
                     u1361 08CA                       u2321 0725                       u2305 0704  
                     u2241 0669                       u2233 064A                       u2225 0616  
                     u2161 055B                       u2153 054D                       u2081 04A0  
                     u1370 0851                       u1530 0B63                       u1610 0A2B  
                     u2410 079E                       u2242 0670                       u2162 0562  
                     u2090 04A6                       u1435 0ADF                       u1371 0850  
                     u1531 0B62                       u1611 0A2A                       u1355 08BE  
                     u2411 079D                       u2315 071B                       u2251 0696  
                     u2243 0677                       u2171 0587                       u2163 0569  
                     u2091 04A5                       u1460 0B09                       u1380 0857  
                     u1700 0BD1                       u2420 07B8                       u2340 073A  
                     u2260 06C0                       u2252 069D                       u2172 058E  
                     u2500 0D0E                       u1461 0B08                       u1381 0856  
                     u1701 0BD0                       u1525 0B55                       u2421 07B7  
                     u2405 077C                       u2341 0739                       u2253 06A4  
                     u2181 05A3                       u2173 0595                       u2501 0D0D  
                     u1710 0BD8                       u1390 088B                       u1550 0B74  
                     u1630 0A3D                       u2430 07D6                       u2350 073F  
                     u2182 05AA                       u1455 0AF0                       u1711 0BD7  
                     u1391 088A                       u1551 0B73                       u1631 0A3C  
                     u2431 07D5                       u2415 079A                       u2351 073E  
                     u2335 0729                       u2271 06CC                       u2183 05B1  
                     u1480 0B27                       u2600 000E                       u1640 0A47  
                     u1800 0E3F                       u2360 0753                       u2280 06E8  
                     u2272 06D3                       u2520 0D1E                       u2440 0CA7  
                     u1481 0B26                       u1465 0B05                       u2601 000D  
                     u1545 0B64                       u1641 0A46                       u1625 0A2F  
                     u1801 0E3E                       u2425 07B4                       u2361 0752  
                     u2273 06DA                       u2265 06BB                       u2521 0D1D  
                     u2441 0CA6                       u1730 0BEA                       u1570 0B88  
                     u1490 0B35                       u1810 0E61                       u2370 075A  
                     u2530 0D24                       u2450 0CAB                       u2610 0E1F  
                     u1475 0B19                       u1731 0BE9                       u1571 0B87  
                     u1555 0B70                       u1491 0B34                       u1811 0E60  
                     u2371 0759                       u2291 06F4                       u2195 05B3  
                     u2531 0D23                       u2515 0D13                       u2451 0CAA  
                     u2611 0E1E                       u1740 0BF1                       u1580 0B8D  
                     u1660 0A5A                       u2620 00C5                       u1820 0E67  
                     u2380 0760                       u2292 06FB                       u2540 0D28  
                     u2460 0CCB                       u1741 0BF0                       u1725 0BDA  
                     u1581 0B8C                       u1565 0B7C                       u1661 0A59  
                     u1645 0A43                       u2621 00C4                       u1821 0E66  
                     u2381 075F                       u2293 0702                       u2285 06E3  
                     u2541 0D27                       u2461 0CCA                       u1670 0A5F  
                     u1590 0A15                       u1910 0F11                       u1830 0E6C  
                     u2390 0772                       u2550 0D3D                       u2630 0C79  
                     u1671 0A5E                       u1655 0A4E                       u1591 0A14  
                     u1911 0F10                       u1831 0E6B                       u2391 0771  
                     u2631 0C78                       u1760 0C02                       u1680 0BA4  
                     u2640 0198                       u1920 0F2A                       u1840 0E87  
                     u2560 0D4D                       u2480 0CEC                       u1761 0C01  
                     u1681 0BA3                       u2641 0197                       u1921 0F29  
                     u1905 0EF8                       u1841 0E86                       u2561 0D4C  
                     u2481 0CEB                       u1770 0C07                       u1690 0BBB  
                     u2650 09C2                       u1930 0F32                       u1850 0EA5  
                     u2570 0D51                       u1771 0C06                       u1755 0BF4  
                     u2651 09C1                       u1931 0F31                       u1915 0F0D  
                     u1851 0EA4                       u2571 0D50                       u2555 0D38  
                     u2475 0CDE                       u2707 0353                       u2580 0946  
                     u2660 09EC                       u1860 0EDF                       u1780 0E34  
                     u2661 09EB                       u1861 0EDE                       u1781 0E33  
                     u2717 037E                       u2590 08F1                       u1950 0F41  
                     u1790 0E3A                       u2591 08F0                       u1695 0BB6  
                     u2807 0990                       u1951 0F40                       u1791 0E39  
                     u2495 0D00                       u2727 03CA                       u2585 0941  
                     u2817 099A                       u1945 0F36                       u2737 03F8  
                     u1970 0F55                       u1890 0EF5                       u2827 0863  
                     u1971 0F54                       u1891 0EF4                       u1875 0EE1  
                     u2747 0426                       u1980 0F5A                       u2837 0913  
                     u1981 0F59                       u1965 0F44                       u1885 0EEA  
                     u2757 0454                       u2677 02D2                       u1990 0F6E  
                     u2847 17F7                       u1991 0F6D                       u2767 0482  
                     u2687 02FD                       u2777 17BE                       u2697 0328  
                     u2787 0974                       u2797 0983                       _Humo 006B  
             __CFG_WRT$OFF 0000                       _Temp 006F                       _main 01DC  
                     _humo 0022                       btemp 007E               ?_iniciarUART 0070  
                     start 0000              __CFG_IESO$OFF 0000            ___fldiv@new_exp 004C  
              _ultrasonico 0C13           ?_I2C_Master_Init 0020           ?_I2C_Master_Read 0070  
         ?_I2C_Master_Wait 0070           ?_I2C_Master_Stop 0070              ___fltol@sign1 005D  
                    ?_main 0070            __end_of___fldiv 1000            __end_of___awdiv 0B97  
                    ?_humo 0070                      STR_10 0849                      STR_11 0815  
                    STR_20 0839                      STR_12 0847                      STR_21 0841  
                    STR_13 082F                      STR_22 083B                      STR_14 0838  
                    STR_15 0844                      STR_16 0824                      STR_17 082A  
            __CFG_WDTE$OFF 0000                      STR_18 083C                      STR_19 081E  
          __end_of___awmod 0A69            __end_of___flmul 07EB            __end_of___fltol 0C13  
                    _ANSEL 0188            __end_of___lldiv 0B30            ___awdiv@divisor 0070  
          ___awdiv@counter 0075                      _SPBRG 0099                      _PORTA 0005  
                    _PORTB 0006                      _PORTC 0007                      _PORTD 0008  
                    _TRISA 0085                      _TRISB 0086                      _TRISC 0087  
                    _TXREG 0019             __CFG_FCMEN$OFF 0000            __end_of_comando 1800  
          __end_of_colocar 08A9            __end_of_borrarv 17EC                      _celda 09BB  
                    _calor 006A              imprimir@texto 0074                      _luces 00ED  
                    _shift 17B6                      _setup 17C7             __CFG_BOREN$OFF 0000  
                    pclath 000A            __end_of_mostrar 086C                      status 0003  
                    wtemp0 007E             __CFG_MCLRE$OFF 0000            __initialization 07EB  
             __end_of_main 048A               __end_of_humo 00ED                     ??_main 0064  
                   ??_humo 0079          ?_I2C_Master_Start 0070          ?_I2C_Master_Write 0070  
                   ?_celda 0070         ??_I2C_Master_Start 0070         ??_I2C_Master_Write 0072  
                   ?_luces 0070           ___awdiv@dividend 0072                     ?_shift 0070  
                   ?_setup 0070                     _ANSELH 0189                     _SPBRGH 009A  
                   _SSPADD 0093                     _SSPCON 0014                     _SSPBUF 0013  
         __end_of___xxtofl 0D5B             __CFG_PWRTE$OFF 0000                  ??___fldiv 0042  
                ??___awdiv 0074                  ??___awmod 0074                  ??___flmul 0028  
                ??___fltol 0058                  ??___lldiv 0078             iniciarOSC@frec 0072  
                   _grados 006D           ___awdiv@quotient 0077            ___awmod@divisor 0070  
         __end_of_imprimir 092F            ___awmod@counter 0075                  ??_comando 0070  
                ??_colocar 0074               ?_temperatura 0070                  ??_borrarv 0073  
       __size_of__Umul8_16 0027               ?_UARTmostrar 005F                  ??_mostrar 0070  
             ___xxtofl@arg 007A               ___xxtofl@exp 0079               ___xxtofl@val 0070  
  __end_of__initialization 07FC                 ___fltol@f1 0054       __size_of_iniciarUART 0019  
           __pcstackCOMMON 0070              __end_of_celda 0A10              __end_of_luces 01DC  
            __end_of_shift 17C7              __end_of_setup 17D9                    ??_celda 0077  
                  ??_luces 0079                    ??_shift 0070                    ??_setup 0070  
               __pbssBANK0 0068                 __pbssBANK1 00A0               ?_ultrasonico 0070  
        __end_of__Umul8_16 08D0                 __pmaintext 01DC                  ?___xxtofl 0070  
                  _SSPCON2 0091                    _SSPSTAT 0094                 __stringtab 0800  
                ?_imprimir 0070                 _iniciarLCD 0967                 _iniciarOSC 0A69  
                  ___fldiv 0E23                    ___awdiv 0B30                    ___awmod 0A10  
                  ___flmul 048A                    ___fltol 0B97                    ___lldiv 0ACA  
                  __ptext1 0C13                    __ptext2 0D5B                    __ptext3 0CA1  
                  __ptext4 048A                    __ptext5 08A9                    __ptext6 0E23  
                  __ptext7 17B6                    __ptext8 17C7                    __ptext9 00ED  
                  _comando 17EC                    _colocar 0885                    _borrarv 17D9  
               ??___xxtofl 0074           ___awmod@dividend 0072       __size_of_temperatura 00C8  
 __size_of_I2C_Master_Init 0038   __size_of_I2C_Master_Read 002E   __size_of_I2C_Master_Wait 000D  
 __size_of_I2C_Master_Stop 0009                    _mostrar 0858       __size_of_UARTmostrar 001A  
                  clrloop0 1793       end_of_initialization 07FC                 ??_imprimir 0070  
__size_of_I2C_Master_Start 0009  __size_of_I2C_Master_Write 000A            ___lldiv@divisor 0070  
          ___lldiv@counter 007D                  _RCSTAbits 0018           I2C_Master_Init@c 0020  
         I2C_Master_Read@a 0070                  _PORTAbits 0005                  _PORTDbits 0008  
            ___xxtofl@sign 0078                  _TRISCbits 0087                  _TRISDbits 0088  
              ___fldiv@grs 004E                ___fldiv@rem 0047                ___flmul@grs 002E  
                _TXSTAbits 0098                ?_iniciarLCD 0070                ?_iniciarOSC 0070  
     __size_of_ultrasonico 008E                _BAUDCTLbits 0187                  _Distancia 006C  
      start_initialization 07EB          ??_I2C_Master_Init 0024          ??_I2C_Master_Read 0072  
        ??_I2C_Master_Wait 0070          ??_I2C_Master_Stop 0070              ??_iniciarUART 0070  
 __CFG_FOSC$INTRC_NOCLKOUT 0000                  __Umul8_16 08A9                  ___fldiv@a 003A  
                ___fldiv@b 003E                  ___flmul@a 0024                  ___flmul@b 0020  
                ___latbits 0002              __pcstackBANK0 0020        __size_of_iniciarLCD 0054  
      __size_of_iniciarOSC 0061          __size_of___xxtofl 00BA                  __end_of_a 0810  
         _I2C_Master_Start 179A           _I2C_Master_Write 17AC          __size_of_imprimir 0031  
                 ?___fldiv 003A                   ?___awdiv 0070                   ?___awmod 0070  
                 ?___flmul 0020                   ?___fltol 0054        __end_of_iniciarUART 0885  
                 ?___lldiv 0070                 ?__Umul8_16 0070                  __pstrings 0800  
                 ?_comando 0070                   ?_colocar 0073                   ?_borrarv 0070  
                 ?_mostrar 0070             __size_of_celda 0055             __size_of_luces 00EF  
           __size_of_shift 0011             __size_of_setup 0012                  clear_ram0 1792  
              __stringbase 0805              ??_temperatura 005F              ??_UARTmostrar 007E  
      I2C_Master_Read@temp 0074                _iniciarUART 086C               ??_iniciarLCD 0073  
             ??_iniciarOSC 0070                ??__Umul8_16 0072           __size_of___fldiv 01DD  
         __size_of___awdiv 0067           __size_of___awmod 0059           __size_of___flmul 0361  
         __size_of___fltol 007C           __size_of___lldiv 0066         __end_of__stringtab 0806  
                imprimir@i 0072           __size_of_comando 0014           __size_of_colocar 0024  
         __size_of_borrarv 0013            _I2C_Master_Init 092F            _I2C_Master_Read 08D0  
                 ___xxtofl 0CA1            _I2C_Master_Wait 084B            _I2C_Master_Stop 17A3  
       __end_of_iniciarLCD 09BB                   __ptext10 086C                   __ptext11 0A69  
                 __ptext20 17D9                   __ptext12 0967                   __ptext21 17EC  
                 __ptext13 0022                   __ptext30 0ACA                   __ptext22 0008  
                 __ptext14 0858                   __ptext23 0B97                   __ptext15 0A10  
                 __ptext24 17AC                   __ptext16 0B30                   __ptext25 17A3  
                 __ptext17 09BB                   __ptext26 179A                   __ptext18 08FE  
                 __ptext27 08D0                   __ptext19 0885                   __ptext28 084B  
                 __ptext29 092F         __end_of_iniciarOSC 0ACA        __end_of_temperatura 0E23  
        __CFG_BOR4V$BOR40V 0000           __size_of_mostrar 0014        __end_of_UARTmostrar 0022  
            __size_of_main 02AE              __size_of_humo 00CB                   _imprimir 08FE  
            ??_ultrasonico 0079                   comando@x 0072                   colocar@x 0075  
                 colocar@y 0073   __end_of_I2C_Master_Start 17A3   __end_of_I2C_Master_Write 17B6  
         ___lldiv@dividend 0074                  stringcode 0800                 _OSCCONbits 008F  
                 mostrar@t 0072    __end_of_I2C_Master_Init 0967    __end_of_I2C_Master_Read 08FE  
  __end_of_I2C_Master_Wait 0858        __end_of_ultrasonico 0CA1    __end_of_I2C_Master_Stop 17AC  
   __Umul8_16@multiplicand 0070                _temperatura 0D5B           ___lldiv@quotient 0079  
        I2C_Master_Write@d 0070                _UARTmostrar 0008                   stringdir 0800  
                 stringtab 0800                _SSPCON2bits 0091       __Umul8_16@multiplier 0078  
             UARTmostrar@x 005F          __Umul8_16@product 0074  
