

Microchip MPLAB XC8 Assembler V2.10 build 88905656 
                                                                                               Mon May 11 00:54:11 2020

Microchip MPLAB XC8 C Compiler v2.10 (Free license) build 20190730164152 Og1 
     1                           	processor	16F887
     2                           	opt	pw 120
     3                           	opt	flic
     4                           	psect	idataBANK1,global,class=CODE,delta=2
     5                           	psect	strings,global,class=STRING,delta=2
     6                           	psect	cinit,global,class=CODE,merge=1,delta=2
     7                           	psect	bssCOMMON,global,class=COMMON,space=1,delta=1
     8                           	psect	bssBANK0,global,class=BANK0,space=1,delta=1
     9                           	psect	bssBANK1,global,class=BANK1,space=1,delta=1
    10                           	psect	dataBANK1,global,class=BANK1,space=1,delta=1
    11                           	psect	inittext,global,class=CODE,delta=2
    12                           	psect	clrtext,global,class=CODE,delta=2
    13                           	psect	cstackBANK3,global,class=BANK3,space=1,delta=1
    14                           	psect	cstackCOMMON,global,class=COMMON,space=1,delta=1
    15                           	psect	cstackBANK0,global,class=BANK0,space=1,delta=1
    16                           	psect	maintext,global,class=CODE,split=1,delta=2
    17                           	psect	text1,local,class=CODE,merge=1,delta=2
    18                           	psect	text2,local,class=CODE,merge=1,delta=2
    19                           	psect	text3,local,class=CODE,merge=1,delta=2
    20                           	psect	text4,local,class=CODE,merge=1,delta=2,group=1
    21                           	psect	text5,local,class=CODE,merge=1,delta=2,group=1
    22                           	psect	text6,local,class=CODE,merge=1,delta=2,group=1
    23                           	psect	text7,local,class=CODE,merge=1,delta=2,group=1
    24                           	psect	text8,local,class=CODE,merge=1,delta=2,group=1
    25                           	psect	text9,local,class=CODE,merge=1,delta=2
    26                           	psect	text10,local,class=CODE,merge=1,delta=2
    27                           	psect	text11,local,class=CODE,merge=1,delta=2
    28                           	psect	text12,local,class=CODE,merge=1,delta=2
    29                           	psect	text13,local,class=CODE,merge=1,delta=2
    30                           	psect	text14,local,class=CODE,merge=1,delta=2
    31                           	psect	text15,local,class=CODE,merge=1,delta=2
    32                           	psect	text16,local,class=CODE,merge=1,delta=2
    33                           	psect	text17,local,class=CODE,merge=1,delta=2
    34                           	psect	text18,local,class=CODE,merge=1,delta=2
    35                           	psect	text19,local,class=CODE,merge=1,delta=2
    36                           	psect	text20,local,class=CODE,merge=1,delta=2
    37                           	psect	text21,local,class=CODE,merge=1,delta=2
    38                           	psect	text22,local,class=CODE,merge=1,delta=2
    39                           	psect	text23,local,class=CODE,merge=1,delta=2
    40                           	psect	text24,local,class=CODE,merge=1,delta=2
    41                           	psect	text25,local,class=CODE,merge=1,delta=2,group=1
    42                           	psect	text26,local,class=CODE,merge=1,delta=2,group=1
    43                           	psect	text27,local,class=CODE,merge=1,delta=2
    44                           	psect	text28,local,class=CODE,merge=1,delta=2
    45                           	psect	text29,local,class=CODE,merge=1,delta=2
    46                           	psect	text30,local,class=CODE,merge=1,delta=2
    47                           	psect	text31,local,class=CODE,merge=1,delta=2
    48                           	psect	text32,local,class=CODE,merge=1,delta=2
    49                           	psect	text33,local,class=CODE,merge=1,delta=2
    50                           	psect	text34,local,class=CODE,merge=1,delta=2
    51                           	psect	text35,local,class=CODE,merge=1,delta=2
    52                           	psect	text36,local,class=CODE,merge=1,delta=2,group=1
    53                           	psect	text37,local,class=CODE,merge=1,delta=2
    54                           	psect	intentry,global,class=CODE,delta=2
    55                           	dabs	1,0x7E,2
    56  0000                     
    57                           ; Version 2.10
    58                           ; Generated 31/07/2019 GMT
    59                           ; 
    60                           ; Copyright © 2019, Microchip Technology Inc. and its subsidiaries ("Microchip")
    61                           ; All rights reserved.
    62                           ; 
    63                           ; This software is developed by Microchip Technology Inc. and its subsidiaries ("Microch
      +                          ip").
    64                           ; 
    65                           ; Redistribution and use in source and binary forms, with or without modification, are
    66                           ; permitted provided that the following conditions are met:
    67                           ; 
    68                           ;     1. Redistributions of source code must retain the above copyright notice, this lis
      +                          t of
    69                           ;        conditions and the following disclaimer.
    70                           ; 
    71                           ;     2. Redistributions in binary form must reproduce the above copyright notice, this 
      +                          list
    72                           ;        of conditions and the following disclaimer in the documentation and/or other
    73                           ;        materials provided with the distribution.
    74                           ; 
    75                           ;     3. Microchip's name may not be used to endorse or promote products derived from th
      +                          is
    76                           ;        software without specific prior written permission.
    77                           ; 
    78                           ; THIS SOFTWARE IS PROVIDED BY MICROCHIP "AS IS" AND ANY EXPRESS OR IMPLIED WARRANTIES,
    79                           ; INCLUDING, BUT NOT LIMITED TO, THE IMPLIED WARRANTIES OF MERCHANTABILITY AND FITNESS F
      +                          OR
    80                           ; PURPOSE ARE DISCLAIMED.  IN NO EVENT SHALL MICROCHIP BE LIABLE FOR ANY DIRECT, INDIREC
      +                          T,
    81                           ; INCIDENTAL, SPECIAL, EXEMPLARY, OR CONSEQUENTIAL DAMAGES (INCLUDING BUT NOT LIMITED TO
    82                           ; PROCUREMENT OF SUBSTITUTE GOODS OR SERVICES; LOSS OF USE, DATA OR PROFITS; OR BUSINESS
    83                           ; INTERRUPTION) HOWSOEVER CAUSED AND ON ANY THEORY OF LIABILITY, WHETHER IN CONTRACT, ST
      +                          RICT
    84                           ; LIABILITY, OR TORT (INCLUDING NEGLIGENCE OR OTHERWISE) ARISING IN ANY WAY OUT OF THE U
      +                          SE OF
    85                           ; THIS SOFTWARE, EVEN IF ADVISED OF THE POSSIBILITY OF SUCH DAMAGE.
    86                           ; 
    87                           ; 
    88                           ; Code-generator required, PIC16F887 Definitions
    89                           ; 
    90                           ; SFR Addresses
    91  0000                     	;# 
    92  0001                     	;# 
    93  0002                     	;# 
    94  0003                     	;# 
    95  0004                     	;# 
    96  0005                     	;# 
    97  0006                     	;# 
    98  0007                     	;# 
    99  0008                     	;# 
   100  0009                     	;# 
   101  000A                     	;# 
   102  000B                     	;# 
   103  000C                     	;# 
   104  000D                     	;# 
   105  000E                     	;# 
   106  000E                     	;# 
   107  000F                     	;# 
   108  0010                     	;# 
   109  0011                     	;# 
   110  0012                     	;# 
   111  0013                     	;# 
   112  0014                     	;# 
   113  0015                     	;# 
   114  0015                     	;# 
   115  0016                     	;# 
   116  0017                     	;# 
   117  0018                     	;# 
   118  0019                     	;# 
   119  001A                     	;# 
   120  001B                     	;# 
   121  001B                     	;# 
   122  001C                     	;# 
   123  001D                     	;# 
   124  001E                     	;# 
   125  001F                     	;# 
   126  0081                     	;# 
   127  0085                     	;# 
   128  0086                     	;# 
   129  0087                     	;# 
   130  0088                     	;# 
   131  0089                     	;# 
   132  008C                     	;# 
   133  008D                     	;# 
   134  008E                     	;# 
   135  008F                     	;# 
   136  0090                     	;# 
   137  0091                     	;# 
   138  0092                     	;# 
   139  0093                     	;# 
   140  0093                     	;# 
   141  0093                     	;# 
   142  0094                     	;# 
   143  0095                     	;# 
   144  0096                     	;# 
   145  0097                     	;# 
   146  0098                     	;# 
   147  0099                     	;# 
   148  009A                     	;# 
   149  009B                     	;# 
   150  009C                     	;# 
   151  009D                     	;# 
   152  009E                     	;# 
   153  009F                     	;# 
   154  0105                     	;# 
   155  0107                     	;# 
   156  0108                     	;# 
   157  0109                     	;# 
   158  010C                     	;# 
   159  010C                     	;# 
   160  010D                     	;# 
   161  010E                     	;# 
   162  010F                     	;# 
   163  0185                     	;# 
   164  0187                     	;# 
   165  0188                     	;# 
   166  0189                     	;# 
   167  018C                     	;# 
   168  018D                     	;# 
   169  0000                     	;# 
   170  0001                     	;# 
   171  0002                     	;# 
   172  0003                     	;# 
   173  0004                     	;# 
   174  0005                     	;# 
   175  0006                     	;# 
   176  0007                     	;# 
   177  0008                     	;# 
   178  0009                     	;# 
   179  000A                     	;# 
   180  000B                     	;# 
   181  000C                     	;# 
   182  000D                     	;# 
   183  000E                     	;# 
   184  000E                     	;# 
   185  000F                     	;# 
   186  0010                     	;# 
   187  0011                     	;# 
   188  0012                     	;# 
   189  0013                     	;# 
   190  0014                     	;# 
   191  0015                     	;# 
   192  0015                     	;# 
   193  0016                     	;# 
   194  0017                     	;# 
   195  0018                     	;# 
   196  0019                     	;# 
   197  001A                     	;# 
   198  001B                     	;# 
   199  001B                     	;# 
   200  001C                     	;# 
   201  001D                     	;# 
   202  001E                     	;# 
   203  001F                     	;# 
   204  0081                     	;# 
   205  0085                     	;# 
   206  0086                     	;# 
   207  0087                     	;# 
   208  0088                     	;# 
   209  0089                     	;# 
   210  008C                     	;# 
   211  008D                     	;# 
   212  008E                     	;# 
   213  008F                     	;# 
   214  0090                     	;# 
   215  0091                     	;# 
   216  0092                     	;# 
   217  0093                     	;# 
   218  0093                     	;# 
   219  0093                     	;# 
   220  0094                     	;# 
   221  0095                     	;# 
   222  0096                     	;# 
   223  0097                     	;# 
   224  0098                     	;# 
   225  0099                     	;# 
   226  009A                     	;# 
   227  009B                     	;# 
   228  009C                     	;# 
   229  009D                     	;# 
   230  009E                     	;# 
   231  009F                     	;# 
   232  0105                     	;# 
   233  0107                     	;# 
   234  0108                     	;# 
   235  0109                     	;# 
   236  010C                     	;# 
   237  010C                     	;# 
   238  010D                     	;# 
   239  010E                     	;# 
   240  010F                     	;# 
   241  0185                     	;# 
   242  0187                     	;# 
   243  0188                     	;# 
   244  0189                     	;# 
   245  018C                     	;# 
   246  018D                     	;# 
   247                           
   248                           	psect	idataBANK1
   249  16A0                     __pidataBANK1:	
   250                           
   251                           ;initializer for _date
   252  16A0  3430               	retlw	48
   253  16A1  3430               	retlw	48
   254  16A2  342D               	retlw	45
   255  16A3  3430               	retlw	48
   256  16A4  3430               	retlw	48
   257  16A5  342D               	retlw	45
   258  16A6  3430               	retlw	48
   259  16A7  3430               	retlw	48
   260  16A8  3400               	retlw	0
   261                           
   262                           ;initializer for _time
   263  16A9  3430               	retlw	48
   264  16AA  3430               	retlw	48
   265  16AB  343A               	retlw	58
   266  16AC  3430               	retlw	48
   267  16AD  3430               	retlw	48
   268  16AE  343A               	retlw	58
   269  16AF  3430               	retlw	48
   270  16B0  3430               	retlw	48
   271  16B1  3400               	retlw	0
   272                           
   273                           ;initializer for _enter
   274  16B2  340A               	retlw	10
   275  16B3  3400               	retlw	0
   276                           
   277                           	psect	strings
   278  1000                     __pstrings:	
   279  1000                     stringtab:	
   280  1000                     __stringtab:	
   281  1000                     stringcode:	
   282                           ;	String table - string pointers are 1 byte each
   283                           
   284  1000                     stringdir:	
   285  1000  3010               	movlw	high stringdir
   286  1001  008A               	movwf	10
   287  1002  0804               	movf	4,w
   288  1003  0A84               	incf	4,f
   289  1004  0782               	addwf	2,f
   290  1005                     __stringbase:	
   291  1005  3400               	retlw	0
   292  1006                     __end_of__stringtab:	
   293  1006                     _a:	
   294  1006  3430               	retlw	48
   295  1007  3431               	retlw	49
   296  1008  3432               	retlw	50
   297  1009  3433               	retlw	51
   298  100A  3434               	retlw	52
   299  100B  3435               	retlw	53
   300  100C  3436               	retlw	54
   301  100D  3437               	retlw	55
   302  100E  3438               	retlw	56
   303  100F  3439               	retlw	57
   304  1010                     __end_of_a:	
   305  000B                     _INTCONbits	set	11
   306  0010                     _T1CONbits	set	16
   307  0008                     _PORTD	set	8
   308  0007                     _PORTC	set	7
   309  0005                     _PORTA	set	5
   310  0005                     _PORTAbits	set	5
   311  000E                     _TMR1L	set	14
   312  000F                     _TMR1H	set	15
   313  000C                     _PIR1bits	set	12
   314  0019                     _TXREG	set	25
   315  0018                     _RCSTAbits	set	24
   316  0006                     _PORTB	set	6
   317  0008                     _PORTDbits	set	8
   318  0013                     _SSPBUF	set	19
   319  0014                     _SSPCON	set	20
   320  008C                     _PIE1bits	set	140
   321  0088                     _TRISDbits	set	136
   322  0087                     _TRISC	set	135
   323  0086                     _TRISB	set	134
   324  0085                     _TRISA	set	133
   325  009A                     _SPBRGH	set	154
   326  0099                     _SPBRG	set	153
   327  0098                     _TXSTAbits	set	152
   328  008F                     _OSCCONbits	set	143
   329  0091                     _SSPCON2bits	set	145
   330  0087                     _TRISCbits	set	135
   331  0094                     _SSPSTAT	set	148
   332  0093                     _SSPADD	set	147
   333  0091                     _SSPCON2	set	145
   334  0189                     _ANSELH	set	393
   335  0188                     _ANSEL	set	392
   336  0187                     _BAUDCTLbits	set	391
   337  1010                     STR_2:	
   338  1010  3420               	retlw	32	;' '
   339  1011  3420               	retlw	32	;' '
   340  1012  3420               	retlw	32	;' '
   341  1013  3420               	retlw	32	;' '
   342  1014  3420               	retlw	32	;' '
   343  1015  3420               	retlw	32	;' '
   344  1016  3400               	retlw	0
   345  1017                     STR_1:	
   346  1017  3441               	retlw	65	;'A'
   347  1018  344C               	retlw	76	;'L'
   348  1019  3445               	retlw	69	;'E'
   349  101A  3452               	retlw	82	;'R'
   350  101B  3454               	retlw	84	;'T'
   351  101C  3441               	retlw	65	;'A'
   352  101D  3400               	retlw	0
   353  101E                     STR_19:	
   354  101E  3448               	retlw	72	;'H'
   355  101F  346F               	retlw	111	;'o'
   356  1020  3472               	retlw	114	;'r'
   357  1021  3461               	retlw	97	;'a'
   358  1022  343A               	retlw	58	;':'
   359  1023  3400               	retlw	0
   360  1024                     STR_16:	
   361  1024  3448               	retlw	72	;'H'
   362  1025  3475               	retlw	117	;'u'
   363  1026  346D               	retlw	109	;'m'
   364  1027  346F               	retlw	111	;'o'
   365  1028  343A               	retlw	58	;':'
   366  1029  3400               	retlw	0
   367  102A                     STR_17:	
   368  102A  3454               	retlw	84	;'T'
   369  102B  3465               	retlw	101	;'e'
   370  102C  346D               	retlw	109	;'m'
   371  102D  343A               	retlw	58	;':'
   372  102E  3400               	retlw	0
   373  102F                     STR_13:	
   374  102F  344C               	retlw	76	;'L'
   375  1030  3475               	retlw	117	;'u'
   376  1031  347A               	retlw	122	;'z'
   377  1032  343A               	retlw	58	;':'
   378  1033  3400               	retlw	0
   379  1034                     STR_8:	
   380  1034  344F               	retlw	79	;'O'
   381  1035  3446               	retlw	70	;'F'
   382  1036  3446               	retlw	70	;'F'
   383  1037  3400               	retlw	0
   384  1038                     STR_14:	
   385  1038  3458               	retlw	88	;'X'
   386  1039  343A               	retlw	58	;':'
   387  103A  3400               	retlw	0
   388  103B                     STR_22:	
   389  103B  3443               	retlw	67	;'C'
   390  103C  3443               	retlw	67	;'C'
   391  103D  3400               	retlw	0
   392  103E                     STR_6:	
   393  103E  344F               	retlw	79	;'O'
   394  103F  344E               	retlw	78	;'N'
   395  1040  3400               	retlw	0
   396  1041                     STR_21:	
   397  1041  3450               	retlw	80	;'P'
   398  1042  3450               	retlw	80	;'P'
   399  1043  3400               	retlw	0
   400  1044                     STR_15:	
   401  1044  3463               	retlw	99	;'c'
   402  1045  346D               	retlw	109	;'m'
   403  1046  3400               	retlw	0
   404  1047                     STR_12:	
   405  1047  342B               	retlw	43	;'+'
   406  1048  3400               	retlw	0
   407  1049                     STR_10:	
   408  1049  342D               	retlw	45	;'-'
   409  104A  3400               	retlw	0
   410  1015                     
   411                           ; #config settings
   412  0000                     
   413                           	psect	cinit
   414  000F                     start_initialization:	
   415  000F                     __initialization:	
   416                           
   417                           ; Initialize objects allocated to BANK1
   418  000F  1383               	bcf	3,7	;select IRP bank0
   419  0010  30EE               	movlw	low (__pdataBANK1+20)
   420  0011  00FD               	movwf	btemp+-1
   421  0012  3016               	movlw	high __pidataBANK1
   422  0013  00FE               	movwf	btemp
   423  0014  30A0               	movlw	low __pidataBANK1
   424  0015  00FF               	movwf	btemp+1
   425  0016  30DA               	movlw	low __pdataBANK1
   426  0017  0084               	movwf	4
   427  0018  160A  118A  2669  120A  118A  	fcall	init_ram0
   428                           
   429                           ; Clear objects allocated to BANK1
   430  001D  30A0               	movlw	low __pbssBANK1
   431  001E  0084               	movwf	4
   432  001F  30DA               	movlw	low (__pbssBANK1+58)
   433  0020  160A  118A  25DD  120A  118A  	fcall	clear_ram0
   434                           
   435                           ; Clear objects allocated to BANK0
   436  0025  01EC               	clrf	__pbssBANK0& (0+127)
   437  0026  01ED               	clrf	(__pbssBANK0+1)& (0+127)
   438  0027  01EE               	clrf	(__pbssBANK0+2)& (0+127)
   439                           
   440                           ; Clear objects allocated to COMMON
   441  0028  01F9               	clrf	__pbssCOMMON& (0+127)
   442  0029  01FA               	clrf	(__pbssCOMMON+1)& (0+127)
   443  002A  01FB               	clrf	(__pbssCOMMON+2)& (0+127)
   444  002B                     end_of_initialization:	
   445                           ;End of C runtime variable initialization code
   446                           
   447  002B                     __end_of__initialization:	
   448  002B  0183               	clrf	3
   449  002C  120A  118A  2B90   	ljmp	_main	;jump to C main() function
   450                           
   451                           	psect	bssCOMMON
   452  0079                     __pbssCOMMON:	
   453  0079                     _Humo:	
   454  0079                     	ds	1
   455  007A                     _Distancia:	
   456  007A                     	ds	1
   457  007B                     _Luz:	
   458  007B                     	ds	1
   459                           
   460                           	psect	bssBANK0
   461  006C                     __pbssBANK0:	
   462  006C                     _calor:	
   463  006C                     	ds	1
   464  006D                     _grados:	
   465  006D                     	ds	1
   466  006E                     _Temp:	
   467  006E                     	ds	1
   468                           
   469                           	psect	bssBANK1
   470  00A0                     __pbssBANK1:	
   471  00A0                     _b:	
   472  00A0                     	ds	10
   473  00AA                     _flanco:	
   474  00AA                     	ds	2
   475  00AC                     _ap:	
   476  00AC                     	ds	2
   477  00AE                     _hr:	
   478  00AE                     	ds	2
   479  00B0                     _hour:	
   480  00B0                     	ds	2
   481  00B2                     _minute:	
   482  00B2                     	ds	2
   483  00B4                     _sensor:	
   484  00B4                     	ds	2
   485  00B6                     _dat:	
   486  00B6                     	ds	2
   487  00B8                     _data:	
   488  00B8                     	ds	2
   489  00BA                     _i:	
   490  00BA                     	ds	2
   491  00BC                     _t3:	
   492  00BC                     	ds	2
   493  00BE                     _t2:	
   494  00BE                     	ds	2
   495  00C0                     _t1:	
   496  00C0                     	ds	2
   497  00C2                     _t:	
   498  00C2                     	ds	2
   499  00C4                     _w3:	
   500  00C4                     	ds	2
   501  00C6                     _w2:	
   502  00C6                     	ds	2
   503  00C8                     _w1:	
   504  00C8                     	ds	2
   505  00CA                     _w:	
   506  00CA                     	ds	2
   507  00CC                     _z1:	
   508  00CC                     	ds	2
   509  00CE                     _z:	
   510  00CE                     	ds	2
   511  00D0                     _y3:	
   512  00D0                     	ds	2
   513  00D2                     _y2:	
   514  00D2                     	ds	2
   515  00D4                     _y1:	
   516  00D4                     	ds	2
   517  00D6                     _y:	
   518  00D6                     	ds	2
   519  00D8                     _i_stepper:	
   520  00D8                     	ds	1
   521  00D9                     _v1:	
   522  00D9                     	ds	1
   523                           
   524                           	psect	dataBANK1
   525  00DA                     __pdataBANK1:	
   526  00DA                     _date:	
   527  00DA                     	ds	9
   528  00E3                     _time:	
   529  00E3                     	ds	9
   530  00EC                     _enter:	
   531  00EC                     	ds	2
   532                           
   533                           	psect	inittext
   534  1665                     init_fetch0:	
   535                           ;	Called with low address in FSR and high address in W
   536                           
   537  1665  087E               	movf	btemp,w
   538  1666  008A               	movwf	10
   539  1667  087F               	movf	btemp+1,w
   540  1668  0082               	movwf	2
   541  1669                     init_ram0:	
   542                           ;Called with:
   543                           ;	high address of idata address in btemp 
   544                           ;	low address of idata address in btemp+1 
   545                           ;	low address of data in FSR
   546                           ;	high address + 1 of data in btemp-1
   547                           
   548  1669  160A  118A  2665  160A  118A  	fcall	init_fetch0
   549  166E  0080               	movwf	0
   550  166F  0A84               	incf	4,f
   551  1670  0804               	movf	4,w
   552  1671  067D               	xorwf	btemp+-1,w
   553  1672  1903               	btfsc	3,2
   554  1673  3400               	retlw	0
   555  1674  0AFF               	incf	btemp+1,f
   556  1675  1903               	btfsc	3,2
   557  1676  0AFE               	incf	btemp,f
   558  1677  2E69               	goto	init_ram0
   559                           
   560                           	psect	clrtext
   561  15DD                     clear_ram0:	
   562                           ;	Called with FSR containing the base address, and
   563                           ;	W with the last address+1
   564                           
   565  15DD  0064               	clrwdt	;clear the watchdog before getting into this loop
   566  15DE                     clrloop0:	
   567  15DE  0180               	clrf	0	;clear RAM location pointed to by FSR
   568  15DF  0A84               	incf	4,f	;increment pointer
   569  15E0  0604               	xorwf	4,w	;XOR with final address
   570  15E1  1903               	btfsc	3,2	;have we reached the end yet?
   571  15E2  3400               	retlw	0	;all done for this memory range, return
   572  15E3  0604               	xorwf	4,w	;XOR again to restore value
   573  15E4  2DDE               	goto	clrloop0	;do the next byte
   574                           
   575                           	psect	cstackBANK3
   576  0190                     __pcstackBANK3:	
   577  0190                     ??_main:	
   578                           
   579                           ; 1 bytes @ 0x0
   580  0190                     	ds	3
   581                           
   582                           	psect	cstackCOMMON
   583  0070                     __pcstackCOMMON:	
   584  0070                     ?_write_RTC:	
   585  0070                     ?_initTimer1:	
   586                           ; 1 bytes @ 0x0
   587                           
   588  0070                     ?_read_RTC:	
   589                           ; 1 bytes @ 0x0
   590                           
   591  0070                     ?_MSB:	
   592                           ; 1 bytes @ 0x0
   593                           
   594  0070                     ?_LSB:	
   595                           ; 1 bytes @ 0x0
   596                           
   597  0070                     ?_I2C_Master_Wait:	
   598                           ; 1 bytes @ 0x0
   599                           
   600  0070                     ?_I2C_Master_Start:	
   601                           ; 1 bytes @ 0x0
   602                           
   603  0070                     ?_I2C_Master_RepeatedStart:	
   604                           ; 1 bytes @ 0x0
   605                           
   606  0070                     ?_I2C_Master_Stop:	
   607                           ; 1 bytes @ 0x0
   608                           
   609  0070                     ?_comando:	
   610                           ; 1 bytes @ 0x0
   611                           
   612  0070                     ?_iniciarLCD:	
   613                           ; 1 bytes @ 0x0
   614                           
   615  0070                     ?_borrarv:	
   616                           ; 1 bytes @ 0x0
   617                           
   618  0070                     ?_imprimir:	
   619                           ; 1 bytes @ 0x0
   620                           
   621  0070                     ?_mostrar:	
   622                           ; 1 bytes @ 0x0
   623                           
   624  0070                     ?_shift:	
   625                           ; 1 bytes @ 0x0
   626                           
   627  0070                     ?_iniciarOSC:	
   628                           ; 1 bytes @ 0x0
   629                           
   630  0070                     ?_iniciarUART:	
   631                           ; 1 bytes @ 0x0
   632                           
   633  0070                     ?_isr:	
   634                           ; 1 bytes @ 0x0
   635                           
   636  0070                     ??_isr:	
   637                           ; 1 bytes @ 0x0
   638                           
   639  0070                     ?_temperatura:	
   640                           ; 1 bytes @ 0x0
   641                           
   642  0070                     ?_humo:	
   643                           ; 1 bytes @ 0x0
   644                           
   645  0070                     ?_ultrasonico:	
   646                           ; 1 bytes @ 0x0
   647                           
   648  0070                     ?_luces:	
   649                           ; 1 bytes @ 0x0
   650                           
   651  0070                     ?_celda:	
   652                           ; 1 bytes @ 0x0
   653                           
   654  0070                     ?_setup:	
   655                           ; 1 bytes @ 0x0
   656                           
   657  0070                     ?_main:	
   658                           ; 1 bytes @ 0x0
   659                           
   660                           
   661                           ; 1 bytes @ 0x0
   662  0070                     	ds	2
   663  0072                     ??_initTimer1:	
   664  0072                     ??_MSB:	
   665                           ; 1 bytes @ 0x2
   666                           
   667  0072                     ??_LSB:	
   668                           ; 1 bytes @ 0x2
   669                           
   670  0072                     ??_I2C_Master_Wait:	
   671                           ; 1 bytes @ 0x2
   672                           
   673  0072                     ??_I2C_Master_Start:	
   674                           ; 1 bytes @ 0x2
   675                           
   676  0072                     ??_I2C_Master_RepeatedStart:	
   677                           ; 1 bytes @ 0x2
   678                           
   679  0072                     ??_I2C_Master_Stop:	
   680                           ; 1 bytes @ 0x2
   681                           
   682  0072                     ?_I2C_Master_Write:	
   683                           ; 1 bytes @ 0x2
   684                           
   685  0072                     ??_comando:	
   686                           ; 1 bytes @ 0x2
   687                           
   688  0072                     ??_imprimir:	
   689                           ; 1 bytes @ 0x2
   690                           
   691  0072                     ??_mostrar:	
   692                           ; 1 bytes @ 0x2
   693                           
   694  0072                     ??_shift:	
   695                           ; 1 bytes @ 0x2
   696                           
   697  0072                     ??_iniciarOSC:	
   698                           ; 1 bytes @ 0x2
   699                           
   700  0072                     ??_iniciarUART:	
   701                           ; 1 bytes @ 0x2
   702                           
   703  0072                     ?_UARTenvINT:	
   704                           ; 1 bytes @ 0x2
   705                           
   706  0072                     ??_setup:	
   707                           ; 1 bytes @ 0x2
   708                           
   709  0072                     ??___lldiv:	
   710                           ; 1 bytes @ 0x2
   711                           
   712  0072                     ?__Umul8_16:	
   713                           ; 1 bytes @ 0x2
   714                           
   715  0072                     ?_I2C_Master_Read:	
   716                           ; 2 bytes @ 0x2
   717                           
   718  0072                     ?___awdiv:	
   719                           ; 2 bytes @ 0x2
   720                           
   721  0072                     ?___awmod:	
   722                           ; 2 bytes @ 0x2
   723                           
   724  0072                     ?___xxtofl:	
   725                           ; 2 bytes @ 0x2
   726                           
   727  0072                     LSB@x:	
   728                           ; 4 bytes @ 0x2
   729                           
   730  0072                     __Umul8_16@multiplicand:	
   731                           ; 1 bytes @ 0x2
   732                           
   733  0072                     I2C_Master_Write@d:	
   734                           ; 1 bytes @ 0x2
   735                           
   736  0072                     I2C_Master_Read@a:	
   737                           ; 2 bytes @ 0x2
   738                           
   739  0072                     UARTenvINT@x:	
   740                           ; 2 bytes @ 0x2
   741                           
   742  0072                     ___awdiv@divisor:	
   743                           ; 2 bytes @ 0x2
   744                           
   745  0072                     ___awmod@divisor:	
   746                           ; 2 bytes @ 0x2
   747                           
   748  0072                     ___xxtofl@val:	
   749                           ; 2 bytes @ 0x2
   750                           
   751                           
   752                           ; 4 bytes @ 0x2
   753  0072                     	ds	1
   754  0073                     MSB@x:	
   755  0073                     ___lldiv@quotient:	
   756                           ; 1 bytes @ 0x3
   757                           
   758                           
   759                           ; 4 bytes @ 0x3
   760  0073                     	ds	1
   761  0074                     ??_write_RTC:	
   762  0074                     ??__Umul8_16:	
   763                           ; 1 bytes @ 0x4
   764                           
   765  0074                     ??_I2C_Master_Write:	
   766                           ; 1 bytes @ 0x4
   767                           
   768  0074                     ??_I2C_Master_Read:	
   769                           ; 1 bytes @ 0x4
   770                           
   771  0074                     ??_UARTenvINT:	
   772                           ; 1 bytes @ 0x4
   773                           
   774  0074                     comando@x:	
   775                           ; 1 bytes @ 0x4
   776                           
   777  0074                     mostrar@t:	
   778                           ; 1 bytes @ 0x4
   779                           
   780  0074                     iniciarOSC@frec:	
   781                           ; 1 bytes @ 0x4
   782                           
   783  0074                     imprimir@i:	
   784                           ; 1 bytes @ 0x4
   785                           
   786  0074                     ___awdiv@dividend:	
   787                           ; 2 bytes @ 0x4
   788                           
   789  0074                     ___awmod@dividend:	
   790                           ; 2 bytes @ 0x4
   791                           
   792                           
   793                           ; 2 bytes @ 0x4
   794  0074                     	ds	1
   795  0075                     ??_iniciarLCD:	
   796  0075                     ??_borrarv:	
   797                           ; 1 bytes @ 0x5
   798                           
   799  0075                     ?_colocar:	
   800                           ; 1 bytes @ 0x5
   801                           
   802  0075                     colocar@y:	
   803                           ; 1 bytes @ 0x5
   804                           
   805                           
   806                           ; 1 bytes @ 0x5
   807  0075                     	ds	1
   808  0076                     ??_colocar:	
   809  0076                     ??___awdiv:	
   810                           ; 1 bytes @ 0x6
   811                           
   812  0076                     ??___awmod:	
   813                           ; 1 bytes @ 0x6
   814                           
   815  0076                     imprimir@texto:	
   816                           ; 1 bytes @ 0x6
   817                           
   818  0076                     ___fltol@sign1:	
   819                           ; 1 bytes @ 0x6
   820                           
   821  0076                     I2C_Master_Read@temp:	
   822                           ; 1 bytes @ 0x6
   823                           
   824                           
   825                           ; 2 bytes @ 0x6
   826  0076                     	ds	1
   827  0077                     colocar@x:	
   828  0077                     ___lldiv@counter:	
   829                           ; 1 bytes @ 0x7
   830                           
   831  0077                     ___awmod@counter:	
   832                           ; 1 bytes @ 0x7
   833                           
   834  0077                     ___fltol@exp1:	
   835                           ; 1 bytes @ 0x7
   836                           
   837                           
   838                           ; 1 bytes @ 0x7
   839  0077                     	ds	1
   840  0078                     colocar@temp:	
   841  0078                     read_RTC@address:	
   842                           ; 1 bytes @ 0x8
   843                           
   844  0078                     ___awmod@sign:	
   845                           ; 1 bytes @ 0x8
   846                           
   847                           
   848                           ; 1 bytes @ 0x8
   849  0078                     	ds	1
   850                           
   851                           	psect	cstackBANK0
   852  0020                     __pcstackBANK0:	
   853  0020                     ??_read_RTC:	
   854  0020                     ??_celda:	
   855                           ; 1 bytes @ 0x0
   856                           
   857  0020                     ??___xxtofl:	
   858                           ; 1 bytes @ 0x0
   859                           
   860  0020                     ?___lldiv:	
   861                           ; 1 bytes @ 0x0
   862                           
   863  0020                     ___awdiv@counter:	
   864                           ; 4 bytes @ 0x0
   865                           
   866  0020                     __Umul8_16@product:	
   867                           ; 1 bytes @ 0x0
   868                           
   869  0020                     ___lldiv@divisor:	
   870                           ; 2 bytes @ 0x0
   871                           
   872                           
   873                           ; 4 bytes @ 0x0
   874  0020                     	ds	1
   875  0021                     ___awdiv@sign:	
   876                           
   877                           ; 1 bytes @ 0x1
   878  0021                     	ds	1
   879  0022                     ___awdiv@quotient:	
   880  0022                     __Umul8_16@word_mpld:	
   881                           ; 2 bytes @ 0x2
   882                           
   883                           
   884                           ; 2 bytes @ 0x2
   885  0022                     	ds	2
   886  0024                     ??_humo:	
   887  0024                     ??_ultrasonico:	
   888                           ; 1 bytes @ 0x4
   889                           
   890  0024                     ??_luces:	
   891                           ; 1 bytes @ 0x4
   892                           
   893  0024                     ___xxtofl@sign:	
   894                           ; 1 bytes @ 0x4
   895                           
   896  0024                     __Umul8_16@multiplier:	
   897                           ; 1 bytes @ 0x4
   898                           
   899  0024                     ___lldiv@dividend:	
   900                           ; 1 bytes @ 0x4
   901                           
   902                           
   903                           ; 4 bytes @ 0x4
   904  0024                     	ds	1
   905  0025                     ___xxtofl@exp:	
   906                           
   907                           ; 1 bytes @ 0x5
   908  0025                     	ds	1
   909  0026                     ___xxtofl@arg:	
   910                           
   911                           ; 4 bytes @ 0x6
   912  0026                     	ds	2
   913  0028                     ?_I2C_Master_Init:	
   914  0028                     I2C_Master_Init@c:	
   915                           ; 1 bytes @ 0x8
   916                           
   917                           
   918                           ; 4 bytes @ 0x8
   919  0028                     	ds	2
   920  002A                     ?___flmul:	
   921  002A                     ___flmul@b:	
   922                           ; 4 bytes @ 0xA
   923                           
   924                           
   925                           ; 4 bytes @ 0xA
   926  002A                     	ds	2
   927  002C                     ??_I2C_Master_Init:	
   928                           
   929                           ; 1 bytes @ 0xC
   930  002C                     	ds	2
   931  002E                     ___flmul@a:	
   932                           
   933                           ; 4 bytes @ 0xE
   934  002E                     	ds	4
   935  0032                     ??___flmul:	
   936                           
   937                           ; 1 bytes @ 0x12
   938  0032                     	ds	5
   939  0037                     ___flmul@sign:	
   940                           
   941                           ; 1 bytes @ 0x17
   942  0037                     	ds	1
   943  0038                     ___flmul@aexp:	
   944                           
   945                           ; 1 bytes @ 0x18
   946  0038                     	ds	1
   947  0039                     ___flmul@grs:	
   948                           
   949                           ; 4 bytes @ 0x19
   950  0039                     	ds	4
   951  003D                     ___flmul@bexp:	
   952                           
   953                           ; 1 bytes @ 0x1D
   954  003D                     	ds	1
   955  003E                     ___flmul@prod:	
   956                           
   957                           ; 4 bytes @ 0x1E
   958  003E                     	ds	4
   959  0042                     ___flmul@temp:	
   960                           
   961                           ; 2 bytes @ 0x22
   962  0042                     	ds	2
   963  0044                     ?___fldiv:	
   964  0044                     ___fldiv@a:	
   965                           ; 4 bytes @ 0x24
   966                           
   967                           
   968                           ; 4 bytes @ 0x24
   969  0044                     	ds	4
   970  0048                     ___fldiv@b:	
   971                           
   972                           ; 4 bytes @ 0x28
   973  0048                     	ds	4
   974  004C                     ??___fldiv:	
   975                           
   976                           ; 1 bytes @ 0x2C
   977  004C                     	ds	5
   978  0051                     ___fldiv@rem:	
   979                           
   980                           ; 4 bytes @ 0x31
   981  0051                     	ds	4
   982  0055                     ___fldiv@sign:	
   983                           
   984                           ; 1 bytes @ 0x35
   985  0055                     	ds	1
   986  0056                     ___fldiv@new_exp:	
   987                           
   988                           ; 2 bytes @ 0x36
   989  0056                     	ds	2
   990  0058                     ___fldiv@grs:	
   991                           
   992                           ; 4 bytes @ 0x38
   993  0058                     	ds	4
   994  005C                     ___fldiv@bexp:	
   995                           
   996                           ; 1 bytes @ 0x3C
   997  005C                     	ds	1
   998  005D                     ___fldiv@aexp:	
   999                           
  1000                           ; 1 bytes @ 0x3D
  1001  005D                     	ds	1
  1002  005E                     ?___fltol:	
  1003  005E                     ___fltol@f1:	
  1004                           ; 4 bytes @ 0x3E
  1005                           
  1006                           
  1007                           ; 4 bytes @ 0x3E
  1008  005E                     	ds	4
  1009  0062                     ??___fltol:	
  1010                           
  1011                           ; 1 bytes @ 0x42
  1012  0062                     	ds	5
  1013  0067                     ??_temperatura:	
  1014                           
  1015                           ; 1 bytes @ 0x47
  1016  0067                     	ds	5
  1017                           
  1018                           	psect	maintext
  1019  0390                     __pmaintext:	
  1020 ;;
  1021 ;;Main: autosize = 0, tempsize = 3, incstack = 0, save=0
  1022 ;;
  1023 ;; *************** function _main *****************
  1024 ;; Defined at:
  1025 ;;		line 283 in file "Carcelero.c"
  1026 ;; Parameters:    Size  Location     Type
  1027 ;;		None
  1028 ;; Auto vars:     Size  Location     Type
  1029 ;;		None
  1030 ;; Return value:  Size  Location     Type
  1031 ;;                  1    wreg      void 
  1032 ;; Registers used:
  1033 ;;		wreg, fsr0l, fsr0h, status,2, status,0, btemp+1, pclath, cstack
  1034 ;; Tracked objects:
  1035 ;;		On entry : B00/0
  1036 ;;		On exit  : 0/0
  1037 ;;		Unchanged: 0/0
  1038 ;; Data sizes:     COMMON   BANK0   BANK1   BANK3   BANK2
  1039 ;;      Params:         0       0       0       0       0
  1040 ;;      Locals:         0       0       0       0       0
  1041 ;;      Temps:          0       0       0       3       0
  1042 ;;      Totals:         0       0       0       3       0
  1043 ;;Total ram usage:        3 bytes
  1044 ;; Hardware stack levels required when called:    4
  1045 ;; This function calls:
  1046 ;;		_I2C_Master_Init
  1047 ;;		_I2C_Master_Read
  1048 ;;		_I2C_Master_Start
  1049 ;;		_I2C_Master_Stop
  1050 ;;		_I2C_Master_Write
  1051 ;;		_LSB
  1052 ;;		_MSB
  1053 ;;		_UARTenvINT
  1054 ;;		_borrarv
  1055 ;;		_celda
  1056 ;;		_colocar
  1057 ;;		_humo
  1058 ;;		_imprimir
  1059 ;;		_iniciarLCD
  1060 ;;		_iniciarOSC
  1061 ;;		_iniciarUART
  1062 ;;		_initTimer1
  1063 ;;		_luces
  1064 ;;		_mostrar
  1065 ;;		_read_RTC
  1066 ;;		_setup
  1067 ;;		_shift
  1068 ;;		_temperatura
  1069 ;;		_ultrasonico
  1070 ;;		_write_RTC
  1071 ;; This function is called by:
  1072 ;;		Startup code after reset
  1073 ;; This function uses a non-reentrant model
  1074 ;;
  1075                           
  1076                           
  1077                           ;psect for function _main
  1078  0390                     _main:	
  1079  0390                     l3354:	
  1080                           ;incstack = 0
  1081                           ; Regs used in _main: [wreg-fsr0h+status,2+status,0+btemp+1+pclath+cstack]
  1082                           
  1083                           
  1084                           ;Carcelero.c: 285:     iniciarOSC(6);
  1085  0390  3006               	movlw	6
  1086  0391  120A  158A  214C  120A  118A  	fcall	_iniciarOSC
  1087  0396                     l3356:	
  1088                           
  1089                           ;Carcelero.c: 286:     setup();
  1090  0396  160A  118A  2652  120A  118A  	fcall	_setup
  1091  039B                     l3358:	
  1092                           
  1093                           ;Carcelero.c: 287:     iniciarLCD();
  1094  039B  120A  158A  2044  120A  118A  	fcall	_iniciarLCD
  1095  03A0                     l3360:	
  1096                           
  1097                           ;Carcelero.c: 288:     borrarv();
  1098  03A0  160A  118A  263F  120A  118A  	fcall	_borrarv
  1099  03A5                     l3362:	
  1100                           
  1101                           ;Carcelero.c: 289:     I2C_Master_Init(100000);
  1102  03A5  3000               	movlw	0
  1103  03A6  1283               	bcf	3,5	;RP0=0, select bank0
  1104  03A7  1303               	bcf	3,6	;RP1=0, select bank0
  1105  03A8  00AB               	movwf	I2C_Master_Init@c+3
  1106  03A9  3001               	movlw	1
  1107  03AA  00AA               	movwf	I2C_Master_Init@c+2
  1108  03AB  3086               	movlw	134
  1109  03AC  00A9               	movwf	I2C_Master_Init@c+1
  1110  03AD  30A0               	movlw	160
  1111  03AE  00A8               	movwf	I2C_Master_Init@c
  1112  03AF  160A  118A  27C6  120A  118A  	fcall	_I2C_Master_Init
  1113  03B4                     l3364:	
  1114                           
  1115                           ;Carcelero.c: 290:     write_RTC();
  1116  03B4  120A  158A  20F1  120A  118A  	fcall	_write_RTC
  1117  03B9                     l3366:	
  1118                           
  1119                           ;Carcelero.c: 291:     initTimer1();
  1120  03B9  160A  118A  26B4  120A  118A  	fcall	_initTimer1
  1121  03BE                     l3368:	
  1122                           
  1123                           ;Carcelero.c: 293:     colocar(1,1);
  1124  03BE  01F5               	clrf	colocar@y
  1125  03BF  0AF5               	incf	colocar@y,f
  1126  03C0  3001               	movlw	1
  1127  03C1  160A  118A  26E2  120A  118A  	fcall	_colocar
  1128  03C6                     l3370:	
  1129                           
  1130                           ;Carcelero.c: 294:     imprimir("Luz:");
  1131  03C6  302A               	movlw	(low ((STR_13-__stringbase)| (0+32768)))& (0+255)
  1132  03C7  160A  118A  275D  120A  118A  	fcall	_imprimir
  1133  03CC                     l3372:	
  1134                           
  1135                           ;Carcelero.c: 296:     colocar(8,1);
  1136  03CC  01F5               	clrf	colocar@y
  1137  03CD  0AF5               	incf	colocar@y,f
  1138  03CE  3008               	movlw	8
  1139  03CF  160A  118A  26E2  120A  118A  	fcall	_colocar
  1140  03D4                     l3374:	
  1141                           
  1142                           ;Carcelero.c: 297:     imprimir("X:");
  1143  03D4  3033               	movlw	(low ((STR_14-__stringbase)| (0+32768)))& (0+255)
  1144  03D5  160A  118A  275D  120A  118A  	fcall	_imprimir
  1145  03DA                     l3376:	
  1146                           
  1147                           ;Carcelero.c: 298:     colocar(12,1);
  1148  03DA  01F5               	clrf	colocar@y
  1149  03DB  0AF5               	incf	colocar@y,f
  1150  03DC  300C               	movlw	12
  1151  03DD  160A  118A  26E2  120A  118A  	fcall	_colocar
  1152  03E2                     l3378:	
  1153                           
  1154                           ;Carcelero.c: 299:     imprimir("cm");
  1155  03E2  303F               	movlw	(low ((STR_15-__stringbase)| (0+32768)))& (0+255)
  1156  03E3  160A  118A  275D  120A  118A  	fcall	_imprimir
  1157  03E8                     l3380:	
  1158                           
  1159                           ;Carcelero.c: 301:     colocar(15,1);
  1160  03E8  01F5               	clrf	colocar@y
  1161  03E9  0AF5               	incf	colocar@y,f
  1162  03EA  300F               	movlw	15
  1163  03EB  160A  118A  26E2  120A  118A  	fcall	_colocar
  1164  03F0                     l3382:	
  1165                           
  1166                           ;Carcelero.c: 302:     imprimir("Humo:");
  1167  03F0  301F               	movlw	(low ((STR_16-__stringbase)| (0+32768)))& (0+255)
  1168  03F1  160A  118A  275D  120A  118A  	fcall	_imprimir
  1169  03F6                     l3384:	
  1170                           
  1171                           ;Carcelero.c: 304:     colocar(24,1);
  1172  03F6  01F5               	clrf	colocar@y
  1173  03F7  0AF5               	incf	colocar@y,f
  1174  03F8  3018               	movlw	24
  1175  03F9  160A  118A  26E2  120A  118A  	fcall	_colocar
  1176  03FE                     l3386:	
  1177                           
  1178                           ;Carcelero.c: 305:     imprimir("Tem:");
  1179  03FE  3025               	movlw	(low ((STR_17-__stringbase)| (0+32768)))& (0+255)
  1180  03FF  160A  118A  275D  120A  118A  	fcall	_imprimir
  1181  0404                     l3388:	
  1182                           
  1183                           ;Carcelero.c: 306:     colocar(26,2);
  1184  0404  3002               	movlw	2
  1185  0405  1683               	bsf	3,5	;RP0=1, select bank3
  1186  0406  1703               	bsf	3,6	;RP1=1, select bank3
  1187  0407  0090               	movwf	??_main^(0+384)
  1188  0408  0810               	movf	??_main^(0+384),w
  1189  0409  00F5               	movwf	colocar@y
  1190  040A  301A               	movlw	26
  1191  040B  160A  118A  26E2  120A  118A  	fcall	_colocar
  1192  0410                     l3390:	
  1193                           
  1194                           ;Carcelero.c: 307:     mostrar(0xDF);
  1195  0410  30DF               	movlw	223
  1196  0411  160A  118A  268C  120A  118A  	fcall	_mostrar
  1197  0416                     l3392:	
  1198                           
  1199                           ;Carcelero.c: 308:     colocar(27,2);
  1200  0416  3002               	movlw	2
  1201  0417  1683               	bsf	3,5	;RP0=1, select bank3
  1202  0418  1703               	bsf	3,6	;RP1=1, select bank3
  1203  0419  0090               	movwf	??_main^(0+384)
  1204  041A  0810               	movf	??_main^(0+384),w
  1205  041B  00F5               	movwf	colocar@y
  1206  041C  301B               	movlw	27
  1207  041D  160A  118A  26E2  120A  118A  	fcall	_colocar
  1208  0422                     l3394:	
  1209                           
  1210                           ;Carcelero.c: 309:     imprimir("C");
  1211  0422  3037               	movlw	(low (((STR_22+1)-__stringbase)| (0+32768)))& (0+255)
  1212  0423  160A  118A  275D  120A  118A  	fcall	_imprimir
  1213  0428                     l3396:	
  1214                           
  1215                           ;Carcelero.c: 311:     colocar(29,1);
  1216  0428  01F5               	clrf	colocar@y
  1217  0429  0AF5               	incf	colocar@y,f
  1218  042A  301D               	movlw	29
  1219  042B  160A  118A  26E2  120A  118A  	fcall	_colocar
  1220  0430                     l3398:	
  1221                           
  1222                           ;Carcelero.c: 312:     imprimir("Hora:");
  1223  0430  3019               	movlw	(low ((STR_19-__stringbase)| (0+32768)))& (0+255)
  1224  0431  160A  118A  275D  120A  118A  	fcall	_imprimir
  1225  0436                     l3400:	
  1226                           
  1227                           ;Carcelero.c: 313:     colocar(31,2);
  1228  0436  3002               	movlw	2
  1229  0437  1683               	bsf	3,5	;RP0=1, select bank3
  1230  0438  1703               	bsf	3,6	;RP1=1, select bank3
  1231  0439  0090               	movwf	??_main^(0+384)
  1232  043A  0810               	movf	??_main^(0+384),w
  1233  043B  00F5               	movwf	colocar@y
  1234  043C  301F               	movlw	31
  1235  043D  160A  118A  26E2  120A  118A  	fcall	_colocar
  1236  0442                     l3402:	
  1237                           
  1238                           ;Carcelero.c: 314:     imprimir(":");
  1239  0442  3034               	movlw	(low (((STR_14+1)-__stringbase)| (0+32768)))& (0+255)
  1240  0443  160A  118A  275D  120A  118A  	fcall	_imprimir
  1241  0448                     l3404:	
  1242                           
  1243                           ;Carcelero.c: 316:     colocar(35,1);
  1244  0448  01F5               	clrf	colocar@y
  1245  0449  0AF5               	incf	colocar@y,f
  1246  044A  3023               	movlw	35
  1247  044B  160A  118A  26E2  120A  118A  	fcall	_colocar
  1248  0450                     l3406:	
  1249                           
  1250                           ;Carcelero.c: 317:     imprimir("PP");
  1251  0450  303C               	movlw	(low ((STR_21-__stringbase)| (0+32768)))& (0+255)
  1252  0451  160A  118A  275D  120A  118A  	fcall	_imprimir
  1253  0456                     l3408:	
  1254                           
  1255                           ;Carcelero.c: 319:     colocar(38,1);
  1256  0456  01F5               	clrf	colocar@y
  1257  0457  0AF5               	incf	colocar@y,f
  1258  0458  3026               	movlw	38
  1259  0459  160A  118A  26E2  120A  118A  	fcall	_colocar
  1260  045E                     l3410:	
  1261                           
  1262                           ;Carcelero.c: 320:     imprimir("CC");
  1263  045E  3036               	movlw	(low ((STR_22-__stringbase)| (0+32768)))& (0+255)
  1264  045F  160A  118A  275D  120A  118A  	fcall	_imprimir
  1265  0464                     l3412:	
  1266                           
  1267                           ;Carcelero.c: 322:     iniciarUART();
  1268  0464  160A  118A  26C9  120A  118A  	fcall	_iniciarUART
  1269  0469                     l3414:	
  1270                           
  1271                           ;Carcelero.c: 324:     i = 0;
  1272  0469  1683               	bsf	3,5	;RP0=1, select bank1
  1273  046A  1303               	bcf	3,6	;RP1=0, select bank1
  1274  046B  01BA               	clrf	_i^(0+128)
  1275  046C  01BB               	clrf	(_i+1)^(0+128)
  1276  046D                     l3416:	
  1277                           
  1278                           ;Carcelero.c: 327:     {;Carcelero.c: 329:         I2C_Master_Start();
  1279  046D  160A  118A  25EE  120A  118A  	fcall	_I2C_Master_Start
  1280  0472                     l3418:	
  1281                           
  1282                           ;Carcelero.c: 330:         I2C_Master_Write(0x11);
  1283  0472  3011               	movlw	17
  1284  0473  00F2               	movwf	I2C_Master_Write@d
  1285  0474  3000               	movlw	0
  1286  0475  00F3               	movwf	I2C_Master_Write@d+1
  1287  0476  160A  118A  2600  120A  118A  	fcall	_I2C_Master_Write
  1288  047B                     l3420:	
  1289                           
  1290                           ;Carcelero.c: 331:         Luz = I2C_Master_Read(0);
  1291  047B  3000               	movlw	0
  1292  047C  00F2               	movwf	I2C_Master_Read@a
  1293  047D  00F3               	movwf	I2C_Master_Read@a+1
  1294  047E  160A  118A  272F  120A  118A  	fcall	_I2C_Master_Read
  1295  0483  0872               	movf	?_I2C_Master_Read,w
  1296  0484  1683               	bsf	3,5	;RP0=1, select bank3
  1297  0485  1703               	bsf	3,6	;RP1=1, select bank3
  1298  0486  0090               	movwf	??_main^(0+384)
  1299  0487  0810               	movf	??_main^(0+384),w
  1300  0488  00FB               	movwf	_Luz
  1301  0489                     l3422:	
  1302                           
  1303                           ;Carcelero.c: 332:         I2C_Master_Stop();
  1304  0489  160A  118A  25F7  120A  118A  	fcall	_I2C_Master_Stop
  1305  048E                     l3424:	
  1306                           
  1307                           ;Carcelero.c: 333:         _delay((unsigned long)((100)*(4000000/4000.0)));
  1308  048E  3082               	movlw	130
  1309  048F  1683               	bsf	3,5	;RP0=1, select bank3
  1310  0490  1703               	bsf	3,6	;RP1=1, select bank3
  1311  0491  0091               	movwf	(??_main^(0+384)+1)
  1312  0492  30DD               	movlw	221
  1313  0493  0090               	movwf	??_main^(0+384)
  1314  0494                     u3747:	
  1315  0494  0B90               	decfsz	??_main^(0+384),f
  1316  0495  2C94               	goto	u3747
  1317  0496  0B91               	decfsz	(??_main^(0+384)+1),f
  1318  0497  2C94               	goto	u3747
  1319  0498                     l3426:	
  1320                           
  1321                           ;Carcelero.c: 336:         I2C_Master_Start();
  1322  0498  160A  118A  25EE  120A  118A  	fcall	_I2C_Master_Start
  1323  049D                     l3428:	
  1324                           
  1325                           ;Carcelero.c: 337:         I2C_Master_Write(0x21);
  1326  049D  3021               	movlw	33
  1327  049E  00F2               	movwf	I2C_Master_Write@d
  1328  049F  3000               	movlw	0
  1329  04A0  00F3               	movwf	I2C_Master_Write@d+1
  1330  04A1  160A  118A  2600  120A  118A  	fcall	_I2C_Master_Write
  1331  04A6                     l3430:	
  1332                           
  1333                           ;Carcelero.c: 338:         grados = I2C_Master_Read(0);
  1334  04A6  3000               	movlw	0
  1335  04A7  00F2               	movwf	I2C_Master_Read@a
  1336  04A8  00F3               	movwf	I2C_Master_Read@a+1
  1337  04A9  160A  118A  272F  120A  118A  	fcall	_I2C_Master_Read
  1338  04AE  0872               	movf	?_I2C_Master_Read,w
  1339  04AF  1683               	bsf	3,5	;RP0=1, select bank3
  1340  04B0  1703               	bsf	3,6	;RP1=1, select bank3
  1341  04B1  0090               	movwf	??_main^(0+384)
  1342  04B2  0810               	movf	??_main^(0+384),w
  1343  04B3  1283               	bcf	3,5	;RP0=0, select bank0
  1344  04B4  1303               	bcf	3,6	;RP1=0, select bank0
  1345  04B5  00ED               	movwf	_grados
  1346  04B6                     l3432:	
  1347                           
  1348                           ;Carcelero.c: 339:         I2C_Master_Stop();
  1349  04B6  160A  118A  25F7  120A  118A  	fcall	_I2C_Master_Stop
  1350  04BB                     l3434:	
  1351                           
  1352                           ;Carcelero.c: 340:         _delay((unsigned long)((100)*(4000000/4000.0)));
  1353  04BB  3082               	movlw	130
  1354  04BC  1683               	bsf	3,5	;RP0=1, select bank3
  1355  04BD  1703               	bsf	3,6	;RP1=1, select bank3
  1356  04BE  0091               	movwf	(??_main^(0+384)+1)
  1357  04BF  30DD               	movlw	221
  1358  04C0  0090               	movwf	??_main^(0+384)
  1359  04C1                     u3757:	
  1360  04C1  0B90               	decfsz	??_main^(0+384),f
  1361  04C2  2CC1               	goto	u3757
  1362  04C3  0B91               	decfsz	(??_main^(0+384)+1),f
  1363  04C4  2CC1               	goto	u3757
  1364  04C5                     l3436:	
  1365                           
  1366                           ;Carcelero.c: 343:         I2C_Master_Start();
  1367  04C5  160A  118A  25EE  120A  118A  	fcall	_I2C_Master_Start
  1368  04CA                     l3438:	
  1369                           
  1370                           ;Carcelero.c: 344:         I2C_Master_Write(0x31);
  1371  04CA  3031               	movlw	49
  1372  04CB  00F2               	movwf	I2C_Master_Write@d
  1373  04CC  3000               	movlw	0
  1374  04CD  00F3               	movwf	I2C_Master_Write@d+1
  1375  04CE  160A  118A  2600  120A  118A  	fcall	_I2C_Master_Write
  1376  04D3                     l3440:	
  1377                           
  1378                           ;Carcelero.c: 345:         Distancia = I2C_Master_Read(0);
  1379  04D3  3000               	movlw	0
  1380  04D4  00F2               	movwf	I2C_Master_Read@a
  1381  04D5  00F3               	movwf	I2C_Master_Read@a+1
  1382  04D6  160A  118A  272F  120A  118A  	fcall	_I2C_Master_Read
  1383  04DB  0872               	movf	?_I2C_Master_Read,w
  1384  04DC  1683               	bsf	3,5	;RP0=1, select bank3
  1385  04DD  1703               	bsf	3,6	;RP1=1, select bank3
  1386  04DE  0090               	movwf	??_main^(0+384)
  1387  04DF  0810               	movf	??_main^(0+384),w
  1388  04E0  00FA               	movwf	_Distancia
  1389  04E1                     l3442:	
  1390                           
  1391                           ;Carcelero.c: 346:         I2C_Master_Stop();
  1392  04E1  160A  118A  25F7  120A  118A  	fcall	_I2C_Master_Stop
  1393  04E6                     l3444:	
  1394                           
  1395                           ;Carcelero.c: 347:         _delay((unsigned long)((100)*(4000000/4000.0)));
  1396  04E6  3082               	movlw	130
  1397  04E7  1683               	bsf	3,5	;RP0=1, select bank3
  1398  04E8  1703               	bsf	3,6	;RP1=1, select bank3
  1399  04E9  0091               	movwf	(??_main^(0+384)+1)
  1400  04EA  30DD               	movlw	221
  1401  04EB  0090               	movwf	??_main^(0+384)
  1402  04EC                     u3767:	
  1403  04EC  0B90               	decfsz	??_main^(0+384),f
  1404  04ED  2CEC               	goto	u3767
  1405  04EE  0B91               	decfsz	(??_main^(0+384)+1),f
  1406  04EF  2CEC               	goto	u3767
  1407  04F0                     l3446:	
  1408                           
  1409                           ;Carcelero.c: 350:         I2C_Master_Start();
  1410  04F0  160A  118A  25EE  120A  118A  	fcall	_I2C_Master_Start
  1411  04F5                     l3448:	
  1412                           
  1413                           ;Carcelero.c: 351:         I2C_Master_Write(0x41);
  1414  04F5  3041               	movlw	65
  1415  04F6  00F2               	movwf	I2C_Master_Write@d
  1416  04F7  3000               	movlw	0
  1417  04F8  00F3               	movwf	I2C_Master_Write@d+1
  1418  04F9  160A  118A  2600  120A  118A  	fcall	_I2C_Master_Write
  1419  04FE                     l3450:	
  1420                           
  1421                           ;Carcelero.c: 352:         Humo = I2C_Master_Read(0);
  1422  04FE  3000               	movlw	0
  1423  04FF  00F2               	movwf	I2C_Master_Read@a
  1424  0500  00F3               	movwf	I2C_Master_Read@a+1
  1425  0501  160A  118A  272F  120A  118A  	fcall	_I2C_Master_Read
  1426  0506  0872               	movf	?_I2C_Master_Read,w
  1427  0507  1683               	bsf	3,5	;RP0=1, select bank3
  1428  0508  1703               	bsf	3,6	;RP1=1, select bank3
  1429  0509  0090               	movwf	??_main^(0+384)
  1430  050A  0810               	movf	??_main^(0+384),w
  1431  050B  00F9               	movwf	_Humo
  1432  050C                     l3452:	
  1433                           
  1434                           ;Carcelero.c: 353:         I2C_Master_Stop();
  1435  050C  160A  118A  25F7  120A  118A  	fcall	_I2C_Master_Stop
  1436  0511                     l3454:	
  1437                           
  1438                           ;Carcelero.c: 354:         _delay((unsigned long)((100)*(4000000/4000.0)));
  1439  0511  3082               	movlw	130
  1440  0512  1683               	bsf	3,5	;RP0=1, select bank3
  1441  0513  1703               	bsf	3,6	;RP1=1, select bank3
  1442  0514  0091               	movwf	(??_main^(0+384)+1)
  1443  0515  30DD               	movlw	221
  1444  0516  0090               	movwf	??_main^(0+384)
  1445  0517                     u3777:	
  1446  0517  0B90               	decfsz	??_main^(0+384),f
  1447  0518  2D17               	goto	u3777
  1448  0519  0B91               	decfsz	(??_main^(0+384)+1),f
  1449  051A  2D17               	goto	u3777
  1450  051B                     l3456:	
  1451                           
  1452                           ;Carcelero.c: 357:         I2C_Master_Start();
  1453  051B  160A  118A  25EE  120A  118A  	fcall	_I2C_Master_Start
  1454  0520                     l3458:	
  1455                           
  1456                           ;Carcelero.c: 358:         I2C_Master_Write(0x51);
  1457  0520  3051               	movlw	81
  1458  0521  00F2               	movwf	I2C_Master_Write@d
  1459  0522  3000               	movlw	0
  1460  0523  00F3               	movwf	I2C_Master_Write@d+1
  1461  0524  160A  118A  2600  120A  118A  	fcall	_I2C_Master_Write
  1462  0529                     l3460:	
  1463                           
  1464                           ;Carcelero.c: 359:         Temp = I2C_Master_Read(0);
  1465  0529  3000               	movlw	0
  1466  052A  00F2               	movwf	I2C_Master_Read@a
  1467  052B  00F3               	movwf	I2C_Master_Read@a+1
  1468  052C  160A  118A  272F  120A  118A  	fcall	_I2C_Master_Read
  1469  0531  0872               	movf	?_I2C_Master_Read,w
  1470  0532  1683               	bsf	3,5	;RP0=1, select bank3
  1471  0533  1703               	bsf	3,6	;RP1=1, select bank3
  1472  0534  0090               	movwf	??_main^(0+384)
  1473  0535  0810               	movf	??_main^(0+384),w
  1474  0536  1283               	bcf	3,5	;RP0=0, select bank0
  1475  0537  1303               	bcf	3,6	;RP1=0, select bank0
  1476  0538  00EE               	movwf	_Temp
  1477  0539                     l3462:	
  1478                           
  1479                           ;Carcelero.c: 360:         I2C_Master_Stop();
  1480  0539  160A  118A  25F7  120A  118A  	fcall	_I2C_Master_Stop
  1481  053E                     l3464:	
  1482                           
  1483                           ;Carcelero.c: 361:         _delay((unsigned long)((100)*(4000000/4000.0)));
  1484  053E  3082               	movlw	130
  1485  053F  1683               	bsf	3,5	;RP0=1, select bank3
  1486  0540  1703               	bsf	3,6	;RP1=1, select bank3
  1487  0541  0091               	movwf	(??_main^(0+384)+1)
  1488  0542  30DD               	movlw	221
  1489  0543  0090               	movwf	??_main^(0+384)
  1490  0544                     u3787:	
  1491  0544  0B90               	decfsz	??_main^(0+384),f
  1492  0545  2D44               	goto	u3787
  1493  0546  0B91               	decfsz	(??_main^(0+384)+1),f
  1494  0547  2D44               	goto	u3787
  1495  0548                     l3466:	
  1496                           
  1497                           ;Carcelero.c: 364:         luces();
  1498  0548  120A  118A  2695  120A  118A  	fcall	_luces
  1499  054D                     l3468:	
  1500                           
  1501                           ;Carcelero.c: 365:         celda();
  1502  054D  120A  158A  21AD  120A  118A  	fcall	_celda
  1503  0552                     l3470:	
  1504                           
  1505                           ;Carcelero.c: 366:         ultrasonico();
  1506  0552  120A  158A  22F5  120A  118A  	fcall	_ultrasonico
  1507  0557                     l3472:	
  1508                           
  1509                           ;Carcelero.c: 367:         humo();
  1510  0557  120A  158A  244E  120A  118A  	fcall	_humo
  1511  055C                     l3474:	
  1512                           
  1513                           ;Carcelero.c: 368:         temperatura();
  1514  055C  120A  158A  2528  120A  118A  	fcall	_temperatura
  1515  0561                     l3476:	
  1516                           
  1517                           ;Carcelero.c: 371:         if (minute == 8)
  1518  0561  3008               	movlw	8
  1519  0562  1683               	bsf	3,5	;RP0=1, select bank1
  1520  0563  1303               	bcf	3,6	;RP1=0, select bank1
  1521  0564  0632               	xorwf	_minute^(0+128),w
  1522  0565  0433               	iorwf	(_minute+1)^(0+128),w
  1523  0566  1D03               	btfss	3,2
  1524  0567  2D69               	goto	u3711
  1525  0568  2D6A               	goto	u3710
  1526  0569                     u3711:	
  1527  0569  2D7E               	goto	l3482
  1528  056A                     u3710:	
  1529  056A                     l3478:	
  1530                           
  1531                           ;Carcelero.c: 372:         {;Carcelero.c: 373:             PORTDbits.RD0 = 0;
  1532  056A  1283               	bcf	3,5	;RP0=0, select bank0
  1533  056B  1303               	bcf	3,6	;RP1=0, select bank0
  1534  056C  1008               	bcf	8,0	;volatile
  1535                           
  1536                           ;Carcelero.c: 374:             PORTDbits.RD2 = 0;
  1537  056D  1108               	bcf	8,2	;volatile
  1538  056E                     l3480:	
  1539                           
  1540                           ;Carcelero.c: 375:             _delay((unsigned long)((200)*(4000000/4000.0)));
  1541  056E  3002               	movlw	2
  1542  056F  1683               	bsf	3,5	;RP0=1, select bank3
  1543  0570  1703               	bsf	3,6	;RP1=1, select bank3
  1544  0571  0092               	movwf	(??_main^(0+384)+2)
  1545  0572  3004               	movlw	4
  1546  0573  0091               	movwf	(??_main^(0+384)+1)
  1547  0574  30B9               	movlw	185
  1548  0575  0090               	movwf	??_main^(0+384)
  1549  0576                     u3797:	
  1550  0576  0B90               	decfsz	??_main^(0+384),f
  1551  0577  2D76               	goto	u3797
  1552  0578  0B91               	decfsz	(??_main^(0+384)+1),f
  1553  0579  2D76               	goto	u3797
  1554  057A  0B92               	decfsz	(??_main^(0+384)+2),f
  1555  057B  2D76               	goto	u3797
  1556  057C  2D7D               	nop2
  1557                           
  1558                           ;Carcelero.c: 377:         }
  1559  057D  2D8D               	goto	l3488
  1560  057E                     l3482:	
  1561  057E  300A               	movlw	10
  1562  057F  0632               	xorwf	_minute^(0+128),w
  1563  0580  0433               	iorwf	(_minute+1)^(0+128),w
  1564  0581  1D03               	btfss	3,2
  1565  0582  2D84               	goto	u3721
  1566  0583  2D85               	goto	u3720
  1567  0584                     u3721:	
  1568  0584  2D8A               	goto	l270
  1569  0585                     u3720:	
  1570  0585                     l3484:	
  1571                           
  1572                           ;Carcelero.c: 379:         {;Carcelero.c: 380:             PORTDbits.RD0 = 1;
  1573  0585  1283               	bcf	3,5	;RP0=0, select bank0
  1574  0586  1303               	bcf	3,6	;RP1=0, select bank0
  1575  0587  1408               	bsf	8,0	;volatile
  1576                           
  1577                           ;Carcelero.c: 381:             PORTDbits.RD2 = 0;
  1578  0588  1108               	bcf	8,2	;volatile
  1579  0589  2D6E               	goto	l3480
  1580  058A                     l270:	
  1581                           ;Carcelero.c: 384:         else
  1582                           
  1583                           
  1584                           ;Carcelero.c: 385:         {;Carcelero.c: 386:           PORTDbits.RD2 = 1;
  1585  058A  1283               	bcf	3,5	;RP0=0, select bank0
  1586  058B  1303               	bcf	3,6	;RP1=0, select bank0
  1587  058C  1508               	bsf	8,2	;volatile
  1588  058D                     l3488:	
  1589                           
  1590                           ;Carcelero.c: 389:         minute = read_RTC(1);
  1591  058D  3001               	movlw	1
  1592  058E  120A  158A  2002  120A  118A  	fcall	_read_RTC
  1593  0593  1683               	bsf	3,5	;RP0=1, select bank3
  1594  0594  1703               	bsf	3,6	;RP1=1, select bank3
  1595  0595  0090               	movwf	??_main^(0+384)
  1596  0596  0191               	clrf	(??_main^(0+384)+1)
  1597  0597  0810               	movf	??_main^(0+384),w
  1598  0598  1683               	bsf	3,5	;RP0=1, select bank1
  1599  0599  1303               	bcf	3,6	;RP1=0, select bank1
  1600  059A  00B2               	movwf	_minute^(0+128)
  1601  059B  1683               	bsf	3,5	;RP0=1, select bank3
  1602  059C  1703               	bsf	3,6	;RP1=1, select bank3
  1603  059D  0811               	movf	(??_main+1)^(0+384),w
  1604  059E  1683               	bsf	3,5	;RP0=1, select bank1
  1605  059F  1303               	bcf	3,6	;RP1=0, select bank1
  1606  05A0  00B3               	movwf	(_minute+1)^(0+128)
  1607                           
  1608                           ;Carcelero.c: 390:         hour = read_RTC(2);
  1609  05A1  3002               	movlw	2
  1610  05A2  120A  158A  2002  120A  118A  	fcall	_read_RTC
  1611  05A7  1683               	bsf	3,5	;RP0=1, select bank3
  1612  05A8  1703               	bsf	3,6	;RP1=1, select bank3
  1613  05A9  0090               	movwf	??_main^(0+384)
  1614  05AA  0191               	clrf	(??_main^(0+384)+1)
  1615  05AB  0810               	movf	??_main^(0+384),w
  1616  05AC  1683               	bsf	3,5	;RP0=1, select bank1
  1617  05AD  1303               	bcf	3,6	;RP1=0, select bank1
  1618  05AE  00B0               	movwf	_hour^(0+128)
  1619  05AF  1683               	bsf	3,5	;RP0=1, select bank3
  1620  05B0  1703               	bsf	3,6	;RP1=1, select bank3
  1621  05B1  0811               	movf	(??_main+1)^(0+384),w
  1622  05B2  1683               	bsf	3,5	;RP0=1, select bank1
  1623  05B3  1303               	bcf	3,6	;RP1=0, select bank1
  1624  05B4  00B1               	movwf	(_hour+1)^(0+128)
  1625  05B5                     l3490:	
  1626                           
  1627                           ;Carcelero.c: 391:         hr = hour & 0b00111111;
  1628  05B5  303F               	movlw	63
  1629  05B6  0530               	andwf	_hour^(0+128),w
  1630  05B7  00AE               	movwf	_hr^(0+128)
  1631  05B8  3000               	movlw	0
  1632  05B9  0531               	andwf	(_hour+1)^(0+128),w
  1633  05BA  00AF               	movwf	(_hr+1)^(0+128)
  1634  05BB                     l3492:	
  1635                           
  1636                           ;Carcelero.c: 393:         time[0] = MSB(hr);
  1637  05BB  082E               	movf	_hr^(0+128),w
  1638  05BC  160A  118A  2615  120A  118A  	fcall	_MSB
  1639  05C1  1683               	bsf	3,5	;RP0=1, select bank3
  1640  05C2  1703               	bsf	3,6	;RP1=1, select bank3
  1641  05C3  0090               	movwf	??_main^(0+384)
  1642  05C4  0810               	movf	??_main^(0+384),w
  1643  05C5  1683               	bsf	3,5	;RP0=1, select bank1
  1644  05C6  1303               	bcf	3,6	;RP1=0, select bank1
  1645  05C7  00E3               	movwf	_time^(0+128)
  1646  05C8                     l3494:	
  1647                           
  1648                           ;Carcelero.c: 394:         time[1] = LSB(hr);
  1649  05C8  082E               	movf	_hr^(0+128),w
  1650  05C9  160A  118A  25D8  120A  118A  	fcall	_LSB
  1651  05CE  1683               	bsf	3,5	;RP0=1, select bank3
  1652  05CF  1703               	bsf	3,6	;RP1=1, select bank3
  1653  05D0  0090               	movwf	??_main^(0+384)
  1654  05D1  0810               	movf	??_main^(0+384),w
  1655  05D2  1683               	bsf	3,5	;RP0=1, select bank1
  1656  05D3  1303               	bcf	3,6	;RP1=0, select bank1
  1657  05D4  00E4               	movwf	(_time^(0+128)+1)
  1658  05D5                     l3496:	
  1659                           
  1660                           ;Carcelero.c: 395:         time[3] = MSB(minute);
  1661  05D5  0832               	movf	_minute^(0+128),w
  1662  05D6  160A  118A  2615  120A  118A  	fcall	_MSB
  1663  05DB  1683               	bsf	3,5	;RP0=1, select bank3
  1664  05DC  1703               	bsf	3,6	;RP1=1, select bank3
  1665  05DD  0090               	movwf	??_main^(0+384)
  1666  05DE  0810               	movf	??_main^(0+384),w
  1667  05DF  1683               	bsf	3,5	;RP0=1, select bank1
  1668  05E0  1303               	bcf	3,6	;RP1=0, select bank1
  1669  05E1  00E6               	movwf	(_time^(0+128)+3)
  1670  05E2                     l3498:	
  1671                           
  1672                           ;Carcelero.c: 396:         time[4] = LSB(minute);
  1673  05E2  0832               	movf	_minute^(0+128),w
  1674  05E3  160A  118A  25D8  120A  118A  	fcall	_LSB
  1675  05E8  1683               	bsf	3,5	;RP0=1, select bank3
  1676  05E9  1703               	bsf	3,6	;RP1=1, select bank3
  1677  05EA  0090               	movwf	??_main^(0+384)
  1678  05EB  0810               	movf	??_main^(0+384),w
  1679  05EC  1683               	bsf	3,5	;RP0=1, select bank1
  1680  05ED  1303               	bcf	3,6	;RP1=0, select bank1
  1681  05EE  00E7               	movwf	(_time^(0+128)+4)
  1682  05EF                     l3500:	
  1683                           
  1684                           ;Carcelero.c: 398:         colocar(29,2);
  1685  05EF  3002               	movlw	2
  1686  05F0  1683               	bsf	3,5	;RP0=1, select bank3
  1687  05F1  1703               	bsf	3,6	;RP1=1, select bank3
  1688  05F2  0090               	movwf	??_main^(0+384)
  1689  05F3  0810               	movf	??_main^(0+384),w
  1690  05F4  00F5               	movwf	colocar@y
  1691  05F5  301D               	movlw	29
  1692  05F6  160A  118A  26E2  120A  118A  	fcall	_colocar
  1693  05FB                     l3502:	
  1694                           
  1695                           ;Carcelero.c: 399:         mostrar(time[0]);
  1696  05FB  1683               	bsf	3,5	;RP0=1, select bank1
  1697  05FC  1303               	bcf	3,6	;RP1=0, select bank1
  1698  05FD  0863               	movf	_time^(0+128),w
  1699  05FE  160A  118A  268C  120A  118A  	fcall	_mostrar
  1700  0603                     l3504:	
  1701                           
  1702                           ;Carcelero.c: 400:         colocar(30,2);
  1703  0603  3002               	movlw	2
  1704  0604  1683               	bsf	3,5	;RP0=1, select bank3
  1705  0605  1703               	bsf	3,6	;RP1=1, select bank3
  1706  0606  0090               	movwf	??_main^(0+384)
  1707  0607  0810               	movf	??_main^(0+384),w
  1708  0608  00F5               	movwf	colocar@y
  1709  0609  301E               	movlw	30
  1710  060A  160A  118A  26E2  120A  118A  	fcall	_colocar
  1711  060F                     l3506:	
  1712                           
  1713                           ;Carcelero.c: 401:         mostrar(time[1]);
  1714  060F  1683               	bsf	3,5	;RP0=1, select bank1
  1715  0610  1303               	bcf	3,6	;RP1=0, select bank1
  1716  0611  0864               	movf	(_time^(0+128)+1),w
  1717  0612  160A  118A  268C  120A  118A  	fcall	_mostrar
  1718  0617                     l3508:	
  1719                           
  1720                           ;Carcelero.c: 402:         colocar(32,2);
  1721  0617  3002               	movlw	2
  1722  0618  1683               	bsf	3,5	;RP0=1, select bank3
  1723  0619  1703               	bsf	3,6	;RP1=1, select bank3
  1724  061A  0090               	movwf	??_main^(0+384)
  1725  061B  0810               	movf	??_main^(0+384),w
  1726  061C  00F5               	movwf	colocar@y
  1727  061D  3020               	movlw	32
  1728  061E  160A  118A  26E2  120A  118A  	fcall	_colocar
  1729  0623                     l3510:	
  1730                           
  1731                           ;Carcelero.c: 403:         mostrar(time[3]);
  1732  0623  1683               	bsf	3,5	;RP0=1, select bank1
  1733  0624  1303               	bcf	3,6	;RP1=0, select bank1
  1734  0625  0866               	movf	(_time^(0+128)+3),w
  1735  0626  160A  118A  268C  120A  118A  	fcall	_mostrar
  1736  062B                     l3512:	
  1737                           
  1738                           ;Carcelero.c: 404:         colocar(33,2);
  1739  062B  3002               	movlw	2
  1740  062C  1683               	bsf	3,5	;RP0=1, select bank3
  1741  062D  1703               	bsf	3,6	;RP1=1, select bank3
  1742  062E  0090               	movwf	??_main^(0+384)
  1743  062F  0810               	movf	??_main^(0+384),w
  1744  0630  00F5               	movwf	colocar@y
  1745  0631  3021               	movlw	33
  1746  0632  160A  118A  26E2  120A  118A  	fcall	_colocar
  1747  0637                     l3514:	
  1748                           
  1749                           ;Carcelero.c: 405:         mostrar(time[4]);
  1750  0637  1683               	bsf	3,5	;RP0=1, select bank1
  1751  0638  1303               	bcf	3,6	;RP1=0, select bank1
  1752  0639  0867               	movf	(_time^(0+128)+4),w
  1753  063A  160A  118A  268C  120A  118A  	fcall	_mostrar
  1754  063F                     l3516:	
  1755                           
  1756                           ;Carcelero.c: 407:         _delay((unsigned long)((50)*(4000000/4000.0)));
  1757  063F  3041               	movlw	65
  1758  0640  1683               	bsf	3,5	;RP0=1, select bank3
  1759  0641  1703               	bsf	3,6	;RP1=1, select bank3
  1760  0642  0091               	movwf	(??_main^(0+384)+1)
  1761  0643  30ED               	movlw	237
  1762  0644  0090               	movwf	??_main^(0+384)
  1763  0645                     u3807:	
  1764  0645  0B90               	decfsz	??_main^(0+384),f
  1765  0646  2E45               	goto	u3807
  1766  0647  0B91               	decfsz	(??_main^(0+384)+1),f
  1767  0648  2E45               	goto	u3807
  1768  0649  2E4A               	nop2
  1769                           
  1770                           ;Carcelero.c: 410:         shift();
  1771  064A  160A  118A  262E  120A  118A  	fcall	_shift
  1772                           
  1773                           ;Carcelero.c: 413:         UARTenvINT(i);
  1774  064F  1683               	bsf	3,5	;RP0=1, select bank1
  1775  0650  1303               	bcf	3,6	;RP1=0, select bank1
  1776  0651  083B               	movf	(_i+1)^(0+128),w
  1777  0652  00F3               	movwf	UARTenvINT@x+1
  1778  0653  083A               	movf	_i^(0+128),w
  1779  0654  00F2               	movwf	UARTenvINT@x
  1780  0655  160A  118A  260A  120A  118A  	fcall	_UARTenvINT
  1781  065A                     l3518:	
  1782                           
  1783                           ;Carcelero.c: 414:         _delay((unsigned long)((10)*(4000000/4000.0)));
  1784  065A  300D               	movlw	13
  1785  065B  1683               	bsf	3,5	;RP0=1, select bank3
  1786  065C  1703               	bsf	3,6	;RP1=1, select bank3
  1787  065D  0091               	movwf	(??_main^(0+384)+1)
  1788  065E  30FB               	movlw	251
  1789  065F  0090               	movwf	??_main^(0+384)
  1790  0660                     u3817:	
  1791  0660  0B90               	decfsz	??_main^(0+384),f
  1792  0661  2E60               	goto	u3817
  1793  0662  0B91               	decfsz	(??_main^(0+384)+1),f
  1794  0663  2E60               	goto	u3817
  1795  0664                     l3520:	
  1796                           
  1797                           ;Carcelero.c: 417:         UARTenvINT(b[i]);
  1798  0664  1683               	bsf	3,5	;RP0=1, select bank1
  1799  0665  1303               	bcf	3,6	;RP1=0, select bank1
  1800  0666  083A               	movf	_i^(0+128),w
  1801  0667  1683               	bsf	3,5	;RP0=1, select bank3
  1802  0668  1703               	bsf	3,6	;RP1=1, select bank3
  1803  0669  0090               	movwf	??_main^(0+384)
  1804  066A  0710               	addwf	??_main^(0+384),w
  1805  066B  3EA0               	addlw	(low (_b| 0))& (0+255)
  1806  066C  0084               	movwf	4
  1807  066D  1383               	bcf	3,7	;select IRP bank1
  1808  066E  0800               	movf	0,w
  1809  066F  00F2               	movwf	UARTenvINT@x
  1810  0670  0A84               	incf	4,f
  1811  0671  0800               	movf	0,w
  1812  0672  00F3               	movwf	UARTenvINT@x+1
  1813  0673  160A  118A  260A  120A  118A  	fcall	_UARTenvINT
  1814  0678                     l3522:	
  1815                           
  1816                           ;Carcelero.c: 418:         _delay((unsigned long)((10)*(4000000/4000.0)));
  1817  0678  300D               	movlw	13
  1818  0679  1683               	bsf	3,5	;RP0=1, select bank3
  1819  067A  1703               	bsf	3,6	;RP1=1, select bank3
  1820  067B  0091               	movwf	(??_main^(0+384)+1)
  1821  067C  30FB               	movlw	251
  1822  067D  0090               	movwf	??_main^(0+384)
  1823  067E                     u3827:	
  1824  067E  0B90               	decfsz	??_main^(0+384),f
  1825  067F  2E7E               	goto	u3827
  1826  0680  0B91               	decfsz	(??_main^(0+384)+1),f
  1827  0681  2E7E               	goto	u3827
  1828  0682                     l3524:	
  1829                           
  1830                           ;Carcelero.c: 421:         i++;
  1831  0682  3001               	movlw	1
  1832  0683  1683               	bsf	3,5	;RP0=1, select bank1
  1833  0684  1303               	bcf	3,6	;RP1=0, select bank1
  1834  0685  07BA               	addwf	_i^(0+128),f
  1835  0686  1803               	skipnc
  1836  0687  0ABB               	incf	(_i+1)^(0+128),f
  1837  0688  3000               	movlw	0
  1838  0689  07BB               	addwf	(_i+1)^(0+128),f
  1839  068A                     l3526:	
  1840                           
  1841                           ;Carcelero.c: 425:         if (i == 5)
  1842  068A  3005               	movlw	5
  1843  068B  063A               	xorwf	_i^(0+128),w
  1844  068C  043B               	iorwf	(_i+1)^(0+128),w
  1845  068D  1D03               	btfss	3,2
  1846  068E  2E90               	goto	u3731
  1847  068F  2E91               	goto	u3730
  1848  0690                     u3731:	
  1849  0690  2C6D               	goto	l3416
  1850  0691                     u3730:	
  1851  0691  2C69               	goto	l3414
  1852  0692  120A  118A  280C   	ljmp	start
  1853  0695                     __end_of_main:	
  1854                           
  1855                           	psect	text1
  1856  08F1                     __ptext1:	
  1857 ;; *************** function _write_RTC *****************
  1858 ;; Defined at:
  1859 ;;		line 444 in file "Carcelero.c"
  1860 ;; Parameters:    Size  Location     Type
  1861 ;;		None
  1862 ;; Auto vars:     Size  Location     Type
  1863 ;;		None
  1864 ;; Return value:  Size  Location     Type
  1865 ;;                  1    wreg      void 
  1866 ;; Registers used:
  1867 ;;		wreg, status,2, status,0, pclath, cstack
  1868 ;; Tracked objects:
  1869 ;;		On entry : 0/0
  1870 ;;		On exit  : 0/0
  1871 ;;		Unchanged: 0/0
  1872 ;; Data sizes:     COMMON   BANK0   BANK1   BANK3   BANK2
  1873 ;;      Params:         0       0       0       0       0
  1874 ;;      Locals:         0       0       0       0       0
  1875 ;;      Temps:          0       0       0       0       0
  1876 ;;      Totals:         0       0       0       0       0
  1877 ;;Total ram usage:        0 bytes
  1878 ;; Hardware stack levels used:    1
  1879 ;; Hardware stack levels required when called:    3
  1880 ;; This function calls:
  1881 ;;		_I2C_Master_Start
  1882 ;;		_I2C_Master_Stop
  1883 ;;		_I2C_Master_Write
  1884 ;; This function is called by:
  1885 ;;		_main
  1886 ;; This function uses a non-reentrant model
  1887 ;;
  1888                           
  1889                           
  1890                           ;psect for function _write_RTC
  1891  08F1                     _write_RTC:	
  1892  08F1                     l2674:	
  1893                           ;incstack = 0
  1894                           ; Regs used in _write_RTC: [wreg+status,2+status,0+pclath+cstack]
  1895                           
  1896                           
  1897                           ;Carcelero.c: 446:         I2C_Master_Start();
  1898  08F1  160A  118A  25EE  120A  158A  	fcall	_I2C_Master_Start
  1899                           
  1900                           ;Carcelero.c: 447:         I2C_Master_Write(0xD0);
  1901  08F6  30D0               	movlw	208
  1902  08F7  00F2               	movwf	I2C_Master_Write@d
  1903  08F8  3000               	movlw	0
  1904  08F9  00F3               	movwf	I2C_Master_Write@d+1
  1905  08FA  160A  118A  2600  120A  158A  	fcall	_I2C_Master_Write
  1906                           
  1907                           ;Carcelero.c: 448:         I2C_Master_Write(0x00);
  1908  08FF  3000               	movlw	0
  1909  0900  00F2               	movwf	I2C_Master_Write@d
  1910  0901  00F3               	movwf	I2C_Master_Write@d+1
  1911  0902  160A  118A  2600  120A  158A  	fcall	_I2C_Master_Write
  1912                           
  1913                           ;Carcelero.c: 450:         I2C_Master_Write(0b00010001);
  1914  0907  3011               	movlw	17
  1915  0908  00F2               	movwf	I2C_Master_Write@d
  1916  0909  3000               	movlw	0
  1917  090A  00F3               	movwf	I2C_Master_Write@d+1
  1918  090B  160A  118A  2600  120A  158A  	fcall	_I2C_Master_Write
  1919                           
  1920                           ;Carcelero.c: 451:         I2C_Master_Write(0b00010001);
  1921  0910  3011               	movlw	17
  1922  0911  00F2               	movwf	I2C_Master_Write@d
  1923  0912  3000               	movlw	0
  1924  0913  00F3               	movwf	I2C_Master_Write@d+1
  1925  0914  160A  118A  2600  120A  158A  	fcall	_I2C_Master_Write
  1926                           
  1927                           ;Carcelero.c: 452:         I2C_Master_Write(0b00000001);
  1928  0919  3001               	movlw	1
  1929  091A  00F2               	movwf	I2C_Master_Write@d
  1930  091B  3000               	movlw	0
  1931  091C  00F3               	movwf	I2C_Master_Write@d+1
  1932  091D  160A  118A  2600  120A  158A  	fcall	_I2C_Master_Write
  1933                           
  1934                           ;Carcelero.c: 454:         I2C_Master_Write(0b00000001);
  1935  0922  3001               	movlw	1
  1936  0923  00F2               	movwf	I2C_Master_Write@d
  1937  0924  3000               	movlw	0
  1938  0925  00F3               	movwf	I2C_Master_Write@d+1
  1939  0926  160A  118A  2600  120A  158A  	fcall	_I2C_Master_Write
  1940                           
  1941                           ;Carcelero.c: 455:         I2C_Master_Write(0b00000001);
  1942  092B  3001               	movlw	1
  1943  092C  00F2               	movwf	I2C_Master_Write@d
  1944  092D  3000               	movlw	0
  1945  092E  00F3               	movwf	I2C_Master_Write@d+1
  1946  092F  160A  118A  2600  120A  158A  	fcall	_I2C_Master_Write
  1947                           
  1948                           ;Carcelero.c: 456:         I2C_Master_Write(0b00000011);
  1949  0934  3003               	movlw	3
  1950  0935  00F2               	movwf	I2C_Master_Write@d
  1951  0936  3000               	movlw	0
  1952  0937  00F3               	movwf	I2C_Master_Write@d+1
  1953  0938  160A  118A  2600  120A  158A  	fcall	_I2C_Master_Write
  1954                           
  1955                           ;Carcelero.c: 457:         I2C_Master_Write(0b00100000);
  1956  093D  3020               	movlw	32
  1957  093E  00F2               	movwf	I2C_Master_Write@d
  1958  093F  3000               	movlw	0
  1959  0940  00F3               	movwf	I2C_Master_Write@d+1
  1960  0941  160A  118A  2600  120A  158A  	fcall	_I2C_Master_Write
  1961                           
  1962                           ;Carcelero.c: 458:         I2C_Master_Stop();
  1963  0946  160A  118A  25F7  120A  158A  	fcall	_I2C_Master_Stop
  1964  094B                     l281:	
  1965  094B  0008               	return
  1966  094C                     __end_of_write_RTC:	
  1967                           
  1968                           	psect	text2
  1969  0AF5                     __ptext2:	
  1970 ;; *************** function _ultrasonico *****************
  1971 ;; Defined at:
  1972 ;;		line 173 in file "Carcelero.c"
  1973 ;; Parameters:    Size  Location     Type
  1974 ;;		None
  1975 ;; Auto vars:     Size  Location     Type
  1976 ;;		None
  1977 ;; Return value:  Size  Location     Type
  1978 ;;                  1    wreg      void 
  1979 ;; Registers used:
  1980 ;;		wreg, fsr0l, fsr0h, status,2, status,0, pclath, cstack
  1981 ;; Tracked objects:
  1982 ;;		On entry : 0/0
  1983 ;;		On exit  : 0/0
  1984 ;;		Unchanged: 0/0
  1985 ;; Data sizes:     COMMON   BANK0   BANK1   BANK3   BANK2
  1986 ;;      Params:         0       0       0       0       0
  1987 ;;      Locals:         0       0       0       0       0
  1988 ;;      Temps:          0       2       0       0       0
  1989 ;;      Totals:         0       2       0       0       0
  1990 ;;Total ram usage:        2 bytes
  1991 ;; Hardware stack levels used:    1
  1992 ;; Hardware stack levels required when called:    3
  1993 ;; This function calls:
  1994 ;;		___awdiv
  1995 ;;		___awmod
  1996 ;;		_colocar
  1997 ;;		_imprimir
  1998 ;;		_mostrar
  1999 ;; This function is called by:
  2000 ;;		_main
  2001 ;; This function uses a non-reentrant model
  2002 ;;
  2003                           
  2004                           
  2005                           ;psect for function _ultrasonico
  2006  0AF5                     _ultrasonico:	
  2007  0AF5                     l3274:	
  2008                           ;incstack = 0
  2009                           ; Regs used in _ultrasonico: [wreg-fsr0h+status,2+status,0+pclath+cstack]
  2010                           
  2011                           
  2012                           ;Carcelero.c: 175:     z = Distancia/10;
  2013  0AF5  300A               	movlw	10
  2014  0AF6  00F2               	movwf	___awdiv@divisor
  2015  0AF7  3000               	movlw	0
  2016  0AF8  00F3               	movwf	___awdiv@divisor+1
  2017  0AF9  087A               	movf	_Distancia,w
  2018  0AFA  1283               	bcf	3,5	;RP0=0, select bank0
  2019  0AFB  1303               	bcf	3,6	;RP1=0, select bank0
  2020  0AFC  00A4               	movwf	??_ultrasonico
  2021  0AFD  01A5               	clrf	??_ultrasonico+1
  2022  0AFE  0824               	movf	??_ultrasonico,w
  2023  0AFF  00F4               	movwf	___awdiv@dividend
  2024  0B00  0825               	movf	??_ultrasonico+1,w
  2025  0B01  00F5               	movwf	___awdiv@dividend+1
  2026  0B02  120A  118A  2797  120A  158A  	fcall	___awdiv
  2027  0B07  0873               	movf	?___awdiv+1,w
  2028  0B08  1683               	bsf	3,5	;RP0=1, select bank1
  2029  0B09  1303               	bcf	3,6	;RP1=0, select bank1
  2030  0B0A  00CF               	movwf	(_z+1)^(0+128)
  2031  0B0B  0872               	movf	?___awdiv,w
  2032  0B0C  00CE               	movwf	_z^(0+128)
  2033                           
  2034                           ;Carcelero.c: 176:     z1 = Distancia%10;
  2035  0B0D  300A               	movlw	10
  2036  0B0E  00F2               	movwf	___awmod@divisor
  2037  0B0F  3000               	movlw	0
  2038  0B10  00F3               	movwf	___awmod@divisor+1
  2039  0B11  087A               	movf	_Distancia,w
  2040  0B12  1283               	bcf	3,5	;RP0=0, select bank0
  2041  0B13  1303               	bcf	3,6	;RP1=0, select bank0
  2042  0B14  00A4               	movwf	??_ultrasonico
  2043  0B15  01A5               	clrf	??_ultrasonico+1
  2044  0B16  0824               	movf	??_ultrasonico,w
  2045  0B17  00F4               	movwf	___awmod@dividend
  2046  0B18  0825               	movf	??_ultrasonico+1,w
  2047  0B19  00F5               	movwf	___awmod@dividend+1
  2048  0B1A  120A  158A  2098  120A  158A  	fcall	___awmod
  2049  0B1F  0873               	movf	?___awmod+1,w
  2050  0B20  1683               	bsf	3,5	;RP0=1, select bank1
  2051  0B21  1303               	bcf	3,6	;RP1=0, select bank1
  2052  0B22  00CD               	movwf	(_z1+1)^(0+128)
  2053  0B23  0872               	movf	?___awmod,w
  2054  0B24  00CC               	movwf	_z1^(0+128)
  2055                           
  2056                           ;Carcelero.c: 178:     colocar(10,1);
  2057  0B25  01F5               	clrf	colocar@y
  2058  0B26  0AF5               	incf	colocar@y,f
  2059  0B27  300A               	movlw	10
  2060  0B28  160A  118A  26E2  120A  158A  	fcall	_colocar
  2061  0B2D                     l3276:	
  2062                           
  2063                           ;Carcelero.c: 179:     mostrar(a[z]);
  2064  0B2D  1683               	bsf	3,5	;RP0=1, select bank1
  2065  0B2E  1303               	bcf	3,6	;RP1=0, select bank1
  2066  0B2F  084E               	movf	_z^(0+128),w
  2067  0B30  3E01               	addlw	low ((_a-__stringbase)| (0+32768))
  2068  0B31  0084               	movwf	4
  2069  0B32  160A  118A  2000  120A  158A  	fcall	stringdir
  2070  0B37  160A  118A  268C  120A  158A  	fcall	_mostrar
  2071  0B3C                     l3278:	
  2072                           
  2073                           ;Carcelero.c: 180:     colocar(11,1);
  2074  0B3C  01F5               	clrf	colocar@y
  2075  0B3D  0AF5               	incf	colocar@y,f
  2076  0B3E  300B               	movlw	11
  2077  0B3F  160A  118A  26E2  120A  158A  	fcall	_colocar
  2078                           
  2079                           ;Carcelero.c: 181:     mostrar(a[z1]);
  2080  0B44  1683               	bsf	3,5	;RP0=1, select bank1
  2081  0B45  1303               	bcf	3,6	;RP1=0, select bank1
  2082  0B46  084C               	movf	_z1^(0+128),w
  2083  0B47  3E01               	addlw	low ((_a-__stringbase)| (0+32768))
  2084  0B48  0084               	movwf	4
  2085  0B49  160A  118A  2000  120A  158A  	fcall	stringdir
  2086  0B4E  160A  118A  268C  120A  158A  	fcall	_mostrar
  2087  0B53                     l3280:	
  2088                           
  2089                           ;Carcelero.c: 183:     if (Distancia < 8)
  2090  0B53  3008               	movlw	8
  2091  0B54  027A               	subwf	_Distancia,w
  2092  0B55  1803               	skipnc
  2093  0B56  2B58               	goto	u3671
  2094  0B57  2B59               	goto	u3670
  2095  0B58                     u3671:	
  2096  0B58  2B6F               	goto	l3288
  2097  0B59                     u3670:	
  2098  0B59                     l3282:	
  2099                           
  2100                           ;Carcelero.c: 184:     {;Carcelero.c: 185:         colocar(8,2);
  2101  0B59  3002               	movlw	2
  2102  0B5A  1283               	bcf	3,5	;RP0=0, select bank0
  2103  0B5B  1303               	bcf	3,6	;RP1=0, select bank0
  2104  0B5C  00A4               	movwf	??_ultrasonico
  2105  0B5D  0824               	movf	??_ultrasonico,w
  2106  0B5E  00F5               	movwf	colocar@y
  2107  0B5F  3008               	movlw	8
  2108  0B60  160A  118A  26E2  120A  158A  	fcall	_colocar
  2109  0B65                     l3284:	
  2110                           
  2111                           ;Carcelero.c: 186:         imprimir("ALERTA");
  2112  0B65  3012               	movlw	(low ((STR_1-__stringbase)| (0+32768)))& (0+255)
  2113  0B66  160A  118A  275D  120A  158A  	fcall	_imprimir
  2114  0B6B                     l3286:	
  2115                           
  2116                           ;Carcelero.c: 187:         PORTAbits.RA3 = 1;
  2117  0B6B  1283               	bcf	3,5	;RP0=0, select bank0
  2118  0B6C  1303               	bcf	3,6	;RP1=0, select bank0
  2119  0B6D  1585               	bsf	5,3	;volatile
  2120                           
  2121                           ;Carcelero.c: 188:     }
  2122  0B6E  2B84               	goto	l3294
  2123  0B6F                     l3288:	
  2124                           
  2125                           ;Carcelero.c: 191:     {;Carcelero.c: 192:         colocar(8,2);
  2126  0B6F  3002               	movlw	2
  2127  0B70  1283               	bcf	3,5	;RP0=0, select bank0
  2128  0B71  1303               	bcf	3,6	;RP1=0, select bank0
  2129  0B72  00A4               	movwf	??_ultrasonico
  2130  0B73  0824               	movf	??_ultrasonico,w
  2131  0B74  00F5               	movwf	colocar@y
  2132  0B75  3008               	movlw	8
  2133  0B76  160A  118A  26E2  120A  158A  	fcall	_colocar
  2134  0B7B                     l3290:	
  2135                           
  2136                           ;Carcelero.c: 193:         imprimir("      ");
  2137  0B7B  300B               	movlw	(low ((STR_2-__stringbase)| (0+32768)))& (0+255)
  2138  0B7C  160A  118A  275D  120A  158A  	fcall	_imprimir
  2139  0B81                     l3292:	
  2140                           
  2141                           ;Carcelero.c: 194:         PORTAbits.RA3 = 0;
  2142  0B81  1283               	bcf	3,5	;RP0=0, select bank0
  2143  0B82  1303               	bcf	3,6	;RP1=0, select bank0
  2144  0B83  1185               	bcf	5,3	;volatile
  2145  0B84                     l3294:	
  2146                           
  2147                           ;Carcelero.c: 197:     b[2] = Distancia;
  2148  0B84  087A               	movf	_Distancia,w
  2149  0B85  00A4               	movwf	??_ultrasonico
  2150  0B86  01A5               	clrf	??_ultrasonico+1
  2151  0B87  0824               	movf	??_ultrasonico,w
  2152  0B88  1683               	bsf	3,5	;RP0=1, select bank1
  2153  0B89  1303               	bcf	3,6	;RP1=0, select bank1
  2154  0B8A  00A4               	movwf	(_b^(0+128)+4)
  2155  0B8B  1283               	bcf	3,5	;RP0=0, select bank0
  2156  0B8C  1303               	bcf	3,6	;RP1=0, select bank0
  2157  0B8D  0825               	movf	??_ultrasonico+1,w
  2158  0B8E  1683               	bsf	3,5	;RP0=1, select bank1
  2159  0B8F  1303               	bcf	3,6	;RP1=0, select bank1
  2160  0B90  00A5               	movwf	((_b+1)^(0+128)+4)
  2161  0B91                     l248:	
  2162  0B91  0008               	return
  2163  0B92                     __end_of_ultrasonico:	
  2164                           
  2165                           	psect	text3
  2166  0D28                     __ptext3:	
  2167 ;; *************** function _temperatura *****************
  2168 ;; Defined at:
  2169 ;;		line 115 in file "Carcelero.c"
  2170 ;; Parameters:    Size  Location     Type
  2171 ;;		None
  2172 ;; Auto vars:     Size  Location     Type
  2173 ;;		None
  2174 ;; Return value:  Size  Location     Type
  2175 ;;                  1    wreg      void 
  2176 ;; Registers used:
  2177 ;;		wreg, fsr0l, fsr0h, status,2, status,0, btemp+1, pclath, cstack
  2178 ;; Tracked objects:
  2179 ;;		On entry : 0/0
  2180 ;;		On exit  : 0/0
  2181 ;;		Unchanged: 0/0
  2182 ;; Data sizes:     COMMON   BANK0   BANK1   BANK3   BANK2
  2183 ;;      Params:         0       0       0       0       0
  2184 ;;      Locals:         0       0       0       0       0
  2185 ;;      Temps:          0       5       0       0       0
  2186 ;;      Totals:         0       5       0       0       0
  2187 ;;Total ram usage:        5 bytes
  2188 ;; Hardware stack levels used:    1
  2189 ;; Hardware stack levels required when called:    3
  2190 ;; This function calls:
  2191 ;;		___awdiv
  2192 ;;		___awmod
  2193 ;;		___fldiv
  2194 ;;		___flmul
  2195 ;;		___fltol
  2196 ;;		___xxtofl
  2197 ;;		_colocar
  2198 ;;		_mostrar
  2199 ;; This function is called by:
  2200 ;;		_main
  2201 ;; This function uses a non-reentrant model
  2202 ;;
  2203                           
  2204                           
  2205                           ;psect for function _temperatura
  2206  0D28                     _temperatura:	
  2207  0D28                     l3224:	
  2208                           ;incstack = 0
  2209                           ; Regs used in _temperatura: [wreg-fsr0h+status,2+status,0+btemp+1+pclath+cstack]
  2210                           
  2211                           
  2212                           ;Carcelero.c: 117:     calor = (500.0*Temp)/255;
  2213  0D28  1283               	bcf	3,5	;RP0=0, select bank0
  2214  0D29  1303               	bcf	3,6	;RP1=0, select bank0
  2215  0D2A  086E               	movf	_Temp,w
  2216  0D2B  00E7               	movwf	??_temperatura
  2217  0D2C  01E8               	clrf	??_temperatura+1
  2218  0D2D  01E9               	clrf	??_temperatura+2
  2219  0D2E  01EA               	clrf	??_temperatura+3
  2220  0D2F  086A               	movf	??_temperatura+3,w
  2221  0D30  00F5               	movwf	___xxtofl@val+3
  2222  0D31  0869               	movf	??_temperatura+2,w
  2223  0D32  00F4               	movwf	___xxtofl@val+2
  2224  0D33  0868               	movf	??_temperatura+1,w
  2225  0D34  00F3               	movwf	___xxtofl@val+1
  2226  0D35  0867               	movf	??_temperatura,w
  2227  0D36  00F2               	movwf	___xxtofl@val
  2228  0D37  3001               	movlw	1
  2229  0D38  120A  158A  2392  120A  158A  	fcall	___xxtofl
  2230  0D3D  0875               	movf	?___xxtofl+3,w
  2231  0D3E  1283               	bcf	3,5	;RP0=0, select bank0
  2232  0D3F  1303               	bcf	3,6	;RP1=0, select bank0
  2233  0D40  00B1               	movwf	___flmul@a+3
  2234  0D41  0874               	movf	?___xxtofl+2,w
  2235  0D42  00B0               	movwf	___flmul@a+2
  2236  0D43  0873               	movf	?___xxtofl+1,w
  2237  0D44  00AF               	movwf	___flmul@a+1
  2238  0D45  0872               	movf	?___xxtofl,w
  2239  0D46  00AE               	movwf	___flmul@a
  2240  0D47  3043               	movlw	67
  2241  0D48  00AD               	movwf	___flmul@b+3
  2242  0D49  30FA               	movlw	250
  2243  0D4A  00AC               	movwf	___flmul@b+2
  2244  0D4B  3000               	movlw	0
  2245  0D4C  00AB               	movwf	___flmul@b+1
  2246  0D4D  3000               	movlw	0
  2247  0D4E  00AA               	movwf	___flmul@b
  2248  0D4F  120A  118A  202F  120A  158A  	fcall	___flmul
  2249  0D54  1283               	bcf	3,5	;RP0=0, select bank0
  2250  0D55  1303               	bcf	3,6	;RP1=0, select bank0
  2251  0D56  082D               	movf	?___flmul+3,w
  2252  0D57  00CB               	movwf	___fldiv@b+3
  2253  0D58  082C               	movf	?___flmul+2,w
  2254  0D59  00CA               	movwf	___fldiv@b+2
  2255  0D5A  082B               	movf	?___flmul+1,w
  2256  0D5B  00C9               	movwf	___fldiv@b+1
  2257  0D5C  082A               	movf	?___flmul,w
  2258  0D5D  00C8               	movwf	___fldiv@b
  2259  0D5E  3043               	movlw	67
  2260  0D5F  00C7               	movwf	___fldiv@a+3
  2261  0D60  307F               	movlw	127
  2262  0D61  00C6               	movwf	___fldiv@a+2
  2263  0D62  3000               	movlw	0
  2264  0D63  00C5               	movwf	___fldiv@a+1
  2265  0D64  3000               	movlw	0
  2266  0D65  00C4               	movwf	___fldiv@a
  2267  0D66  120A  158A  2623  120A  158A  	fcall	___fldiv
  2268  0D6B  1283               	bcf	3,5	;RP0=0, select bank0
  2269  0D6C  1303               	bcf	3,6	;RP1=0, select bank0
  2270  0D6D  0847               	movf	?___fldiv+3,w
  2271  0D6E  00E1               	movwf	___fltol@f1+3
  2272  0D6F  0846               	movf	?___fldiv+2,w
  2273  0D70  00E0               	movwf	___fltol@f1+2
  2274  0D71  0845               	movf	?___fldiv+1,w
  2275  0D72  00DF               	movwf	___fltol@f1+1
  2276  0D73  0844               	movf	?___fldiv,w
  2277  0D74  00DE               	movwf	___fltol@f1
  2278  0D75  120A  158A  2279  120A  158A  	fcall	___fltol
  2279  0D7A  1283               	bcf	3,5	;RP0=0, select bank0
  2280  0D7B  1303               	bcf	3,6	;RP1=0, select bank0
  2281  0D7C  085E               	movf	?___fltol,w
  2282  0D7D  00EB               	movwf	??_temperatura+4
  2283  0D7E  086B               	movf	??_temperatura+4,w
  2284  0D7F  00EC               	movwf	_calor
  2285  0D80                     l3226:	
  2286                           
  2287                           ;Carcelero.c: 119:     t = calor/100;
  2288  0D80  3064               	movlw	100
  2289  0D81  00F2               	movwf	___awdiv@divisor
  2290  0D82  3000               	movlw	0
  2291  0D83  00F3               	movwf	___awdiv@divisor+1
  2292  0D84  086C               	movf	_calor,w
  2293  0D85  00E7               	movwf	??_temperatura
  2294  0D86  01E8               	clrf	??_temperatura+1
  2295  0D87  0867               	movf	??_temperatura,w
  2296  0D88  00F4               	movwf	___awdiv@dividend
  2297  0D89  0868               	movf	??_temperatura+1,w
  2298  0D8A  00F5               	movwf	___awdiv@dividend+1
  2299  0D8B  120A  118A  2797  120A  158A  	fcall	___awdiv
  2300  0D90  0873               	movf	?___awdiv+1,w
  2301  0D91  1683               	bsf	3,5	;RP0=1, select bank1
  2302  0D92  1303               	bcf	3,6	;RP1=0, select bank1
  2303  0D93  00C3               	movwf	(_t+1)^(0+128)
  2304  0D94  0872               	movf	?___awdiv,w
  2305  0D95  00C2               	movwf	_t^(0+128)
  2306  0D96                     l3228:	
  2307                           
  2308                           ;Carcelero.c: 120:     t1 = calor%100;
  2309  0D96  3064               	movlw	100
  2310  0D97  00F2               	movwf	___awmod@divisor
  2311  0D98  3000               	movlw	0
  2312  0D99  00F3               	movwf	___awmod@divisor+1
  2313  0D9A  1283               	bcf	3,5	;RP0=0, select bank0
  2314  0D9B  1303               	bcf	3,6	;RP1=0, select bank0
  2315  0D9C  086C               	movf	_calor,w
  2316  0D9D  00E7               	movwf	??_temperatura
  2317  0D9E  01E8               	clrf	??_temperatura+1
  2318  0D9F  0867               	movf	??_temperatura,w
  2319  0DA0  00F4               	movwf	___awmod@dividend
  2320  0DA1  0868               	movf	??_temperatura+1,w
  2321  0DA2  00F5               	movwf	___awmod@dividend+1
  2322  0DA3  120A  158A  2098  120A  158A  	fcall	___awmod
  2323  0DA8  0873               	movf	?___awmod+1,w
  2324  0DA9  1683               	bsf	3,5	;RP0=1, select bank1
  2325  0DAA  1303               	bcf	3,6	;RP1=0, select bank1
  2326  0DAB  00C1               	movwf	(_t1+1)^(0+128)
  2327  0DAC  0872               	movf	?___awmod,w
  2328  0DAD  00C0               	movwf	_t1^(0+128)
  2329  0DAE                     l3230:	
  2330                           
  2331                           ;Carcelero.c: 121:     t2 = t1/10;
  2332  0DAE  300A               	movlw	10
  2333  0DAF  00F2               	movwf	___awdiv@divisor
  2334  0DB0  3000               	movlw	0
  2335  0DB1  00F3               	movwf	___awdiv@divisor+1
  2336  0DB2  0841               	movf	(_t1+1)^(0+128),w
  2337  0DB3  00F5               	movwf	___awdiv@dividend+1
  2338  0DB4  0840               	movf	_t1^(0+128),w
  2339  0DB5  00F4               	movwf	___awdiv@dividend
  2340  0DB6  120A  118A  2797  120A  158A  	fcall	___awdiv
  2341  0DBB  0873               	movf	?___awdiv+1,w
  2342  0DBC  1683               	bsf	3,5	;RP0=1, select bank1
  2343  0DBD  1303               	bcf	3,6	;RP1=0, select bank1
  2344  0DBE  00BF               	movwf	(_t2+1)^(0+128)
  2345  0DBF  0872               	movf	?___awdiv,w
  2346  0DC0  00BE               	movwf	_t2^(0+128)
  2347  0DC1                     l3232:	
  2348                           
  2349                           ;Carcelero.c: 122:     t3 = t1%10;
  2350  0DC1  300A               	movlw	10
  2351  0DC2  00F2               	movwf	___awmod@divisor
  2352  0DC3  3000               	movlw	0
  2353  0DC4  00F3               	movwf	___awmod@divisor+1
  2354  0DC5  0841               	movf	(_t1+1)^(0+128),w
  2355  0DC6  00F5               	movwf	___awmod@dividend+1
  2356  0DC7  0840               	movf	_t1^(0+128),w
  2357  0DC8  00F4               	movwf	___awmod@dividend
  2358  0DC9  120A  158A  2098  120A  158A  	fcall	___awmod
  2359  0DCE  0873               	movf	?___awmod+1,w
  2360  0DCF  1683               	bsf	3,5	;RP0=1, select bank1
  2361  0DD0  1303               	bcf	3,6	;RP1=0, select bank1
  2362  0DD1  00BD               	movwf	(_t3+1)^(0+128)
  2363  0DD2  0872               	movf	?___awmod,w
  2364  0DD3  00BC               	movwf	_t3^(0+128)
  2365  0DD4                     l3234:	
  2366                           
  2367                           ;Carcelero.c: 124:     colocar(24,2);
  2368  0DD4  3002               	movlw	2
  2369  0DD5  1283               	bcf	3,5	;RP0=0, select bank0
  2370  0DD6  1303               	bcf	3,6	;RP1=0, select bank0
  2371  0DD7  00E7               	movwf	??_temperatura
  2372  0DD8  0867               	movf	??_temperatura,w
  2373  0DD9  00F5               	movwf	colocar@y
  2374  0DDA  3018               	movlw	24
  2375  0DDB  160A  118A  26E2  120A  158A  	fcall	_colocar
  2376  0DE0                     l3236:	
  2377                           
  2378                           ;Carcelero.c: 125:     mostrar(a[t2]);
  2379  0DE0  1683               	bsf	3,5	;RP0=1, select bank1
  2380  0DE1  1303               	bcf	3,6	;RP1=0, select bank1
  2381  0DE2  083E               	movf	_t2^(0+128),w
  2382  0DE3  3E01               	addlw	low ((_a-__stringbase)| (0+32768))
  2383  0DE4  0084               	movwf	4
  2384  0DE5  160A  118A  2000  120A  158A  	fcall	stringdir
  2385  0DEA  160A  118A  268C  120A  158A  	fcall	_mostrar
  2386  0DEF                     l3238:	
  2387                           
  2388                           ;Carcelero.c: 126:     colocar(25,2);
  2389  0DEF  3002               	movlw	2
  2390  0DF0  1283               	bcf	3,5	;RP0=0, select bank0
  2391  0DF1  1303               	bcf	3,6	;RP1=0, select bank0
  2392  0DF2  00E7               	movwf	??_temperatura
  2393  0DF3  0867               	movf	??_temperatura,w
  2394  0DF4  00F5               	movwf	colocar@y
  2395  0DF5  3019               	movlw	25
  2396  0DF6  160A  118A  26E2  120A  158A  	fcall	_colocar
  2397  0DFB                     l3240:	
  2398                           
  2399                           ;Carcelero.c: 127:     mostrar(a[t3]);
  2400  0DFB  1683               	bsf	3,5	;RP0=1, select bank1
  2401  0DFC  1303               	bcf	3,6	;RP1=0, select bank1
  2402  0DFD  083C               	movf	_t3^(0+128),w
  2403  0DFE  3E01               	addlw	low ((_a-__stringbase)| (0+32768))
  2404  0DFF  0084               	movwf	4
  2405  0E00  160A  118A  2000  120A  158A  	fcall	stringdir
  2406  0E05  160A  118A  268C  120A  158A  	fcall	_mostrar
  2407  0E0A                     l3242:	
  2408                           
  2409                           ;Carcelero.c: 129:     if (calor > 30)
  2410  0E0A  301F               	movlw	31
  2411  0E0B  1283               	bcf	3,5	;RP0=0, select bank0
  2412  0E0C  1303               	bcf	3,6	;RP1=0, select bank0
  2413  0E0D  026C               	subwf	_calor,w
  2414  0E0E  1C03               	skipc
  2415  0E0F  2E11               	goto	u3651
  2416  0E10  2E12               	goto	u3650
  2417  0E11                     u3651:	
  2418  0E11  2E14               	goto	l236
  2419  0E12                     u3650:	
  2420  0E12                     l3244:	
  2421                           
  2422                           ;Carcelero.c: 130:     {;Carcelero.c: 131:         PORTAbits.RA5 = 1;
  2423  0E12  1685               	bsf	5,5	;volatile
  2424                           
  2425                           ;Carcelero.c: 132:     }
  2426  0E13  2E15               	goto	l3246
  2427  0E14                     l236:	
  2428                           ;Carcelero.c: 134:     else
  2429                           
  2430                           
  2431                           ;Carcelero.c: 135:     {;Carcelero.c: 136:         PORTAbits.RA5 = 0;
  2432  0E14  1285               	bcf	5,5	;volatile
  2433  0E15                     l3246:	
  2434                           
  2435                           ;Carcelero.c: 139:     b[4] = calor;
  2436  0E15  086C               	movf	_calor,w
  2437  0E16  00E7               	movwf	??_temperatura
  2438  0E17  01E8               	clrf	??_temperatura+1
  2439  0E18  0867               	movf	??_temperatura,w
  2440  0E19  1683               	bsf	3,5	;RP0=1, select bank1
  2441  0E1A  1303               	bcf	3,6	;RP1=0, select bank1
  2442  0E1B  00A8               	movwf	(_b^(0+128)+8)
  2443  0E1C  1283               	bcf	3,5	;RP0=0, select bank0
  2444  0E1D  1303               	bcf	3,6	;RP1=0, select bank0
  2445  0E1E  0868               	movf	??_temperatura+1,w
  2446  0E1F  1683               	bsf	3,5	;RP0=1, select bank1
  2447  0E20  1303               	bcf	3,6	;RP1=0, select bank1
  2448  0E21  00A9               	movwf	((_b+1)^(0+128)+8)
  2449  0E22                     l238:	
  2450  0E22  0008               	return
  2451  0E23                     __end_of_temperatura:	
  2452                           
  2453                           	psect	text4
  2454  0B92                     __ptext4:	
  2455 ;; *************** function ___xxtofl *****************
  2456 ;; Defined at:
  2457 ;;		line 10 in file "C:\Program Files (x86)\Microchip\xc8\v2.10\pic\sources\c90\common\xxtofl.c"
  2458 ;; Parameters:    Size  Location     Type
  2459 ;;  sign            1    wreg     unsigned char 
  2460 ;;  val             4    2[COMMON] long 
  2461 ;; Auto vars:     Size  Location     Type
  2462 ;;  sign            1    4[BANK0 ] unsigned char 
  2463 ;;  arg             4    6[BANK0 ] unsigned long 
  2464 ;;  exp             1    5[BANK0 ] unsigned char 
  2465 ;; Return value:  Size  Location     Type
  2466 ;;                  4    2[COMMON] unsigned char 
  2467 ;; Registers used:
  2468 ;;		wreg, status,2, status,0
  2469 ;; Tracked objects:
  2470 ;;		On entry : 0/0
  2471 ;;		On exit  : 0/0
  2472 ;;		Unchanged: 0/0
  2473 ;; Data sizes:     COMMON   BANK0   BANK1   BANK3   BANK2
  2474 ;;      Params:         4       0       0       0       0
  2475 ;;      Locals:         0       6       0       0       0
  2476 ;;      Temps:          0       4       0       0       0
  2477 ;;      Totals:         4      10       0       0       0
  2478 ;;Total ram usage:       14 bytes
  2479 ;; Hardware stack levels used:    1
  2480 ;; Hardware stack levels required when called:    1
  2481 ;; This function calls:
  2482 ;;		Nothing
  2483 ;; This function is called by:
  2484 ;;		_temperatura
  2485 ;; This function uses a non-reentrant model
  2486 ;;
  2487                           
  2488                           
  2489                           ;psect for function ___xxtofl
  2490  0B92                     ___xxtofl:	
  2491                           
  2492                           ;incstack = 0
  2493                           ; Regs used in ___xxtofl: [wreg+status,2+status,0]
  2494                           ;___xxtofl@sign stored from wreg
  2495  0B92  1283               	bcf	3,5	;RP0=0, select bank0
  2496  0B93  1303               	bcf	3,6	;RP1=0, select bank0
  2497  0B94  00A4               	movwf	___xxtofl@sign
  2498  0B95                     l3168:	
  2499  0B95  0824               	movf	___xxtofl@sign,w
  2500  0B96  1903               	btfsc	3,2
  2501  0B97  2B99               	goto	u3501
  2502  0B98  2B9A               	goto	u3500
  2503  0B99                     u3501:	
  2504  0B99  2BAE               	goto	l3174
  2505  0B9A                     u3500:	
  2506  0B9A                     l3170:	
  2507  0B9A  1FF5               	btfss	___xxtofl@val+3,7
  2508  0B9B  2B9D               	goto	u3511
  2509  0B9C  2B9E               	goto	u3510
  2510  0B9D                     u3511:	
  2511  0B9D  2BAE               	goto	l3174
  2512  0B9E                     u3510:	
  2513  0B9E                     l3172:	
  2514  0B9E  0972               	comf	___xxtofl@val,w
  2515  0B9F  00A6               	movwf	___xxtofl@arg
  2516  0BA0  0973               	comf	___xxtofl@val+1,w
  2517  0BA1  00A7               	movwf	___xxtofl@arg+1
  2518  0BA2  0974               	comf	___xxtofl@val+2,w
  2519  0BA3  00A8               	movwf	___xxtofl@arg+2
  2520  0BA4  0975               	comf	___xxtofl@val+3,w
  2521  0BA5  00A9               	movwf	___xxtofl@arg+3
  2522  0BA6  0AA6               	incf	___xxtofl@arg,f
  2523  0BA7  1903               	skipnz
  2524  0BA8  0AA7               	incf	___xxtofl@arg+1,f
  2525  0BA9  1903               	skipnz
  2526  0BAA  0AA8               	incf	___xxtofl@arg+2,f
  2527  0BAB  1903               	skipnz
  2528  0BAC  0AA9               	incf	___xxtofl@arg+3,f
  2529  0BAD  2BB6               	goto	l803
  2530  0BAE                     l3174:	
  2531  0BAE  0875               	movf	___xxtofl@val+3,w
  2532  0BAF  00A9               	movwf	___xxtofl@arg+3
  2533  0BB0  0874               	movf	___xxtofl@val+2,w
  2534  0BB1  00A8               	movwf	___xxtofl@arg+2
  2535  0BB2  0873               	movf	___xxtofl@val+1,w
  2536  0BB3  00A7               	movwf	___xxtofl@arg+1
  2537  0BB4  0872               	movf	___xxtofl@val,w
  2538  0BB5  00A6               	movwf	___xxtofl@arg
  2539  0BB6                     l803:	
  2540  0BB6  0875               	movf	___xxtofl@val+3,w
  2541  0BB7  0474               	iorwf	___xxtofl@val+2,w
  2542  0BB8  0473               	iorwf	___xxtofl@val+1,w
  2543  0BB9  0472               	iorwf	___xxtofl@val,w
  2544  0BBA  1D03               	skipz
  2545  0BBB  2BBD               	goto	u3521
  2546  0BBC  2BBE               	goto	u3520
  2547  0BBD                     u3521:	
  2548  0BBD  2BC7               	goto	l3180
  2549  0BBE                     u3520:	
  2550  0BBE                     l3176:	
  2551  0BBE  3000               	movlw	0
  2552  0BBF  00F5               	movwf	?___xxtofl+3
  2553  0BC0  3000               	movlw	0
  2554  0BC1  00F4               	movwf	?___xxtofl+2
  2555  0BC2  3000               	movlw	0
  2556  0BC3  00F3               	movwf	?___xxtofl+1
  2557  0BC4  3000               	movlw	0
  2558  0BC5  00F2               	movwf	?___xxtofl
  2559  0BC6  2C4D               	goto	l805
  2560  0BC7                     l3180:	
  2561  0BC7  3096               	movlw	150
  2562  0BC8  00A0               	movwf	??___xxtofl
  2563  0BC9  0820               	movf	??___xxtofl,w
  2564  0BCA  00A5               	movwf	___xxtofl@exp
  2565  0BCB  2BD9               	goto	l3184
  2566  0BCC                     l3182:	
  2567  0BCC  3001               	movlw	1
  2568  0BCD  00A0               	movwf	??___xxtofl
  2569  0BCE  0820               	movf	??___xxtofl,w
  2570  0BCF  07A5               	addwf	___xxtofl@exp,f
  2571  0BD0  3001               	movlw	1
  2572  0BD1                     u3535:	
  2573  0BD1  1003               	clrc
  2574  0BD2  0CA9               	rrf	___xxtofl@arg+3,f
  2575  0BD3  0CA8               	rrf	___xxtofl@arg+2,f
  2576  0BD4  0CA7               	rrf	___xxtofl@arg+1,f
  2577  0BD5  0CA6               	rrf	___xxtofl@arg,f
  2578  0BD6  3EFF               	addlw	-1
  2579  0BD7  1D03               	skipz
  2580  0BD8  2BD1               	goto	u3535
  2581  0BD9                     l3184:	
  2582  0BD9  30FE               	movlw	254
  2583  0BDA  0529               	andwf	___xxtofl@arg+3,w
  2584  0BDB  1D03               	btfss	3,2
  2585  0BDC  2BDE               	goto	u3541
  2586  0BDD  2BDF               	goto	u3540
  2587  0BDE                     u3541:	
  2588  0BDE  2BCC               	goto	l3182
  2589  0BDF                     u3540:	
  2590  0BDF  2BFB               	goto	l809
  2591  0BE0                     l3186:	
  2592  0BE0  3001               	movlw	1
  2593  0BE1  00A0               	movwf	??___xxtofl
  2594  0BE2  0820               	movf	??___xxtofl,w
  2595  0BE3  07A5               	addwf	___xxtofl@exp,f
  2596  0BE4                     l3188:	
  2597  0BE4  3001               	movlw	1
  2598  0BE5  07A6               	addwf	___xxtofl@arg,f
  2599  0BE6  3000               	movlw	0
  2600  0BE7  1803               	skipnc
  2601  0BE8  3001               	movlw	1
  2602  0BE9  07A7               	addwf	___xxtofl@arg+1,f
  2603  0BEA  3000               	movlw	0
  2604  0BEB  1803               	skipnc
  2605  0BEC  3001               	movlw	1
  2606  0BED  07A8               	addwf	___xxtofl@arg+2,f
  2607  0BEE  3000               	movlw	0
  2608  0BEF  1803               	skipnc
  2609  0BF0  3001               	movlw	1
  2610  0BF1  07A9               	addwf	___xxtofl@arg+3,f
  2611  0BF2                     l3190:	
  2612  0BF2  3001               	movlw	1
  2613  0BF3                     u3555:	
  2614  0BF3  1003               	clrc
  2615  0BF4  0CA9               	rrf	___xxtofl@arg+3,f
  2616  0BF5  0CA8               	rrf	___xxtofl@arg+2,f
  2617  0BF6  0CA7               	rrf	___xxtofl@arg+1,f
  2618  0BF7  0CA6               	rrf	___xxtofl@arg,f
  2619  0BF8  3EFF               	addlw	-1
  2620  0BF9  1D03               	skipz
  2621  0BFA  2BF3               	goto	u3555
  2622  0BFB                     l809:	
  2623  0BFB  30FF               	movlw	255
  2624  0BFC  0529               	andwf	___xxtofl@arg+3,w
  2625  0BFD  1D03               	btfss	3,2
  2626  0BFE  2C00               	goto	u3561
  2627  0BFF  2C01               	goto	u3560
  2628  0C00                     u3561:	
  2629  0C00  2BE0               	goto	l3186
  2630  0C01                     u3560:	
  2631  0C01  2C0D               	goto	l3194
  2632  0C02                     l3192:	
  2633  0C02  3001               	movlw	1
  2634  0C03  02A5               	subwf	___xxtofl@exp,f
  2635  0C04  3001               	movlw	1
  2636  0C05  00A0               	movwf	??___xxtofl
  2637  0C06                     u3575:	
  2638  0C06  1003               	clrc
  2639  0C07  0DA6               	rlf	___xxtofl@arg,f
  2640  0C08  0DA7               	rlf	___xxtofl@arg+1,f
  2641  0C09  0DA8               	rlf	___xxtofl@arg+2,f
  2642  0C0A  0DA9               	rlf	___xxtofl@arg+3,f
  2643  0C0B  0BA0               	decfsz	??___xxtofl,f
  2644  0C0C  2C06               	goto	u3575
  2645  0C0D                     l3194:	
  2646  0C0D  1BA8               	btfsc	___xxtofl@arg+2,7
  2647  0C0E  2C10               	goto	u3581
  2648  0C0F  2C11               	goto	u3580
  2649  0C10                     u3581:	
  2650  0C10  2C17               	goto	l816
  2651  0C11                     u3580:	
  2652  0C11                     l3196:	
  2653  0C11  3002               	movlw	2
  2654  0C12  0225               	subwf	___xxtofl@exp,w
  2655  0C13  1803               	skipnc
  2656  0C14  2C16               	goto	u3591
  2657  0C15  2C17               	goto	u3590
  2658  0C16                     u3591:	
  2659  0C16  2C02               	goto	l3192
  2660  0C17                     u3590:	
  2661  0C17                     l816:	
  2662  0C17  1825               	btfsc	___xxtofl@exp,0
  2663  0C18  2C1A               	goto	u3601
  2664  0C19  2C1B               	goto	u3600
  2665  0C1A                     u3601:	
  2666  0C1A  2C23               	goto	l817
  2667  0C1B                     u3600:	
  2668  0C1B                     l3198:	
  2669  0C1B  30FF               	movlw	255
  2670  0C1C  05A6               	andwf	___xxtofl@arg,f
  2671  0C1D  30FF               	movlw	255
  2672  0C1E  05A7               	andwf	___xxtofl@arg+1,f
  2673  0C1F  307F               	movlw	127
  2674  0C20  05A8               	andwf	___xxtofl@arg+2,f
  2675  0C21  30FF               	movlw	255
  2676  0C22  05A9               	andwf	___xxtofl@arg+3,f
  2677  0C23                     l817:	
  2678  0C23  1003               	clrc
  2679  0C24  0CA5               	rrf	___xxtofl@exp,f
  2680  0C25                     l3200:	
  2681  0C25  0825               	movf	___xxtofl@exp,w
  2682  0C26  00A0               	movwf	??___xxtofl
  2683  0C27  01A1               	clrf	??___xxtofl+1
  2684  0C28  01A2               	clrf	??___xxtofl+2
  2685  0C29  01A3               	clrf	??___xxtofl+3
  2686  0C2A  3018               	movlw	24
  2687  0C2B                     u3615:	
  2688  0C2B  1003               	clrc
  2689  0C2C  0DA0               	rlf	??___xxtofl,f
  2690  0C2D  0DA1               	rlf	??___xxtofl+1,f
  2691  0C2E  0DA2               	rlf	??___xxtofl+2,f
  2692  0C2F  0DA3               	rlf	??___xxtofl+3,f
  2693  0C30                     u3610:	
  2694  0C30  3EFF               	addlw	-1
  2695  0C31  1D03               	skipz
  2696  0C32  2C2B               	goto	u3615
  2697  0C33  0820               	movf	??___xxtofl,w
  2698  0C34  04A6               	iorwf	___xxtofl@arg,f
  2699  0C35  0821               	movf	??___xxtofl+1,w
  2700  0C36  04A7               	iorwf	___xxtofl@arg+1,f
  2701  0C37  0822               	movf	??___xxtofl+2,w
  2702  0C38  04A8               	iorwf	___xxtofl@arg+2,f
  2703  0C39  0823               	movf	??___xxtofl+3,w
  2704  0C3A  04A9               	iorwf	___xxtofl@arg+3,f
  2705  0C3B                     l3202:	
  2706  0C3B  0824               	movf	___xxtofl@sign,w
  2707  0C3C  1903               	btfsc	3,2
  2708  0C3D  2C3F               	goto	u3621
  2709  0C3E  2C40               	goto	u3620
  2710  0C3F                     u3621:	
  2711  0C3F  2C45               	goto	l3208
  2712  0C40                     u3620:	
  2713  0C40                     l3204:	
  2714  0C40  1FF5               	btfss	___xxtofl@val+3,7
  2715  0C41  2C43               	goto	u3631
  2716  0C42  2C44               	goto	u3630
  2717  0C43                     u3631:	
  2718  0C43  2C45               	goto	l3208
  2719  0C44                     u3630:	
  2720  0C44                     l3206:	
  2721  0C44  17A9               	bsf	___xxtofl@arg+3,7
  2722  0C45                     l3208:	
  2723  0C45  0829               	movf	___xxtofl@arg+3,w
  2724  0C46  00F5               	movwf	?___xxtofl+3
  2725  0C47  0828               	movf	___xxtofl@arg+2,w
  2726  0C48  00F4               	movwf	?___xxtofl+2
  2727  0C49  0827               	movf	___xxtofl@arg+1,w
  2728  0C4A  00F3               	movwf	?___xxtofl+1
  2729  0C4B  0826               	movf	___xxtofl@arg,w
  2730  0C4C  00F2               	movwf	?___xxtofl
  2731  0C4D                     l805:	
  2732  0C4D  0008               	return
  2733  0C4E                     __end_of___xxtofl:	
  2734                           
  2735                           	psect	text5
  2736  0A79                     __ptext5:	
  2737 ;; *************** function ___fltol *****************
  2738 ;; Defined at:
  2739 ;;		line 43 in file "C:\Program Files (x86)\Microchip\xc8\v2.10\pic\sources\c90\common\fltol.c"
  2740 ;; Parameters:    Size  Location     Type
  2741 ;;  f1              4   62[BANK0 ] unsigned char 
  2742 ;; Auto vars:     Size  Location     Type
  2743 ;;  exp1            1    7[COMMON] unsigned char 
  2744 ;;  sign1           1    6[COMMON] unsigned char 
  2745 ;; Return value:  Size  Location     Type
  2746 ;;                  4   62[BANK0 ] long 
  2747 ;; Registers used:
  2748 ;;		wreg, status,2, status,0
  2749 ;; Tracked objects:
  2750 ;;		On entry : 0/0
  2751 ;;		On exit  : 0/0
  2752 ;;		Unchanged: 0/0
  2753 ;; Data sizes:     COMMON   BANK0   BANK1   BANK3   BANK2
  2754 ;;      Params:         0       4       0       0       0
  2755 ;;      Locals:         2       0       0       0       0
  2756 ;;      Temps:          0       5       0       0       0
  2757 ;;      Totals:         2       9       0       0       0
  2758 ;;Total ram usage:       11 bytes
  2759 ;; Hardware stack levels used:    1
  2760 ;; Hardware stack levels required when called:    1
  2761 ;; This function calls:
  2762 ;;		Nothing
  2763 ;; This function is called by:
  2764 ;;		_temperatura
  2765 ;; This function uses a non-reentrant model
  2766 ;;
  2767                           
  2768                           
  2769                           ;psect for function ___fltol
  2770  0A79                     ___fltol:	
  2771  0A79                     l2992:	
  2772                           ;incstack = 0
  2773                           ; Regs used in ___fltol: [wreg+status,2+status,0]
  2774                           
  2775  0A79  1003               	clrc
  2776  0A7A  1283               	bcf	3,5	;RP0=0, select bank0
  2777  0A7B  1303               	bcf	3,6	;RP1=0, select bank0
  2778  0A7C  0D60               	rlf	___fltol@f1+2,w
  2779  0A7D  0D61               	rlf	___fltol@f1+3,w
  2780  0A7E  00E2               	movwf	??___fltol
  2781  0A7F  0862               	movf	??___fltol,w
  2782  0A80  00F7               	movwf	___fltol@exp1
  2783  0A81  0877               	movf	___fltol@exp1,w
  2784  0A82  1D03               	btfss	3,2
  2785  0A83  2A85               	goto	u3031
  2786  0A84  2A86               	goto	u3030
  2787  0A85                     u3031:	
  2788  0A85  2A8F               	goto	l2998
  2789  0A86                     u3030:	
  2790  0A86                     l2994:	
  2791  0A86  3000               	movlw	0
  2792  0A87  00E1               	movwf	?___fltol+3
  2793  0A88  3000               	movlw	0
  2794  0A89  00E0               	movwf	?___fltol+2
  2795  0A8A  3000               	movlw	0
  2796  0A8B  00DF               	movwf	?___fltol+1
  2797  0A8C  3000               	movlw	0
  2798  0A8D  00DE               	movwf	?___fltol
  2799  0A8E  2AF4               	goto	l562
  2800  0A8F                     l2998:	
  2801  0A8F  085E               	movf	___fltol@f1,w
  2802  0A90  00E2               	movwf	??___fltol
  2803  0A91  085F               	movf	___fltol@f1+1,w
  2804  0A92  00E3               	movwf	??___fltol+1
  2805  0A93  0860               	movf	___fltol@f1+2,w
  2806  0A94  00E4               	movwf	??___fltol+2
  2807  0A95  0861               	movf	___fltol@f1+3,w
  2808  0A96  00E5               	movwf	??___fltol+3
  2809  0A97  301F               	movlw	31
  2810  0A98                     u3045:	
  2811  0A98  1003               	clrc
  2812  0A99  0CE5               	rrf	??___fltol+3,f
  2813  0A9A  0CE4               	rrf	??___fltol+2,f
  2814  0A9B  0CE3               	rrf	??___fltol+1,f
  2815  0A9C  0CE2               	rrf	??___fltol,f
  2816  0A9D                     u3040:	
  2817  0A9D  3EFF               	addlw	-1
  2818  0A9E  1D03               	skipz
  2819  0A9F  2A98               	goto	u3045
  2820  0AA0  0862               	movf	??___fltol,w
  2821  0AA1  00E6               	movwf	??___fltol+4
  2822  0AA2  0866               	movf	??___fltol+4,w
  2823  0AA3  00F6               	movwf	___fltol@sign1
  2824  0AA4                     l3000:	
  2825  0AA4  17E0               	bsf	___fltol@f1+2,7
  2826  0AA5                     l3002:	
  2827  0AA5  30FF               	movlw	255
  2828  0AA6  05DE               	andwf	___fltol@f1,f
  2829  0AA7  30FF               	movlw	255
  2830  0AA8  05DF               	andwf	___fltol@f1+1,f
  2831  0AA9  30FF               	movlw	255
  2832  0AAA  05E0               	andwf	___fltol@f1+2,f
  2833  0AAB  3000               	movlw	0
  2834  0AAC  05E1               	andwf	___fltol@f1+3,f
  2835  0AAD                     l3004:	
  2836  0AAD  3096               	movlw	150
  2837  0AAE  02F7               	subwf	___fltol@exp1,f
  2838  0AAF                     l3006:	
  2839  0AAF  1FF7               	btfss	___fltol@exp1,7
  2840  0AB0  2AB2               	goto	u3051
  2841  0AB1  2AB3               	goto	u3050
  2842  0AB2                     u3051:	
  2843  0AB2  2ACD               	goto	l3016
  2844  0AB3                     u3050:	
  2845  0AB3                     l3008:	
  2846  0AB3  0877               	movf	___fltol@exp1,w
  2847  0AB4  3A80               	xorlw	128
  2848  0AB5  3E97               	addlw	151
  2849  0AB6  1803               	skipnc
  2850  0AB7  2AB9               	goto	u3061
  2851  0AB8  2ABA               	goto	u3060
  2852  0AB9                     u3061:	
  2853  0AB9  2ABB               	goto	l3014
  2854  0ABA                     u3060:	
  2855  0ABA  2A86               	goto	l2994
  2856  0ABB                     l3014:	
  2857  0ABB  3001               	movlw	1
  2858  0ABC                     u3075:	
  2859  0ABC  1003               	clrc
  2860  0ABD  0CE1               	rrf	___fltol@f1+3,f
  2861  0ABE  0CE0               	rrf	___fltol@f1+2,f
  2862  0ABF  0CDF               	rrf	___fltol@f1+1,f
  2863  0AC0  0CDE               	rrf	___fltol@f1,f
  2864  0AC1  3EFF               	addlw	-1
  2865  0AC2  1D03               	skipz
  2866  0AC3  2ABC               	goto	u3075
  2867  0AC4  3001               	movlw	1
  2868  0AC5  00E2               	movwf	??___fltol
  2869  0AC6  0862               	movf	??___fltol,w
  2870  0AC7  07F7               	addwf	___fltol@exp1,f
  2871  0AC8  1D03               	btfss	3,2
  2872  0AC9  2ACB               	goto	u3081
  2873  0ACA  2ACC               	goto	u3080
  2874  0ACB                     u3081:	
  2875  0ACB  2ABB               	goto	l3014
  2876  0ACC                     u3080:	
  2877  0ACC  2AE4               	goto	l3024
  2878  0ACD                     l3016:	
  2879  0ACD  3020               	movlw	32
  2880  0ACE  0277               	subwf	___fltol@exp1,w
  2881  0ACF  1C03               	skipc
  2882  0AD0  2AD2               	goto	u3091
  2883  0AD1  2AD3               	goto	u3090
  2884  0AD2                     u3091:	
  2885  0AD2  2ADF               	goto	l569
  2886  0AD3                     u3090:	
  2887  0AD3  2A86               	goto	l2994
  2888  0AD4                     l3022:	
  2889  0AD4  3001               	movlw	1
  2890  0AD5  00E2               	movwf	??___fltol
  2891  0AD6                     u3105:	
  2892  0AD6  1003               	clrc
  2893  0AD7  0DDE               	rlf	___fltol@f1,f
  2894  0AD8  0DDF               	rlf	___fltol@f1+1,f
  2895  0AD9  0DE0               	rlf	___fltol@f1+2,f
  2896  0ADA  0DE1               	rlf	___fltol@f1+3,f
  2897  0ADB  0BE2               	decfsz	??___fltol,f
  2898  0ADC  2AD6               	goto	u3105
  2899  0ADD  3001               	movlw	1
  2900  0ADE  02F7               	subwf	___fltol@exp1,f
  2901  0ADF                     l569:	
  2902  0ADF  0877               	movf	___fltol@exp1,w
  2903  0AE0  1D03               	btfss	3,2
  2904  0AE1  2AE3               	goto	u3111
  2905  0AE2  2AE4               	goto	u3110
  2906  0AE3                     u3111:	
  2907  0AE3  2AD4               	goto	l3022
  2908  0AE4                     u3110:	
  2909  0AE4                     l3024:	
  2910  0AE4  0876               	movf	___fltol@sign1,w
  2911  0AE5  1903               	btfsc	3,2
  2912  0AE6  2AE8               	goto	u3121
  2913  0AE7  2AE9               	goto	u3120
  2914  0AE8                     u3121:	
  2915  0AE8  2AF4               	goto	l572
  2916  0AE9                     u3120:	
  2917  0AE9                     l3026:	
  2918  0AE9  09DE               	comf	___fltol@f1,f
  2919  0AEA  09DF               	comf	___fltol@f1+1,f
  2920  0AEB  09E0               	comf	___fltol@f1+2,f
  2921  0AEC  09E1               	comf	___fltol@f1+3,f
  2922  0AED  0ADE               	incf	___fltol@f1,f
  2923  0AEE  1903               	skipnz
  2924  0AEF  0ADF               	incf	___fltol@f1+1,f
  2925  0AF0  1903               	skipnz
  2926  0AF1  0AE0               	incf	___fltol@f1+2,f
  2927  0AF2  1903               	skipnz
  2928  0AF3  0AE1               	incf	___fltol@f1+3,f
  2929  0AF4                     l572:	
  2930  0AF4                     l562:	
  2931  0AF4  0008               	return
  2932  0AF5                     __end_of___fltol:	
  2933                           
  2934                           	psect	text6
  2935  002F                     __ptext6:	
  2936 ;; *************** function ___flmul *****************
  2937 ;; Defined at:
  2938 ;;		line 8 in file "C:\Program Files (x86)\Microchip\xc8\v2.10\pic\sources\c90\common\sprcmul.c"
  2939 ;; Parameters:    Size  Location     Type
  2940 ;;  b               4   10[BANK0 ] long 
  2941 ;;  a               4   14[BANK0 ] long 
  2942 ;; Auto vars:     Size  Location     Type
  2943 ;;  prod            4   30[BANK0 ] struct .
  2944 ;;  grs             4   25[BANK0 ] unsigned long 
  2945 ;;  temp            2   34[BANK0 ] struct .
  2946 ;;  bexp            1   29[BANK0 ] unsigned char 
  2947 ;;  aexp            1   24[BANK0 ] unsigned char 
  2948 ;;  sign            1   23[BANK0 ] unsigned char 
  2949 ;; Return value:  Size  Location     Type
  2950 ;;                  4   10[BANK0 ] unsigned char 
  2951 ;; Registers used:
  2952 ;;		wreg, status,2, status,0, btemp+1, pclath, cstack
  2953 ;; Tracked objects:
  2954 ;;		On entry : 0/0
  2955 ;;		On exit  : 0/0
  2956 ;;		Unchanged: 0/0
  2957 ;; Data sizes:     COMMON   BANK0   BANK1   BANK3   BANK2
  2958 ;;      Params:         0       8       0       0       0
  2959 ;;      Locals:         0      13       0       0       0
  2960 ;;      Temps:          0       5       0       0       0
  2961 ;;      Totals:         0      26       0       0       0
  2962 ;;Total ram usage:       26 bytes
  2963 ;; Hardware stack levels used:    1
  2964 ;; Hardware stack levels required when called:    2
  2965 ;; This function calls:
  2966 ;;		__Umul8_16
  2967 ;; This function is called by:
  2968 ;;		_temperatura
  2969 ;; This function uses a non-reentrant model
  2970 ;;
  2971                           
  2972                           
  2973                           ;psect for function ___flmul
  2974  002F                     ___flmul:	
  2975  002F                     l3028:	
  2976                           ;incstack = 0
  2977                           ; Regs used in ___flmul: [wreg+status,2+status,0+btemp+1+pclath+cstack]
  2978                           
  2979  002F  1283               	bcf	3,5	;RP0=0, select bank0
  2980  0030  1303               	bcf	3,6	;RP1=0, select bank0
  2981  0031  082D               	movf	___flmul@b+3,w
  2982  0032  3980               	andlw	128
  2983  0033  00B2               	movwf	??___flmul
  2984  0034  0832               	movf	??___flmul,w
  2985  0035  00B7               	movwf	___flmul@sign
  2986  0036                     l3030:	
  2987  0036  082D               	movf	___flmul@b+3,w
  2988  0037  00B2               	movwf	??___flmul
  2989  0038  0732               	addwf	??___flmul,w
  2990  0039  00B3               	movwf	??___flmul+1
  2991  003A  0833               	movf	??___flmul+1,w
  2992  003B  00BD               	movwf	___flmul@bexp
  2993  003C                     l3032:	
  2994  003C  1FAC               	btfss	___flmul@b+2,7
  2995  003D  283F               	goto	u3131
  2996  003E  2840               	goto	u3130
  2997  003F                     u3131:	
  2998  003F  2841               	goto	l3036
  2999  0040                     u3130:	
  3000  0040                     l3034:	
  3001  0040  143D               	bsf	___flmul@bexp,0
  3002  0041                     l3036:	
  3003  0041  083D               	movf	___flmul@bexp,w
  3004  0042  1903               	btfsc	3,2
  3005  0043  2845               	goto	u3141
  3006  0044  2846               	goto	u3140
  3007  0045                     u3141:	
  3008  0045  2855               	goto	l3044
  3009  0046                     u3140:	
  3010  0046                     l3038:	
  3011  0046  0A3D               	incf	___flmul@bexp,w
  3012  0047  1D03               	btfss	3,2
  3013  0048  284A               	goto	u3151
  3014  0049  284B               	goto	u3150
  3015  004A                     u3151:	
  3016  004A  2853               	goto	l3042
  3017  004B                     u3150:	
  3018  004B                     l3040:	
  3019  004B  3000               	movlw	0
  3020  004C  00AD               	movwf	___flmul@b+3
  3021  004D  3000               	movlw	0
  3022  004E  00AC               	movwf	___flmul@b+2
  3023  004F  3000               	movlw	0
  3024  0050  00AB               	movwf	___flmul@b+1
  3025  0051  3000               	movlw	0
  3026  0052  00AA               	movwf	___flmul@b
  3027  0053                     l3042:	
  3028  0053  17AC               	bsf	___flmul@b+2,7
  3029  0054  285D               	goto	l3046
  3030  0055                     l3044:	
  3031  0055  3000               	movlw	0
  3032  0056  00AD               	movwf	___flmul@b+3
  3033  0057  3000               	movlw	0
  3034  0058  00AC               	movwf	___flmul@b+2
  3035  0059  3000               	movlw	0
  3036  005A  00AB               	movwf	___flmul@b+1
  3037  005B  3000               	movlw	0
  3038  005C  00AA               	movwf	___flmul@b
  3039  005D                     l3046:	
  3040  005D  0831               	movf	___flmul@a+3,w
  3041  005E  3980               	andlw	128
  3042  005F  00B2               	movwf	??___flmul
  3043  0060  0832               	movf	??___flmul,w
  3044  0061  06B7               	xorwf	___flmul@sign,f
  3045  0062                     l3048:	
  3046  0062  0831               	movf	___flmul@a+3,w
  3047  0063  00B2               	movwf	??___flmul
  3048  0064  0732               	addwf	??___flmul,w
  3049  0065  00B3               	movwf	??___flmul+1
  3050  0066  0833               	movf	??___flmul+1,w
  3051  0067  00B8               	movwf	___flmul@aexp
  3052  0068                     l3050:	
  3053  0068  1FB0               	btfss	___flmul@a+2,7
  3054  0069  286B               	goto	u3161
  3055  006A  286C               	goto	u3160
  3056  006B                     u3161:	
  3057  006B  286D               	goto	l3054
  3058  006C                     u3160:	
  3059  006C                     l3052:	
  3060  006C  1438               	bsf	___flmul@aexp,0
  3061  006D                     l3054:	
  3062  006D  0838               	movf	___flmul@aexp,w
  3063  006E  1903               	btfsc	3,2
  3064  006F  2871               	goto	u3171
  3065  0070  2872               	goto	u3170
  3066  0071                     u3171:	
  3067  0071  2881               	goto	l3062
  3068  0072                     u3170:	
  3069  0072                     l3056:	
  3070  0072  0A38               	incf	___flmul@aexp,w
  3071  0073  1D03               	btfss	3,2
  3072  0074  2876               	goto	u3181
  3073  0075  2877               	goto	u3180
  3074  0076                     u3181:	
  3075  0076  287F               	goto	l3060
  3076  0077                     u3180:	
  3077  0077                     l3058:	
  3078  0077  3000               	movlw	0
  3079  0078  00B1               	movwf	___flmul@a+3
  3080  0079  3000               	movlw	0
  3081  007A  00B0               	movwf	___flmul@a+2
  3082  007B  3000               	movlw	0
  3083  007C  00AF               	movwf	___flmul@a+1
  3084  007D  3000               	movlw	0
  3085  007E  00AE               	movwf	___flmul@a
  3086  007F                     l3060:	
  3087  007F  17B0               	bsf	___flmul@a+2,7
  3088  0080  2889               	goto	l3064
  3089  0081                     l3062:	
  3090  0081  3000               	movlw	0
  3091  0082  00B1               	movwf	___flmul@a+3
  3092  0083  3000               	movlw	0
  3093  0084  00B0               	movwf	___flmul@a+2
  3094  0085  3000               	movlw	0
  3095  0086  00AF               	movwf	___flmul@a+1
  3096  0087  3000               	movlw	0
  3097  0088  00AE               	movwf	___flmul@a
  3098  0089                     l3064:	
  3099  0089  0838               	movf	___flmul@aexp,w
  3100  008A  1903               	btfsc	3,2
  3101  008B  288D               	goto	u3191
  3102  008C  288E               	goto	u3190
  3103  008D                     u3191:	
  3104  008D  2893               	goto	l3068
  3105  008E                     u3190:	
  3106  008E                     l3066:	
  3107  008E  083D               	movf	___flmul@bexp,w
  3108  008F  1D03               	btfss	3,2
  3109  0090  2892               	goto	u3201
  3110  0091  2893               	goto	u3200
  3111  0092                     u3201:	
  3112  0092  289C               	goto	l3072
  3113  0093                     u3200:	
  3114  0093                     l3068:	
  3115  0093  3000               	movlw	0
  3116  0094  00AD               	movwf	?___flmul+3
  3117  0095  3000               	movlw	0
  3118  0096  00AC               	movwf	?___flmul+2
  3119  0097  3000               	movlw	0
  3120  0098  00AB               	movwf	?___flmul+1
  3121  0099  3000               	movlw	0
  3122  009A  00AA               	movwf	?___flmul
  3123  009B  2B8F               	goto	l765
  3124  009C                     l3072:	
  3125  009C  082A               	movf	___flmul@b,w
  3126  009D  00B2               	movwf	??___flmul
  3127  009E  0832               	movf	??___flmul,w
  3128  009F  00F2               	movwf	__Umul8_16@multiplicand
  3129  00A0  0830               	movf	___flmul@a+2,w
  3130  00A1  160A  118A  2706  120A  118A  	fcall	__Umul8_16
  3131  00A6  0873               	movf	?__Umul8_16+1,w
  3132  00A7  1283               	bcf	3,5	;RP0=0, select bank0
  3133  00A8  1303               	bcf	3,6	;RP1=0, select bank0
  3134  00A9  00C3               	movwf	___flmul@temp+1
  3135  00AA  0872               	movf	?__Umul8_16,w
  3136  00AB  00C2               	movwf	___flmul@temp
  3137  00AC                     l3074:	
  3138  00AC  0842               	movf	___flmul@temp,w
  3139  00AD  00B2               	movwf	??___flmul
  3140  00AE  01B3               	clrf	??___flmul+1
  3141  00AF  01B4               	clrf	??___flmul+2
  3142  00B0  01B5               	clrf	??___flmul+3
  3143  00B1  0835               	movf	??___flmul+3,w
  3144  00B2  00BC               	movwf	___flmul@grs+3
  3145  00B3  0834               	movf	??___flmul+2,w
  3146  00B4  00BB               	movwf	___flmul@grs+2
  3147  00B5  0833               	movf	??___flmul+1,w
  3148  00B6  00BA               	movwf	___flmul@grs+1
  3149  00B7  0832               	movf	??___flmul,w
  3150  00B8  00B9               	movwf	___flmul@grs
  3151  00B9                     l3076:	
  3152  00B9  0843               	movf	___flmul@temp+1,w
  3153  00BA  00B2               	movwf	??___flmul
  3154  00BB  01B3               	clrf	??___flmul+1
  3155  00BC  01B4               	clrf	??___flmul+2
  3156  00BD  01B5               	clrf	??___flmul+3
  3157  00BE  0835               	movf	??___flmul+3,w
  3158  00BF  00C1               	movwf	___flmul@prod+3
  3159  00C0  0834               	movf	??___flmul+2,w
  3160  00C1  00C0               	movwf	___flmul@prod+2
  3161  00C2  0833               	movf	??___flmul+1,w
  3162  00C3  00BF               	movwf	___flmul@prod+1
  3163  00C4  0832               	movf	??___flmul,w
  3164  00C5  00BE               	movwf	___flmul@prod
  3165  00C6  082B               	movf	___flmul@b+1,w
  3166  00C7  00B2               	movwf	??___flmul
  3167  00C8  0832               	movf	??___flmul,w
  3168  00C9  00F2               	movwf	__Umul8_16@multiplicand
  3169  00CA  082F               	movf	___flmul@a+1,w
  3170  00CB  160A  118A  2706  120A  118A  	fcall	__Umul8_16
  3171  00D0  0873               	movf	?__Umul8_16+1,w
  3172  00D1  1283               	bcf	3,5	;RP0=0, select bank0
  3173  00D2  1303               	bcf	3,6	;RP1=0, select bank0
  3174  00D3  00C3               	movwf	___flmul@temp+1
  3175  00D4  0872               	movf	?__Umul8_16,w
  3176  00D5  00C2               	movwf	___flmul@temp
  3177  00D6                     l3078:	
  3178  00D6  0842               	movf	___flmul@temp,w
  3179  00D7  00B2               	movwf	??___flmul
  3180  00D8  01B3               	clrf	??___flmul+1
  3181  00D9  01B4               	clrf	??___flmul+2
  3182  00DA  01B5               	clrf	??___flmul+3
  3183  00DB  0832               	movf	??___flmul,w
  3184  00DC  07B9               	addwf	___flmul@grs,f
  3185  00DD  0833               	movf	??___flmul+1,w
  3186  00DE  1103               	clrz
  3187  00DF  1803               	skipnc
  3188  00E0  3E01               	addlw	1
  3189  00E1  1903               	skipnz
  3190  00E2  28E4               	goto	u3211
  3191  00E3  07BA               	addwf	___flmul@grs+1,f
  3192  00E4                     u3211:	
  3193  00E4  0834               	movf	??___flmul+2,w
  3194  00E5  1103               	clrz
  3195  00E6  1803               	skipnc
  3196  00E7  3E01               	addlw	1
  3197  00E8  1903               	skipnz
  3198  00E9  28EB               	goto	u3212
  3199  00EA  07BB               	addwf	___flmul@grs+2,f
  3200  00EB                     u3212:	
  3201  00EB  0835               	movf	??___flmul+3,w
  3202  00EC  1103               	clrz
  3203  00ED  1803               	skipnc
  3204  00EE  3E01               	addlw	1
  3205  00EF  1903               	skipnz
  3206  00F0  28F2               	goto	u3213
  3207  00F1  07BC               	addwf	___flmul@grs+3,f
  3208  00F2                     u3213:	
  3209  00F2                     l3080:	
  3210  00F2  0843               	movf	___flmul@temp+1,w
  3211  00F3  00B2               	movwf	??___flmul
  3212  00F4  01B3               	clrf	??___flmul+1
  3213  00F5  01B4               	clrf	??___flmul+2
  3214  00F6  01B5               	clrf	??___flmul+3
  3215  00F7  0832               	movf	??___flmul,w
  3216  00F8  07BE               	addwf	___flmul@prod,f
  3217  00F9  0833               	movf	??___flmul+1,w
  3218  00FA  1103               	clrz
  3219  00FB  1803               	skipnc
  3220  00FC  3E01               	addlw	1
  3221  00FD  1903               	skipnz
  3222  00FE  2900               	goto	u3221
  3223  00FF  07BF               	addwf	___flmul@prod+1,f
  3224  0100                     u3221:	
  3225  0100  0834               	movf	??___flmul+2,w
  3226  0101  1103               	clrz
  3227  0102  1803               	skipnc
  3228  0103  3E01               	addlw	1
  3229  0104  1903               	skipnz
  3230  0105  2907               	goto	u3222
  3231  0106  07C0               	addwf	___flmul@prod+2,f
  3232  0107                     u3222:	
  3233  0107  0835               	movf	??___flmul+3,w
  3234  0108  1103               	clrz
  3235  0109  1803               	skipnc
  3236  010A  3E01               	addlw	1
  3237  010B  1903               	skipnz
  3238  010C  290E               	goto	u3223
  3239  010D  07C1               	addwf	___flmul@prod+3,f
  3240  010E                     u3223:	
  3241  010E  082C               	movf	___flmul@b+2,w
  3242  010F  00B2               	movwf	??___flmul
  3243  0110  0832               	movf	??___flmul,w
  3244  0111  00F2               	movwf	__Umul8_16@multiplicand
  3245  0112  082E               	movf	___flmul@a,w
  3246  0113  160A  118A  2706  120A  118A  	fcall	__Umul8_16
  3247  0118  0873               	movf	?__Umul8_16+1,w
  3248  0119  1283               	bcf	3,5	;RP0=0, select bank0
  3249  011A  1303               	bcf	3,6	;RP1=0, select bank0
  3250  011B  00C3               	movwf	___flmul@temp+1
  3251  011C  0872               	movf	?__Umul8_16,w
  3252  011D  00C2               	movwf	___flmul@temp
  3253  011E                     l3082:	
  3254  011E  0842               	movf	___flmul@temp,w
  3255  011F  00B2               	movwf	??___flmul
  3256  0120  01B3               	clrf	??___flmul+1
  3257  0121  01B4               	clrf	??___flmul+2
  3258  0122  01B5               	clrf	??___flmul+3
  3259  0123  0832               	movf	??___flmul,w
  3260  0124  07B9               	addwf	___flmul@grs,f
  3261  0125  0833               	movf	??___flmul+1,w
  3262  0126  1103               	clrz
  3263  0127  1803               	skipnc
  3264  0128  3E01               	addlw	1
  3265  0129  1903               	skipnz
  3266  012A  292C               	goto	u3231
  3267  012B  07BA               	addwf	___flmul@grs+1,f
  3268  012C                     u3231:	
  3269  012C  0834               	movf	??___flmul+2,w
  3270  012D  1103               	clrz
  3271  012E  1803               	skipnc
  3272  012F  3E01               	addlw	1
  3273  0130  1903               	skipnz
  3274  0131  2933               	goto	u3232
  3275  0132  07BB               	addwf	___flmul@grs+2,f
  3276  0133                     u3232:	
  3277  0133  0835               	movf	??___flmul+3,w
  3278  0134  1103               	clrz
  3279  0135  1803               	skipnc
  3280  0136  3E01               	addlw	1
  3281  0137  1903               	skipnz
  3282  0138  293A               	goto	u3233
  3283  0139  07BC               	addwf	___flmul@grs+3,f
  3284  013A                     u3233:	
  3285  013A                     l3084:	
  3286  013A  0843               	movf	___flmul@temp+1,w
  3287  013B  00B2               	movwf	??___flmul
  3288  013C  01B3               	clrf	??___flmul+1
  3289  013D  01B4               	clrf	??___flmul+2
  3290  013E  01B5               	clrf	??___flmul+3
  3291  013F  0832               	movf	??___flmul,w
  3292  0140  07BE               	addwf	___flmul@prod,f
  3293  0141  0833               	movf	??___flmul+1,w
  3294  0142  1103               	clrz
  3295  0143  1803               	skipnc
  3296  0144  3E01               	addlw	1
  3297  0145  1903               	skipnz
  3298  0146  2948               	goto	u3241
  3299  0147  07BF               	addwf	___flmul@prod+1,f
  3300  0148                     u3241:	
  3301  0148  0834               	movf	??___flmul+2,w
  3302  0149  1103               	clrz
  3303  014A  1803               	skipnc
  3304  014B  3E01               	addlw	1
  3305  014C  1903               	skipnz
  3306  014D  294F               	goto	u3242
  3307  014E  07C0               	addwf	___flmul@prod+2,f
  3308  014F                     u3242:	
  3309  014F  0835               	movf	??___flmul+3,w
  3310  0150  1103               	clrz
  3311  0151  1803               	skipnc
  3312  0152  3E01               	addlw	1
  3313  0153  1903               	skipnz
  3314  0154  2956               	goto	u3243
  3315  0155  07C1               	addwf	___flmul@prod+3,f
  3316  0156                     u3243:	
  3317  0156                     l3086:	
  3318  0156  3008               	movlw	8
  3319  0157  00B2               	movwf	??___flmul
  3320  0158                     u3255:	
  3321  0158  1003               	clrc
  3322  0159  0DB9               	rlf	___flmul@grs,f
  3323  015A  0DBA               	rlf	___flmul@grs+1,f
  3324  015B  0DBB               	rlf	___flmul@grs+2,f
  3325  015C  0DBC               	rlf	___flmul@grs+3,f
  3326  015D  0BB2               	decfsz	??___flmul,f
  3327  015E  2958               	goto	u3255
  3328  015F                     l3088:	
  3329  015F  082B               	movf	___flmul@b+1,w
  3330  0160  00B2               	movwf	??___flmul
  3331  0161  0832               	movf	??___flmul,w
  3332  0162  00F2               	movwf	__Umul8_16@multiplicand
  3333  0163  082E               	movf	___flmul@a,w
  3334  0164  160A  118A  2706  120A  118A  	fcall	__Umul8_16
  3335  0169  0873               	movf	?__Umul8_16+1,w
  3336  016A  1283               	bcf	3,5	;RP0=0, select bank0
  3337  016B  1303               	bcf	3,6	;RP1=0, select bank0
  3338  016C  00C3               	movwf	___flmul@temp+1
  3339  016D  0872               	movf	?__Umul8_16,w
  3340  016E  00C2               	movwf	___flmul@temp
  3341  016F                     l3090:	
  3342  016F  0842               	movf	___flmul@temp,w
  3343  0170  00B2               	movwf	??___flmul
  3344  0171  0843               	movf	___flmul@temp+1,w
  3345  0172  00B3               	movwf	??___flmul+1
  3346  0173  01B4               	clrf	??___flmul+2
  3347  0174  01B5               	clrf	??___flmul+3
  3348  0175  0832               	movf	??___flmul,w
  3349  0176  07B9               	addwf	___flmul@grs,f
  3350  0177  0833               	movf	??___flmul+1,w
  3351  0178  1103               	clrz
  3352  0179  1803               	skipnc
  3353  017A  3E01               	addlw	1
  3354  017B  1903               	skipnz
  3355  017C  297E               	goto	u3261
  3356  017D  07BA               	addwf	___flmul@grs+1,f
  3357  017E                     u3261:	
  3358  017E  0834               	movf	??___flmul+2,w
  3359  017F  1103               	clrz
  3360  0180  1803               	skipnc
  3361  0181  3E01               	addlw	1
  3362  0182  1903               	skipnz
  3363  0183  2985               	goto	u3262
  3364  0184  07BB               	addwf	___flmul@grs+2,f
  3365  0185                     u3262:	
  3366  0185  0835               	movf	??___flmul+3,w
  3367  0186  1103               	clrz
  3368  0187  1803               	skipnc
  3369  0188  3E01               	addlw	1
  3370  0189  1903               	skipnz
  3371  018A  298C               	goto	u3263
  3372  018B  07BC               	addwf	___flmul@grs+3,f
  3373  018C                     u3263:	
  3374  018C                     l3092:	
  3375  018C  082A               	movf	___flmul@b,w
  3376  018D  00B2               	movwf	??___flmul
  3377  018E  0832               	movf	??___flmul,w
  3378  018F  00F2               	movwf	__Umul8_16@multiplicand
  3379  0190  082F               	movf	___flmul@a+1,w
  3380  0191  160A  118A  2706  120A  118A  	fcall	__Umul8_16
  3381  0196  0873               	movf	?__Umul8_16+1,w
  3382  0197  1283               	bcf	3,5	;RP0=0, select bank0
  3383  0198  1303               	bcf	3,6	;RP1=0, select bank0
  3384  0199  00C3               	movwf	___flmul@temp+1
  3385  019A  0872               	movf	?__Umul8_16,w
  3386  019B  00C2               	movwf	___flmul@temp
  3387  019C                     l3094:	
  3388  019C  0842               	movf	___flmul@temp,w
  3389  019D  00B2               	movwf	??___flmul
  3390  019E  0843               	movf	___flmul@temp+1,w
  3391  019F  00B3               	movwf	??___flmul+1
  3392  01A0  01B4               	clrf	??___flmul+2
  3393  01A1  01B5               	clrf	??___flmul+3
  3394  01A2  0832               	movf	??___flmul,w
  3395  01A3  07B9               	addwf	___flmul@grs,f
  3396  01A4  0833               	movf	??___flmul+1,w
  3397  01A5  1103               	clrz
  3398  01A6  1803               	skipnc
  3399  01A7  3E01               	addlw	1
  3400  01A8  1903               	skipnz
  3401  01A9  29AB               	goto	u3271
  3402  01AA  07BA               	addwf	___flmul@grs+1,f
  3403  01AB                     u3271:	
  3404  01AB  0834               	movf	??___flmul+2,w
  3405  01AC  1103               	clrz
  3406  01AD  1803               	skipnc
  3407  01AE  3E01               	addlw	1
  3408  01AF  1903               	skipnz
  3409  01B0  29B2               	goto	u3272
  3410  01B1  07BB               	addwf	___flmul@grs+2,f
  3411  01B2                     u3272:	
  3412  01B2  0835               	movf	??___flmul+3,w
  3413  01B3  1103               	clrz
  3414  01B4  1803               	skipnc
  3415  01B5  3E01               	addlw	1
  3416  01B6  1903               	skipnz
  3417  01B7  29B9               	goto	u3273
  3418  01B8  07BC               	addwf	___flmul@grs+3,f
  3419  01B9                     u3273:	
  3420  01B9                     l3096:	
  3421  01B9  3008               	movlw	8
  3422  01BA  00B2               	movwf	??___flmul
  3423  01BB                     u3285:	
  3424  01BB  1003               	clrc
  3425  01BC  0DB9               	rlf	___flmul@grs,f
  3426  01BD  0DBA               	rlf	___flmul@grs+1,f
  3427  01BE  0DBB               	rlf	___flmul@grs+2,f
  3428  01BF  0DBC               	rlf	___flmul@grs+3,f
  3429  01C0  0BB2               	decfsz	??___flmul,f
  3430  01C1  29BB               	goto	u3285
  3431  01C2  082A               	movf	___flmul@b,w
  3432  01C3  00B2               	movwf	??___flmul
  3433  01C4  0832               	movf	??___flmul,w
  3434  01C5  00F2               	movwf	__Umul8_16@multiplicand
  3435  01C6  082E               	movf	___flmul@a,w
  3436  01C7  160A  118A  2706  120A  118A  	fcall	__Umul8_16
  3437  01CC  0873               	movf	?__Umul8_16+1,w
  3438  01CD  1283               	bcf	3,5	;RP0=0, select bank0
  3439  01CE  1303               	bcf	3,6	;RP1=0, select bank0
  3440  01CF  00C3               	movwf	___flmul@temp+1
  3441  01D0  0872               	movf	?__Umul8_16,w
  3442  01D1  00C2               	movwf	___flmul@temp
  3443  01D2                     l3098:	
  3444  01D2  0842               	movf	___flmul@temp,w
  3445  01D3  00B2               	movwf	??___flmul
  3446  01D4  0843               	movf	___flmul@temp+1,w
  3447  01D5  00B3               	movwf	??___flmul+1
  3448  01D6  01B4               	clrf	??___flmul+2
  3449  01D7  01B5               	clrf	??___flmul+3
  3450  01D8  0832               	movf	??___flmul,w
  3451  01D9  07B9               	addwf	___flmul@grs,f
  3452  01DA  0833               	movf	??___flmul+1,w
  3453  01DB  1103               	clrz
  3454  01DC  1803               	skipnc
  3455  01DD  3E01               	addlw	1
  3456  01DE  1903               	skipnz
  3457  01DF  29E1               	goto	u3291
  3458  01E0  07BA               	addwf	___flmul@grs+1,f
  3459  01E1                     u3291:	
  3460  01E1  0834               	movf	??___flmul+2,w
  3461  01E2  1103               	clrz
  3462  01E3  1803               	skipnc
  3463  01E4  3E01               	addlw	1
  3464  01E5  1903               	skipnz
  3465  01E6  29E8               	goto	u3292
  3466  01E7  07BB               	addwf	___flmul@grs+2,f
  3467  01E8                     u3292:	
  3468  01E8  0835               	movf	??___flmul+3,w
  3469  01E9  1103               	clrz
  3470  01EA  1803               	skipnc
  3471  01EB  3E01               	addlw	1
  3472  01EC  1903               	skipnz
  3473  01ED  29EF               	goto	u3293
  3474  01EE  07BC               	addwf	___flmul@grs+3,f
  3475  01EF                     u3293:	
  3476  01EF                     l3100:	
  3477  01EF  082B               	movf	___flmul@b+1,w
  3478  01F0  00B2               	movwf	??___flmul
  3479  01F1  0832               	movf	??___flmul,w
  3480  01F2  00F2               	movwf	__Umul8_16@multiplicand
  3481  01F3  0830               	movf	___flmul@a+2,w
  3482  01F4  160A  118A  2706  120A  118A  	fcall	__Umul8_16
  3483  01F9  0873               	movf	?__Umul8_16+1,w
  3484  01FA  1283               	bcf	3,5	;RP0=0, select bank0
  3485  01FB  1303               	bcf	3,6	;RP1=0, select bank0
  3486  01FC  00C3               	movwf	___flmul@temp+1
  3487  01FD  0872               	movf	?__Umul8_16,w
  3488  01FE  00C2               	movwf	___flmul@temp
  3489  01FF  0842               	movf	___flmul@temp,w
  3490  0200  00B2               	movwf	??___flmul
  3491  0201  0843               	movf	___flmul@temp+1,w
  3492  0202  00B3               	movwf	??___flmul+1
  3493  0203  01B4               	clrf	??___flmul+2
  3494  0204  01B5               	clrf	??___flmul+3
  3495  0205  0832               	movf	??___flmul,w
  3496  0206  07BE               	addwf	___flmul@prod,f
  3497  0207  0833               	movf	??___flmul+1,w
  3498  0208  1103               	clrz
  3499  0209  1803               	skipnc
  3500  020A  3E01               	addlw	1
  3501  020B  1903               	skipnz
  3502  020C  2A0E               	goto	u3301
  3503  020D  07BF               	addwf	___flmul@prod+1,f
  3504  020E                     u3301:	
  3505  020E  0834               	movf	??___flmul+2,w
  3506  020F  1103               	clrz
  3507  0210  1803               	skipnc
  3508  0211  3E01               	addlw	1
  3509  0212  1903               	skipnz
  3510  0213  2A15               	goto	u3302
  3511  0214  07C0               	addwf	___flmul@prod+2,f
  3512  0215                     u3302:	
  3513  0215  0835               	movf	??___flmul+3,w
  3514  0216  1103               	clrz
  3515  0217  1803               	skipnc
  3516  0218  3E01               	addlw	1
  3517  0219  1903               	skipnz
  3518  021A  2A1C               	goto	u3303
  3519  021B  07C1               	addwf	___flmul@prod+3,f
  3520  021C                     u3303:	
  3521  021C                     l3102:	
  3522  021C  082C               	movf	___flmul@b+2,w
  3523  021D  00B2               	movwf	??___flmul
  3524  021E  0832               	movf	??___flmul,w
  3525  021F  00F2               	movwf	__Umul8_16@multiplicand
  3526  0220  082F               	movf	___flmul@a+1,w
  3527  0221  160A  118A  2706  120A  118A  	fcall	__Umul8_16
  3528  0226  0873               	movf	?__Umul8_16+1,w
  3529  0227  1283               	bcf	3,5	;RP0=0, select bank0
  3530  0228  1303               	bcf	3,6	;RP1=0, select bank0
  3531  0229  00C3               	movwf	___flmul@temp+1
  3532  022A  0872               	movf	?__Umul8_16,w
  3533  022B  00C2               	movwf	___flmul@temp
  3534  022C                     l3104:	
  3535  022C  0842               	movf	___flmul@temp,w
  3536  022D  00B2               	movwf	??___flmul
  3537  022E  0843               	movf	___flmul@temp+1,w
  3538  022F  00B3               	movwf	??___flmul+1
  3539  0230  01B4               	clrf	??___flmul+2
  3540  0231  01B5               	clrf	??___flmul+3
  3541  0232  0832               	movf	??___flmul,w
  3542  0233  07BE               	addwf	___flmul@prod,f
  3543  0234  0833               	movf	??___flmul+1,w
  3544  0235  1103               	clrz
  3545  0236  1803               	skipnc
  3546  0237  3E01               	addlw	1
  3547  0238  1903               	skipnz
  3548  0239  2A3B               	goto	u3311
  3549  023A  07BF               	addwf	___flmul@prod+1,f
  3550  023B                     u3311:	
  3551  023B  0834               	movf	??___flmul+2,w
  3552  023C  1103               	clrz
  3553  023D  1803               	skipnc
  3554  023E  3E01               	addlw	1
  3555  023F  1903               	skipnz
  3556  0240  2A42               	goto	u3312
  3557  0241  07C0               	addwf	___flmul@prod+2,f
  3558  0242                     u3312:	
  3559  0242  0835               	movf	??___flmul+3,w
  3560  0243  1103               	clrz
  3561  0244  1803               	skipnc
  3562  0245  3E01               	addlw	1
  3563  0246  1903               	skipnz
  3564  0247  2A49               	goto	u3313
  3565  0248  07C1               	addwf	___flmul@prod+3,f
  3566  0249                     u3313:	
  3567  0249  082C               	movf	___flmul@b+2,w
  3568  024A  00B2               	movwf	??___flmul
  3569  024B  0832               	movf	??___flmul,w
  3570  024C  00F2               	movwf	__Umul8_16@multiplicand
  3571  024D  0830               	movf	___flmul@a+2,w
  3572  024E  160A  118A  2706  120A  118A  	fcall	__Umul8_16
  3573  0253  0873               	movf	?__Umul8_16+1,w
  3574  0254  1283               	bcf	3,5	;RP0=0, select bank0
  3575  0255  1303               	bcf	3,6	;RP1=0, select bank0
  3576  0256  00C3               	movwf	___flmul@temp+1
  3577  0257  0872               	movf	?__Umul8_16,w
  3578  0258  00C2               	movwf	___flmul@temp
  3579  0259                     l3106:	
  3580  0259  0842               	movf	___flmul@temp,w
  3581  025A  00B2               	movwf	??___flmul
  3582  025B  0843               	movf	___flmul@temp+1,w
  3583  025C  00B3               	movwf	??___flmul+1
  3584  025D  01B4               	clrf	??___flmul+2
  3585  025E  01B5               	clrf	??___flmul+3
  3586  025F  3008               	movlw	8
  3587  0260                     u3325:	
  3588  0260  1003               	clrc
  3589  0261  0DB2               	rlf	??___flmul,f
  3590  0262  0DB3               	rlf	??___flmul+1,f
  3591  0263  0DB4               	rlf	??___flmul+2,f
  3592  0264  0DB5               	rlf	??___flmul+3,f
  3593  0265                     u3320:	
  3594  0265  3EFF               	addlw	-1
  3595  0266  1D03               	skipz
  3596  0267  2A60               	goto	u3325
  3597  0268  0832               	movf	??___flmul,w
  3598  0269  07BE               	addwf	___flmul@prod,f
  3599  026A  0833               	movf	??___flmul+1,w
  3600  026B  1103               	clrz
  3601  026C  1803               	skipnc
  3602  026D  3E01               	addlw	1
  3603  026E  1903               	skipnz
  3604  026F  2A71               	goto	u3331
  3605  0270  07BF               	addwf	___flmul@prod+1,f
  3606  0271                     u3331:	
  3607  0271  0834               	movf	??___flmul+2,w
  3608  0272  1103               	clrz
  3609  0273  1803               	skipnc
  3610  0274  3E01               	addlw	1
  3611  0275  1903               	skipnz
  3612  0276  2A78               	goto	u3332
  3613  0277  07C0               	addwf	___flmul@prod+2,f
  3614  0278                     u3332:	
  3615  0278  0835               	movf	??___flmul+3,w
  3616  0279  1103               	clrz
  3617  027A  1803               	skipnc
  3618  027B  3E01               	addlw	1
  3619  027C  1903               	skipnz
  3620  027D  2A7F               	goto	u3333
  3621  027E  07C1               	addwf	___flmul@prod+3,f
  3622  027F                     u3333:	
  3623  027F                     l3108:	
  3624  027F  0839               	movf	___flmul@grs,w
  3625  0280  00B2               	movwf	??___flmul
  3626  0281  083A               	movf	___flmul@grs+1,w
  3627  0282  00B3               	movwf	??___flmul+1
  3628  0283  083B               	movf	___flmul@grs+2,w
  3629  0284  00B4               	movwf	??___flmul+2
  3630  0285  083C               	movf	___flmul@grs+3,w
  3631  0286  00B5               	movwf	??___flmul+3
  3632  0287  3018               	movlw	24
  3633  0288                     u3345:	
  3634  0288  1003               	clrc
  3635  0289  0CB5               	rrf	??___flmul+3,f
  3636  028A  0CB4               	rrf	??___flmul+2,f
  3637  028B  0CB3               	rrf	??___flmul+1,f
  3638  028C  0CB2               	rrf	??___flmul,f
  3639  028D                     u3340:	
  3640  028D  3EFF               	addlw	-1
  3641  028E  1D03               	skipz
  3642  028F  2A88               	goto	u3345
  3643  0290  0832               	movf	??___flmul,w
  3644  0291  07BE               	addwf	___flmul@prod,f
  3645  0292  0833               	movf	??___flmul+1,w
  3646  0293  1103               	clrz
  3647  0294  1803               	skipnc
  3648  0295  3E01               	addlw	1
  3649  0296  1903               	skipnz
  3650  0297  2A99               	goto	u3351
  3651  0298  07BF               	addwf	___flmul@prod+1,f
  3652  0299                     u3351:	
  3653  0299  0834               	movf	??___flmul+2,w
  3654  029A  1103               	clrz
  3655  029B  1803               	skipnc
  3656  029C  3E01               	addlw	1
  3657  029D  1903               	skipnz
  3658  029E  2AA0               	goto	u3352
  3659  029F  07C0               	addwf	___flmul@prod+2,f
  3660  02A0                     u3352:	
  3661  02A0  0835               	movf	??___flmul+3,w
  3662  02A1  1103               	clrz
  3663  02A2  1803               	skipnc
  3664  02A3  3E01               	addlw	1
  3665  02A4  1903               	skipnz
  3666  02A5  2AA7               	goto	u3353
  3667  02A6  07C1               	addwf	___flmul@prod+3,f
  3668  02A7                     u3353:	
  3669  02A7                     l3110:	
  3670  02A7  3008               	movlw	8
  3671  02A8  00B2               	movwf	??___flmul
  3672  02A9                     u3365:	
  3673  02A9  1003               	clrc
  3674  02AA  0DB9               	rlf	___flmul@grs,f
  3675  02AB  0DBA               	rlf	___flmul@grs+1,f
  3676  02AC  0DBB               	rlf	___flmul@grs+2,f
  3677  02AD  0DBC               	rlf	___flmul@grs+3,f
  3678  02AE  0BB2               	decfsz	??___flmul,f
  3679  02AF  2AA9               	goto	u3365
  3680  02B0                     l3112:	
  3681  02B0  083D               	movf	___flmul@bexp,w
  3682  02B1  0738               	addwf	___flmul@aexp,w
  3683  02B2  00B2               	movwf	??___flmul
  3684  02B3  01B3               	clrf	??___flmul+1
  3685  02B4  0DB3               	rlf	??___flmul+1,f
  3686  02B5  0832               	movf	??___flmul,w
  3687  02B6  3E82               	addlw	130
  3688  02B7  00C2               	movwf	___flmul@temp
  3689  02B8  0833               	movf	??___flmul+1,w
  3690  02B9  1803               	skipnc
  3691  02BA  3E01               	addlw	1
  3692  02BB  3EFF               	addlw	255
  3693  02BC  00C3               	movwf	___flmul@temp+1
  3694  02BD  2ADB               	goto	l3124
  3695  02BE                     l3114:	
  3696  02BE  3001               	movlw	1
  3697  02BF  00B2               	movwf	??___flmul
  3698  02C0                     u3375:	
  3699  02C0  1003               	clrc
  3700  02C1  0DBE               	rlf	___flmul@prod,f
  3701  02C2  0DBF               	rlf	___flmul@prod+1,f
  3702  02C3  0DC0               	rlf	___flmul@prod+2,f
  3703  02C4  0DC1               	rlf	___flmul@prod+3,f
  3704  02C5  0BB2               	decfsz	??___flmul,f
  3705  02C6  2AC0               	goto	u3375
  3706  02C7                     l3116:	
  3707  02C7  1FBC               	btfss	___flmul@grs+3,7
  3708  02C8  2ACA               	goto	u3381
  3709  02C9  2ACB               	goto	u3380
  3710  02CA                     u3381:	
  3711  02CA  2ACC               	goto	l3120
  3712  02CB                     u3380:	
  3713  02CB                     l3118:	
  3714  02CB  143E               	bsf	___flmul@prod,0
  3715  02CC                     l3120:	
  3716  02CC  3001               	movlw	1
  3717  02CD  00B2               	movwf	??___flmul
  3718  02CE                     u3395:	
  3719  02CE  1003               	clrc
  3720  02CF  0DB9               	rlf	___flmul@grs,f
  3721  02D0  0DBA               	rlf	___flmul@grs+1,f
  3722  02D1  0DBB               	rlf	___flmul@grs+2,f
  3723  02D2  0DBC               	rlf	___flmul@grs+3,f
  3724  02D3  0BB2               	decfsz	??___flmul,f
  3725  02D4  2ACE               	goto	u3395
  3726  02D5                     l3122:	
  3727  02D5  30FF               	movlw	255
  3728  02D6  07C2               	addwf	___flmul@temp,f
  3729  02D7  1803               	skipnc
  3730  02D8  0AC3               	incf	___flmul@temp+1,f
  3731  02D9  30FF               	movlw	255
  3732  02DA  07C3               	addwf	___flmul@temp+1,f
  3733  02DB                     l3124:	
  3734  02DB  1FC0               	btfss	___flmul@prod+2,7
  3735  02DC  2ADE               	goto	u3401
  3736  02DD  2ADF               	goto	u3400
  3737  02DE                     u3401:	
  3738  02DE  2ABE               	goto	l3114
  3739  02DF                     u3400:	
  3740  02DF                     l3126:	
  3741  02DF  01B8               	clrf	___flmul@aexp
  3742  02E0                     l3128:	
  3743  02E0  1FBC               	btfss	___flmul@grs+3,7
  3744  02E1  2AE3               	goto	u3411
  3745  02E2  2AE4               	goto	u3410
  3746  02E3                     u3411:	
  3747  02E3  2B00               	goto	l3136
  3748  02E4                     u3410:	
  3749  02E4                     l3130:	
  3750  02E4  30FF               	movlw	255
  3751  02E5  0539               	andwf	___flmul@grs,w
  3752  02E6  00B2               	movwf	??___flmul
  3753  02E7  30FF               	movlw	255
  3754  02E8  053A               	andwf	___flmul@grs+1,w
  3755  02E9  00B3               	movwf	??___flmul+1
  3756  02EA  30FF               	movlw	255
  3757  02EB  053B               	andwf	___flmul@grs+2,w
  3758  02EC  00B4               	movwf	??___flmul+2
  3759  02ED  307F               	movlw	127
  3760  02EE  053C               	andwf	___flmul@grs+3,w
  3761  02EF  00B5               	movwf	??___flmul+3
  3762  02F0  0835               	movf	??___flmul+3,w
  3763  02F1  0434               	iorwf	??___flmul+2,w
  3764  02F2  0433               	iorwf	??___flmul+1,w
  3765  02F3  0432               	iorwf	??___flmul,w
  3766  02F4  1903               	skipnz
  3767  02F5  2AF7               	goto	u3421
  3768  02F6  2AF8               	goto	u3420
  3769  02F7                     u3421:	
  3770  02F7  2AFB               	goto	l771
  3771  02F8                     u3420:	
  3772  02F8                     l3132:	
  3773  02F8  01B8               	clrf	___flmul@aexp
  3774  02F9  0AB8               	incf	___flmul@aexp,f
  3775  02FA  2B00               	goto	l3136
  3776  02FB                     l771:	
  3777  02FB  1C3E               	btfss	___flmul@prod,0
  3778  02FC  2AFE               	goto	u3431
  3779  02FD  2AFF               	goto	u3430
  3780  02FE                     u3431:	
  3781  02FE  2B00               	goto	l3136
  3782  02FF                     u3430:	
  3783  02FF  2AF8               	goto	l3132
  3784  0300                     l3136:	
  3785  0300  0838               	movf	___flmul@aexp,w
  3786  0301  1903               	btfsc	3,2
  3787  0302  2B04               	goto	u3441
  3788  0303  2B05               	goto	u3440
  3789  0304                     u3441:	
  3790  0304  2B36               	goto	l3146
  3791  0305                     u3440:	
  3792  0305                     l3138:	
  3793  0305  3001               	movlw	1
  3794  0306  07BE               	addwf	___flmul@prod,f
  3795  0307  3000               	movlw	0
  3796  0308  1803               	skipnc
  3797  0309  3001               	movlw	1
  3798  030A  07BF               	addwf	___flmul@prod+1,f
  3799  030B  3000               	movlw	0
  3800  030C  1803               	skipnc
  3801  030D  3001               	movlw	1
  3802  030E  07C0               	addwf	___flmul@prod+2,f
  3803  030F  3000               	movlw	0
  3804  0310  1803               	skipnc
  3805  0311  3001               	movlw	1
  3806  0312  07C1               	addwf	___flmul@prod+3,f
  3807  0313                     l3140:	
  3808  0313  1C41               	btfss	___flmul@prod+3,0
  3809  0314  2B16               	goto	u3451
  3810  0315  2B17               	goto	u3450
  3811  0316                     u3451:	
  3812  0316  2B36               	goto	l3146
  3813  0317                     u3450:	
  3814  0317                     l3142:	
  3815  0317  083E               	movf	___flmul@prod,w
  3816  0318  00B2               	movwf	??___flmul
  3817  0319  083F               	movf	___flmul@prod+1,w
  3818  031A  00B3               	movwf	??___flmul+1
  3819  031B  0840               	movf	___flmul@prod+2,w
  3820  031C  00B4               	movwf	??___flmul+2
  3821  031D  0841               	movf	___flmul@prod+3,w
  3822  031E  00B5               	movwf	??___flmul+3
  3823  031F  3001               	movlw	1
  3824  0320  00B6               	movwf	??___flmul+4
  3825  0321                     u3465:	
  3826  0321  0D35               	rlf	??___flmul+3,w
  3827  0322  0CB5               	rrf	??___flmul+3,f
  3828  0323  0CB4               	rrf	??___flmul+2,f
  3829  0324  0CB3               	rrf	??___flmul+1,f
  3830  0325  0CB2               	rrf	??___flmul,f
  3831  0326                     u3460:	
  3832  0326  0BB6               	decfsz	??___flmul+4,f
  3833  0327  2B21               	goto	u3465
  3834  0328  0835               	movf	??___flmul+3,w
  3835  0329  00C1               	movwf	___flmul@prod+3
  3836  032A  0834               	movf	??___flmul+2,w
  3837  032B  00C0               	movwf	___flmul@prod+2
  3838  032C  0833               	movf	??___flmul+1,w
  3839  032D  00BF               	movwf	___flmul@prod+1
  3840  032E  0832               	movf	??___flmul,w
  3841  032F  00BE               	movwf	___flmul@prod
  3842  0330                     l3144:	
  3843  0330  3001               	movlw	1
  3844  0331  07C2               	addwf	___flmul@temp,f
  3845  0332  1803               	skipnc
  3846  0333  0AC3               	incf	___flmul@temp+1,f
  3847  0334  3000               	movlw	0
  3848  0335  07C3               	addwf	___flmul@temp+1,f
  3849  0336                     l3146:	
  3850  0336  0843               	movf	___flmul@temp+1,w
  3851  0337  3A80               	xorlw	128
  3852  0338  00FF               	movwf	btemp+1
  3853  0339  3080               	movlw	128
  3854  033A  027F               	subwf	btemp+1,w
  3855  033B  1D03               	skipz
  3856  033C  2B3F               	goto	u3475
  3857  033D  30FF               	movlw	255
  3858  033E  0242               	subwf	___flmul@temp,w
  3859  033F                     u3475:	
  3860  033F  1C03               	skipc
  3861  0340  2B42               	goto	u3471
  3862  0341  2B43               	goto	u3470
  3863  0342                     u3471:	
  3864  0342  2B4E               	goto	l3150
  3865  0343                     u3470:	
  3866  0343                     l3148:	
  3867  0343  307F               	movlw	127
  3868  0344  1283               	bcf	3,5	;RP0=0, select bank0
  3869  0345  1303               	bcf	3,6	;RP1=0, select bank0
  3870  0346  00C1               	movwf	___flmul@prod+3
  3871  0347  3080               	movlw	128
  3872  0348  00C0               	movwf	___flmul@prod+2
  3873  0349  3000               	movlw	0
  3874  034A  00BF               	movwf	___flmul@prod+1
  3875  034B  3000               	movlw	0
  3876  034C  00BE               	movwf	___flmul@prod
  3877  034D  2B83               	goto	l777
  3878  034E                     l3150:	
  3879  034E  1283               	bcf	3,5	;RP0=0, select bank0
  3880  034F  1303               	bcf	3,6	;RP1=0, select bank0
  3881  0350  0843               	movf	___flmul@temp+1,w
  3882  0351  3A80               	xorlw	128
  3883  0352  00FF               	movwf	btemp+1
  3884  0353  3080               	movlw	128
  3885  0354  027F               	subwf	btemp+1,w
  3886  0355  1D03               	skipz
  3887  0356  2B59               	goto	u3485
  3888  0357  3001               	movlw	1
  3889  0358  0242               	subwf	___flmul@temp,w
  3890  0359                     u3485:	
  3891  0359  1803               	skipnc
  3892  035A  2B5C               	goto	u3481
  3893  035B  2B5D               	goto	u3480
  3894  035C                     u3481:	
  3895  035C  2B69               	goto	l3156
  3896  035D                     u3480:	
  3897  035D                     l3152:	
  3898  035D  3000               	movlw	0
  3899  035E  1283               	bcf	3,5	;RP0=0, select bank0
  3900  035F  1303               	bcf	3,6	;RP1=0, select bank0
  3901  0360  00C1               	movwf	___flmul@prod+3
  3902  0361  3000               	movlw	0
  3903  0362  00C0               	movwf	___flmul@prod+2
  3904  0363  3000               	movlw	0
  3905  0364  00BF               	movwf	___flmul@prod+1
  3906  0365  3000               	movlw	0
  3907  0366  00BE               	movwf	___flmul@prod
  3908  0367                     l3154:	
  3909  0367  01B7               	clrf	___flmul@sign
  3910  0368  2B83               	goto	l777
  3911  0369                     l3156:	
  3912  0369  1283               	bcf	3,5	;RP0=0, select bank0
  3913  036A  1303               	bcf	3,6	;RP1=0, select bank0
  3914  036B  0842               	movf	___flmul@temp,w
  3915  036C  00B2               	movwf	??___flmul
  3916  036D  0832               	movf	??___flmul,w
  3917  036E  00BD               	movwf	___flmul@bexp
  3918  036F  30FF               	movlw	255
  3919  0370  05BE               	andwf	___flmul@prod,f
  3920  0371  30FF               	movlw	255
  3921  0372  05BF               	andwf	___flmul@prod+1,f
  3922  0373  307F               	movlw	127
  3923  0374  05C0               	andwf	___flmul@prod+2,f
  3924  0375  3000               	movlw	0
  3925  0376  05C1               	andwf	___flmul@prod+3,f
  3926  0377                     l3158:	
  3927  0377  1C3D               	btfss	___flmul@bexp,0
  3928  0378  2B7A               	goto	u3491
  3929  0379  2B7B               	goto	u3490
  3930  037A                     u3491:	
  3931  037A  2B7C               	goto	l3162
  3932  037B                     u3490:	
  3933  037B                     l3160:	
  3934  037B  17C0               	bsf	___flmul@prod+2,7
  3935  037C                     l3162:	
  3936  037C  083D               	movf	___flmul@bexp,w
  3937  037D  00B2               	movwf	??___flmul
  3938  037E  1003               	clrc
  3939  037F  0C32               	rrf	??___flmul,w
  3940  0380  00B3               	movwf	??___flmul+1
  3941  0381  0833               	movf	??___flmul+1,w
  3942  0382  00C1               	movwf	___flmul@prod+3
  3943  0383                     l777:	
  3944  0383  0837               	movf	___flmul@sign,w
  3945  0384  00B2               	movwf	??___flmul
  3946  0385  0832               	movf	??___flmul,w
  3947  0386  04C1               	iorwf	___flmul@prod+3,f
  3948  0387                     l3164:	
  3949  0387  0841               	movf	___flmul@prod+3,w
  3950  0388  00AD               	movwf	?___flmul+3
  3951  0389  0840               	movf	___flmul@prod+2,w
  3952  038A  00AC               	movwf	?___flmul+2
  3953  038B  083F               	movf	___flmul@prod+1,w
  3954  038C  00AB               	movwf	?___flmul+1
  3955  038D  083E               	movf	___flmul@prod,w
  3956  038E  00AA               	movwf	?___flmul
  3957  038F                     l765:	
  3958  038F  0008               	return
  3959  0390                     __end_of___flmul:	
  3960                           
  3961                           	psect	text7
  3962  1706                     __ptext7:	
  3963 ;; *************** function __Umul8_16 *****************
  3964 ;; Defined at:
  3965 ;;		line 4 in file "C:\Program Files (x86)\Microchip\xc8\v2.10\pic\sources\c90\common\Umul8_16.c"
  3966 ;; Parameters:    Size  Location     Type
  3967 ;;  multiplier      1    wreg     unsigned char 
  3968 ;;  multiplicand    1    2[COMMON] unsigned char 
  3969 ;; Auto vars:     Size  Location     Type
  3970 ;;  multiplier      1    4[BANK0 ] unsigned char 
  3971 ;;  word_mpld       2    2[BANK0 ] unsigned int 
  3972 ;;  product         2    0[BANK0 ] unsigned int 
  3973 ;; Return value:  Size  Location     Type
  3974 ;;                  2    2[COMMON] unsigned int 
  3975 ;; Registers used:
  3976 ;;		wreg, status,2, status,0
  3977 ;; Tracked objects:
  3978 ;;		On entry : 0/0
  3979 ;;		On exit  : 0/0
  3980 ;;		Unchanged: 0/0
  3981 ;; Data sizes:     COMMON   BANK0   BANK1   BANK3   BANK2
  3982 ;;      Params:         2       0       0       0       0
  3983 ;;      Locals:         0       5       0       0       0
  3984 ;;      Temps:          2       0       0       0       0
  3985 ;;      Totals:         4       5       0       0       0
  3986 ;;Total ram usage:        9 bytes
  3987 ;; Hardware stack levels used:    1
  3988 ;; Hardware stack levels required when called:    1
  3989 ;; This function calls:
  3990 ;;		Nothing
  3991 ;; This function is called by:
  3992 ;;		___flmul
  3993 ;; This function uses a non-reentrant model
  3994 ;;
  3995                           
  3996                           
  3997                           ;psect for function __Umul8_16
  3998  1706                     __Umul8_16:	
  3999                           
  4000                           ;incstack = 0
  4001                           ; Regs used in __Umul8_16: [wreg+status,2+status,0]
  4002                           ;__Umul8_16@multiplier stored from wreg
  4003  1706  1283               	bcf	3,5	;RP0=0, select bank0
  4004  1707  1303               	bcf	3,6	;RP1=0, select bank0
  4005  1708  00A4               	movwf	__Umul8_16@multiplier
  4006  1709                     l2910:	
  4007  1709  01A0               	clrf	__Umul8_16@product
  4008  170A  01A1               	clrf	__Umul8_16@product+1
  4009  170B                     l2912:	
  4010  170B  0872               	movf	__Umul8_16@multiplicand,w
  4011  170C  00F4               	movwf	??__Umul8_16
  4012  170D  01F5               	clrf	??__Umul8_16+1
  4013  170E  0874               	movf	??__Umul8_16,w
  4014  170F  00A2               	movwf	__Umul8_16@word_mpld
  4015  1710  0875               	movf	??__Umul8_16+1,w
  4016  1711  00A3               	movwf	__Umul8_16@word_mpld+1
  4017  1712                     l2914:	
  4018  1712  1C24               	btfss	__Umul8_16@multiplier,0
  4019  1713  2F15               	goto	u2831
  4020  1714  2F16               	goto	u2830
  4021  1715                     u2831:	
  4022  1715  2F1C               	goto	l822
  4023  1716                     u2830:	
  4024  1716                     l2916:	
  4025  1716  0822               	movf	__Umul8_16@word_mpld,w
  4026  1717  07A0               	addwf	__Umul8_16@product,f
  4027  1718  1803               	skipnc
  4028  1719  0AA1               	incf	__Umul8_16@product+1,f
  4029  171A  0823               	movf	__Umul8_16@word_mpld+1,w
  4030  171B  07A1               	addwf	__Umul8_16@product+1,f
  4031  171C                     l822:	
  4032  171C  3001               	movlw	1
  4033  171D                     u2845:	
  4034  171D  1003               	clrc
  4035  171E  0DA2               	rlf	__Umul8_16@word_mpld,f
  4036  171F  0DA3               	rlf	__Umul8_16@word_mpld+1,f
  4037  1720  3EFF               	addlw	-1
  4038  1721  1D03               	skipz
  4039  1722  2F1D               	goto	u2845
  4040  1723  1003               	clrc
  4041  1724  0CA4               	rrf	__Umul8_16@multiplier,f
  4042  1725                     l2918:	
  4043  1725  0824               	movf	__Umul8_16@multiplier,w
  4044  1726  1D03               	btfss	3,2
  4045  1727  2F29               	goto	u2851
  4046  1728  2F2A               	goto	u2850
  4047  1729                     u2851:	
  4048  1729  2F12               	goto	l2914
  4049  172A                     u2850:	
  4050  172A                     l2920:	
  4051  172A  0821               	movf	__Umul8_16@product+1,w
  4052  172B  00F3               	movwf	?__Umul8_16+1
  4053  172C  0820               	movf	__Umul8_16@product,w
  4054  172D  00F2               	movwf	?__Umul8_16
  4055  172E                     l824:	
  4056  172E  0008               	return
  4057  172F                     __end_of__Umul8_16:	
  4058                           
  4059                           	psect	text8
  4060  0E23                     __ptext8:	
  4061 ;; *************** function ___fldiv *****************
  4062 ;; Defined at:
  4063 ;;		line 8 in file "C:\Program Files (x86)\Microchip\xc8\v2.10\pic\sources\c90\common\sprcdiv.c"
  4064 ;; Parameters:    Size  Location     Type
  4065 ;;  a               4   36[BANK0 ] unsigned int 
  4066 ;;  b               4   40[BANK0 ] unsigned int 
  4067 ;; Auto vars:     Size  Location     Type
  4068 ;;  grs             4   56[BANK0 ] unsigned long 
  4069 ;;  rem             4   49[BANK0 ] unsigned long 
  4070 ;;  new_exp         2   54[BANK0 ] int 
  4071 ;;  aexp            1   61[BANK0 ] unsigned char 
  4072 ;;  bexp            1   60[BANK0 ] unsigned char 
  4073 ;;  sign            1   53[BANK0 ] unsigned char 
  4074 ;; Return value:  Size  Location     Type
  4075 ;;                  4   36[BANK0 ] unsigned char 
  4076 ;; Registers used:
  4077 ;;		wreg, status,2, status,0, btemp+1
  4078 ;; Tracked objects:
  4079 ;;		On entry : 0/0
  4080 ;;		On exit  : 0/0
  4081 ;;		Unchanged: 0/0
  4082 ;; Data sizes:     COMMON   BANK0   BANK1   BANK3   BANK2
  4083 ;;      Params:         0       8       0       0       0
  4084 ;;      Locals:         0      13       0       0       0
  4085 ;;      Temps:          0       5       0       0       0
  4086 ;;      Totals:         0      26       0       0       0
  4087 ;;Total ram usage:       26 bytes
  4088 ;; Hardware stack levels used:    1
  4089 ;; Hardware stack levels required when called:    1
  4090 ;; This function calls:
  4091 ;;		Nothing
  4092 ;; This function is called by:
  4093 ;;		_temperatura
  4094 ;; This function uses a non-reentrant model
  4095 ;;
  4096                           
  4097                           
  4098                           ;psect for function ___fldiv
  4099  0E23                     ___fldiv:	
  4100  0E23                     l2128:	
  4101                           ;incstack = 0
  4102                           ; Regs used in ___fldiv: [wreg+status,2+status,0+btemp+1]
  4103                           
  4104  0E23  1283               	bcf	3,5	;RP0=0, select bank0
  4105  0E24  1303               	bcf	3,6	;RP1=0, select bank0
  4106  0E25  084B               	movf	___fldiv@b+3,w
  4107  0E26  3980               	andlw	128
  4108  0E27  00CC               	movwf	??___fldiv
  4109  0E28  084C               	movf	??___fldiv,w
  4110  0E29  00D5               	movwf	___fldiv@sign
  4111  0E2A                     l2130:	
  4112  0E2A  084B               	movf	___fldiv@b+3,w
  4113  0E2B  00CC               	movwf	??___fldiv
  4114  0E2C  074C               	addwf	??___fldiv,w
  4115  0E2D  00CD               	movwf	??___fldiv+1
  4116  0E2E  084D               	movf	??___fldiv+1,w
  4117  0E2F  00DC               	movwf	___fldiv@bexp
  4118  0E30                     l2132:	
  4119  0E30  1FCA               	btfss	___fldiv@b+2,7
  4120  0E31  2E33               	goto	u1871
  4121  0E32  2E34               	goto	u1870
  4122  0E33                     u1871:	
  4123  0E33  2E35               	goto	l2136
  4124  0E34                     u1870:	
  4125  0E34                     l2134:	
  4126  0E34  145C               	bsf	___fldiv@bexp,0
  4127  0E35                     l2136:	
  4128  0E35  085C               	movf	___fldiv@bexp,w
  4129  0E36  1903               	btfsc	3,2
  4130  0E37  2E39               	goto	u1881
  4131  0E38  2E3A               	goto	u1880
  4132  0E39                     u1881:	
  4133  0E39  2E4A               	goto	l2146
  4134  0E3A                     u1880:	
  4135  0E3A                     l2138:	
  4136  0E3A  0A5C               	incf	___fldiv@bexp,w
  4137  0E3B  1D03               	btfss	3,2
  4138  0E3C  2E3E               	goto	u1891
  4139  0E3D  2E3F               	goto	u1890
  4140  0E3E                     u1891:	
  4141  0E3E  2E47               	goto	l2142
  4142  0E3F                     u1890:	
  4143  0E3F                     l2140:	
  4144  0E3F  3000               	movlw	0
  4145  0E40  00CB               	movwf	___fldiv@b+3
  4146  0E41  3000               	movlw	0
  4147  0E42  00CA               	movwf	___fldiv@b+2
  4148  0E43  3000               	movlw	0
  4149  0E44  00C9               	movwf	___fldiv@b+1
  4150  0E45  3000               	movlw	0
  4151  0E46  00C8               	movwf	___fldiv@b
  4152  0E47                     l2142:	
  4153  0E47  17CA               	bsf	___fldiv@b+2,7
  4154  0E48                     l2144:	
  4155  0E48  01CB               	clrf	___fldiv@b+3
  4156  0E49  2E52               	goto	l2148
  4157  0E4A                     l2146:	
  4158  0E4A  3000               	movlw	0
  4159  0E4B  00CB               	movwf	___fldiv@b+3
  4160  0E4C  3000               	movlw	0
  4161  0E4D  00CA               	movwf	___fldiv@b+2
  4162  0E4E  3000               	movlw	0
  4163  0E4F  00C9               	movwf	___fldiv@b+1
  4164  0E50  3000               	movlw	0
  4165  0E51  00C8               	movwf	___fldiv@b
  4166  0E52                     l2148:	
  4167  0E52  0847               	movf	___fldiv@a+3,w
  4168  0E53  3980               	andlw	128
  4169  0E54  00CC               	movwf	??___fldiv
  4170  0E55  084C               	movf	??___fldiv,w
  4171  0E56  06D5               	xorwf	___fldiv@sign,f
  4172  0E57                     l2150:	
  4173  0E57  0847               	movf	___fldiv@a+3,w
  4174  0E58  00CC               	movwf	??___fldiv
  4175  0E59  074C               	addwf	??___fldiv,w
  4176  0E5A  00CD               	movwf	??___fldiv+1
  4177  0E5B  084D               	movf	??___fldiv+1,w
  4178  0E5C  00DD               	movwf	___fldiv@aexp
  4179  0E5D                     l2152:	
  4180  0E5D  1FC6               	btfss	___fldiv@a+2,7
  4181  0E5E  2E60               	goto	u1901
  4182  0E5F  2E61               	goto	u1900
  4183  0E60                     u1901:	
  4184  0E60  2E62               	goto	l2156
  4185  0E61                     u1900:	
  4186  0E61                     l2154:	
  4187  0E61  145D               	bsf	___fldiv@aexp,0
  4188  0E62                     l2156:	
  4189  0E62  085D               	movf	___fldiv@aexp,w
  4190  0E63  1903               	btfsc	3,2
  4191  0E64  2E66               	goto	u1911
  4192  0E65  2E67               	goto	u1910
  4193  0E66                     u1911:	
  4194  0E66  2E77               	goto	l2166
  4195  0E67                     u1910:	
  4196  0E67                     l2158:	
  4197  0E67  0A5D               	incf	___fldiv@aexp,w
  4198  0E68  1D03               	btfss	3,2
  4199  0E69  2E6B               	goto	u1921
  4200  0E6A  2E6C               	goto	u1920
  4201  0E6B                     u1921:	
  4202  0E6B  2E74               	goto	l2162
  4203  0E6C                     u1920:	
  4204  0E6C                     l2160:	
  4205  0E6C  3000               	movlw	0
  4206  0E6D  00C7               	movwf	___fldiv@a+3
  4207  0E6E  3000               	movlw	0
  4208  0E6F  00C6               	movwf	___fldiv@a+2
  4209  0E70  3000               	movlw	0
  4210  0E71  00C5               	movwf	___fldiv@a+1
  4211  0E72  3000               	movlw	0
  4212  0E73  00C4               	movwf	___fldiv@a
  4213  0E74                     l2162:	
  4214  0E74  17C6               	bsf	___fldiv@a+2,7
  4215  0E75                     l2164:	
  4216  0E75  01C7               	clrf	___fldiv@a+3
  4217  0E76  2E7F               	goto	l725
  4218  0E77                     l2166:	
  4219  0E77  3000               	movlw	0
  4220  0E78  00C7               	movwf	___fldiv@a+3
  4221  0E79  3000               	movlw	0
  4222  0E7A  00C6               	movwf	___fldiv@a+2
  4223  0E7B  3000               	movlw	0
  4224  0E7C  00C5               	movwf	___fldiv@a+1
  4225  0E7D  3000               	movlw	0
  4226  0E7E  00C4               	movwf	___fldiv@a
  4227  0E7F                     l725:	
  4228  0E7F  0847               	movf	___fldiv@a+3,w
  4229  0E80  0446               	iorwf	___fldiv@a+2,w
  4230  0E81  0445               	iorwf	___fldiv@a+1,w
  4231  0E82  0444               	iorwf	___fldiv@a,w
  4232  0E83  1D03               	skipz
  4233  0E84  2E86               	goto	u1931
  4234  0E85  2E87               	goto	u1930
  4235  0E86                     u1931:	
  4236  0E86  2EA0               	goto	l2176
  4237  0E87                     u1930:	
  4238  0E87                     l2168:	
  4239  0E87  3000               	movlw	0
  4240  0E88  00CB               	movwf	___fldiv@b+3
  4241  0E89  3000               	movlw	0
  4242  0E8A  00CA               	movwf	___fldiv@b+2
  4243  0E8B  3000               	movlw	0
  4244  0E8C  00C9               	movwf	___fldiv@b+1
  4245  0E8D  3000               	movlw	0
  4246  0E8E  00C8               	movwf	___fldiv@b
  4247  0E8F  3080               	movlw	128
  4248  0E90  04CA               	iorwf	___fldiv@b+2,f
  4249  0E91  307F               	movlw	127
  4250  0E92  04CB               	iorwf	___fldiv@b+3,f
  4251  0E93                     l2170:	
  4252  0E93  0855               	movf	___fldiv@sign,w
  4253  0E94  00CC               	movwf	??___fldiv
  4254  0E95  084C               	movf	??___fldiv,w
  4255  0E96  04CB               	iorwf	___fldiv@b+3,f
  4256  0E97                     l2172:	
  4257  0E97  084B               	movf	___fldiv@b+3,w
  4258  0E98  00C7               	movwf	?___fldiv+3
  4259  0E99  084A               	movf	___fldiv@b+2,w
  4260  0E9A  00C6               	movwf	?___fldiv+2
  4261  0E9B  0849               	movf	___fldiv@b+1,w
  4262  0E9C  00C5               	movwf	?___fldiv+1
  4263  0E9D  0848               	movf	___fldiv@b,w
  4264  0E9E  00C4               	movwf	?___fldiv
  4265  0E9F  2FFF               	goto	l727
  4266  0EA0                     l2176:	
  4267  0EA0  085C               	movf	___fldiv@bexp,w
  4268  0EA1  1D03               	btfss	3,2
  4269  0EA2  2EA4               	goto	u1941
  4270  0EA3  2EA5               	goto	u1940
  4271  0EA4                     u1941:	
  4272  0EA4  2EAE               	goto	l2182
  4273  0EA5                     u1940:	
  4274  0EA5                     l2178:	
  4275  0EA5  3000               	movlw	0
  4276  0EA6  00C7               	movwf	?___fldiv+3
  4277  0EA7  3000               	movlw	0
  4278  0EA8  00C6               	movwf	?___fldiv+2
  4279  0EA9  3000               	movlw	0
  4280  0EAA  00C5               	movwf	?___fldiv+1
  4281  0EAB  3000               	movlw	0
  4282  0EAC  00C4               	movwf	?___fldiv
  4283  0EAD  2FFF               	goto	l727
  4284  0EAE                     l2182:	
  4285  0EAE  085C               	movf	___fldiv@bexp,w
  4286  0EAF  00CC               	movwf	??___fldiv
  4287  0EB0  01CD               	clrf	??___fldiv+1
  4288  0EB1  084D               	movf	??___fldiv+1,w
  4289  0EB2  00CF               	movwf	??___fldiv+3
  4290  0EB3  085D               	movf	___fldiv@aexp,w
  4291  0EB4  024C               	subwf	??___fldiv,w
  4292  0EB5  00CE               	movwf	??___fldiv+2
  4293  0EB6  1C03               	skipc
  4294  0EB7  03CF               	decf	??___fldiv+3,f
  4295  0EB8  084E               	movf	??___fldiv+2,w
  4296  0EB9  3E7F               	addlw	127
  4297  0EBA  00D6               	movwf	___fldiv@new_exp
  4298  0EBB  084F               	movf	??___fldiv+3,w
  4299  0EBC  1803               	skipnc
  4300  0EBD  3E01               	addlw	1
  4301  0EBE  3E00               	addlw	0
  4302  0EBF  00D7               	movwf	___fldiv@new_exp+1
  4303  0EC0                     l2184:	
  4304  0EC0  084B               	movf	___fldiv@b+3,w
  4305  0EC1  00D4               	movwf	___fldiv@rem+3
  4306  0EC2  084A               	movf	___fldiv@b+2,w
  4307  0EC3  00D3               	movwf	___fldiv@rem+2
  4308  0EC4  0849               	movf	___fldiv@b+1,w
  4309  0EC5  00D2               	movwf	___fldiv@rem+1
  4310  0EC6  0848               	movf	___fldiv@b,w
  4311  0EC7  00D1               	movwf	___fldiv@rem
  4312  0EC8                     l2186:	
  4313  0EC8  3000               	movlw	0
  4314  0EC9  00CB               	movwf	___fldiv@b+3
  4315  0ECA  3000               	movlw	0
  4316  0ECB  00CA               	movwf	___fldiv@b+2
  4317  0ECC  3000               	movlw	0
  4318  0ECD  00C9               	movwf	___fldiv@b+1
  4319  0ECE  3000               	movlw	0
  4320  0ECF  00C8               	movwf	___fldiv@b
  4321  0ED0                     l2188:	
  4322  0ED0  3000               	movlw	0
  4323  0ED1  00DB               	movwf	___fldiv@grs+3
  4324  0ED2  3000               	movlw	0
  4325  0ED3  00DA               	movwf	___fldiv@grs+2
  4326  0ED4  3000               	movlw	0
  4327  0ED5  00D9               	movwf	___fldiv@grs+1
  4328  0ED6  3000               	movlw	0
  4329  0ED7  00D8               	movwf	___fldiv@grs
  4330  0ED8                     l2190:	
  4331  0ED8  01DD               	clrf	___fldiv@aexp
  4332  0ED9  2F24               	goto	l2210
  4333  0EDA                     l2192:	
  4334  0EDA  085D               	movf	___fldiv@aexp,w
  4335  0EDB  1903               	btfsc	3,2
  4336  0EDC  2EDE               	goto	u1951
  4337  0EDD  2EDF               	goto	u1950
  4338  0EDE                     u1951:	
  4339  0EDE  2EFF               	goto	l2202
  4340  0EDF                     u1950:	
  4341  0EDF                     l2194:	
  4342  0EDF  3001               	movlw	1
  4343  0EE0  00CC               	movwf	??___fldiv
  4344  0EE1                     u1965:	
  4345  0EE1  1003               	clrc
  4346  0EE2  0DD1               	rlf	___fldiv@rem,f
  4347  0EE3  0DD2               	rlf	___fldiv@rem+1,f
  4348  0EE4  0DD3               	rlf	___fldiv@rem+2,f
  4349  0EE5  0DD4               	rlf	___fldiv@rem+3,f
  4350  0EE6  0BCC               	decfsz	??___fldiv,f
  4351  0EE7  2EE1               	goto	u1965
  4352  0EE8  3001               	movlw	1
  4353  0EE9  00CC               	movwf	??___fldiv
  4354  0EEA                     u1975:	
  4355  0EEA  1003               	clrc
  4356  0EEB  0DC8               	rlf	___fldiv@b,f
  4357  0EEC  0DC9               	rlf	___fldiv@b+1,f
  4358  0EED  0DCA               	rlf	___fldiv@b+2,f
  4359  0EEE  0DCB               	rlf	___fldiv@b+3,f
  4360  0EEF  0BCC               	decfsz	??___fldiv,f
  4361  0EF0  2EEA               	goto	u1975
  4362  0EF1                     l2196:	
  4363  0EF1  1FDB               	btfss	___fldiv@grs+3,7
  4364  0EF2  2EF4               	goto	u1981
  4365  0EF3  2EF5               	goto	u1980
  4366  0EF4                     u1981:	
  4367  0EF4  2EF6               	goto	l2200
  4368  0EF5                     u1980:	
  4369  0EF5                     l2198:	
  4370  0EF5  1448               	bsf	___fldiv@b,0
  4371  0EF6                     l2200:	
  4372  0EF6  3001               	movlw	1
  4373  0EF7  00CC               	movwf	??___fldiv
  4374  0EF8                     u1995:	
  4375  0EF8  1003               	clrc
  4376  0EF9  0DD8               	rlf	___fldiv@grs,f
  4377  0EFA  0DD9               	rlf	___fldiv@grs+1,f
  4378  0EFB  0DDA               	rlf	___fldiv@grs+2,f
  4379  0EFC  0DDB               	rlf	___fldiv@grs+3,f
  4380  0EFD  0BCC               	decfsz	??___fldiv,f
  4381  0EFE  2EF8               	goto	u1995
  4382  0EFF                     l2202:	
  4383  0EFF  0847               	movf	___fldiv@a+3,w
  4384  0F00  0254               	subwf	___fldiv@rem+3,w
  4385  0F01  1D03               	skipz
  4386  0F02  2F0D               	goto	u2005
  4387  0F03  0846               	movf	___fldiv@a+2,w
  4388  0F04  0253               	subwf	___fldiv@rem+2,w
  4389  0F05  1D03               	skipz
  4390  0F06  2F0D               	goto	u2005
  4391  0F07  0845               	movf	___fldiv@a+1,w
  4392  0F08  0252               	subwf	___fldiv@rem+1,w
  4393  0F09  1D03               	skipz
  4394  0F0A  2F0D               	goto	u2005
  4395  0F0B  0844               	movf	___fldiv@a,w
  4396  0F0C  0251               	subwf	___fldiv@rem,w
  4397  0F0D                     u2005:	
  4398  0F0D  1C03               	skipc
  4399  0F0E  2F10               	goto	u2001
  4400  0F0F  2F11               	goto	u2000
  4401  0F10                     u2001:	
  4402  0F10  2F20               	goto	l2208
  4403  0F11                     u2000:	
  4404  0F11                     l2204:	
  4405  0F11  175B               	bsf	___fldiv@grs+3,6
  4406  0F12                     l2206:	
  4407  0F12  0844               	movf	___fldiv@a,w
  4408  0F13  02D1               	subwf	___fldiv@rem,f
  4409  0F14  0845               	movf	___fldiv@a+1,w
  4410  0F15  1C03               	skipc
  4411  0F16  0F45               	incfsz	___fldiv@a+1,w
  4412  0F17  02D2               	subwf	___fldiv@rem+1,f
  4413  0F18  0846               	movf	___fldiv@a+2,w
  4414  0F19  1C03               	skipc
  4415  0F1A  0F46               	incfsz	___fldiv@a+2,w
  4416  0F1B  02D3               	subwf	___fldiv@rem+2,f
  4417  0F1C  0847               	movf	___fldiv@a+3,w
  4418  0F1D  1C03               	skipc
  4419  0F1E  0F47               	incfsz	___fldiv@a+3,w
  4420  0F1F  02D4               	subwf	___fldiv@rem+3,f
  4421  0F20                     l2208:	
  4422  0F20  3001               	movlw	1
  4423  0F21  00CC               	movwf	??___fldiv
  4424  0F22  084C               	movf	??___fldiv,w
  4425  0F23  07DD               	addwf	___fldiv@aexp,f
  4426  0F24                     l2210:	
  4427  0F24  301A               	movlw	26
  4428  0F25  025D               	subwf	___fldiv@aexp,w
  4429  0F26  1C03               	skipc
  4430  0F27  2F29               	goto	u2011
  4431  0F28  2F2A               	goto	u2010
  4432  0F29                     u2011:	
  4433  0F29  2EDA               	goto	l2192
  4434  0F2A                     u2010:	
  4435  0F2A                     l2212:	
  4436  0F2A  0854               	movf	___fldiv@rem+3,w
  4437  0F2B  0453               	iorwf	___fldiv@rem+2,w
  4438  0F2C  0452               	iorwf	___fldiv@rem+1,w
  4439  0F2D  0451               	iorwf	___fldiv@rem,w
  4440  0F2E  1903               	skipnz
  4441  0F2F  2F31               	goto	u2021
  4442  0F30  2F32               	goto	u2020
  4443  0F31                     u2021:	
  4444  0F31  2F51               	goto	l2226
  4445  0F32                     u2020:	
  4446  0F32                     l2214:	
  4447  0F32  1458               	bsf	___fldiv@grs,0
  4448  0F33  2F51               	goto	l2226
  4449  0F34                     l2216:	
  4450  0F34  3001               	movlw	1
  4451  0F35  00CC               	movwf	??___fldiv
  4452  0F36                     u2035:	
  4453  0F36  1003               	clrc
  4454  0F37  0DC8               	rlf	___fldiv@b,f
  4455  0F38  0DC9               	rlf	___fldiv@b+1,f
  4456  0F39  0DCA               	rlf	___fldiv@b+2,f
  4457  0F3A  0DCB               	rlf	___fldiv@b+3,f
  4458  0F3B  0BCC               	decfsz	??___fldiv,f
  4459  0F3C  2F36               	goto	u2035
  4460  0F3D                     l2218:	
  4461  0F3D  1FDB               	btfss	___fldiv@grs+3,7
  4462  0F3E  2F40               	goto	u2041
  4463  0F3F  2F41               	goto	u2040
  4464  0F40                     u2041:	
  4465  0F40  2F42               	goto	l2222
  4466  0F41                     u2040:	
  4467  0F41                     l2220:	
  4468  0F41  1448               	bsf	___fldiv@b,0
  4469  0F42                     l2222:	
  4470  0F42  3001               	movlw	1
  4471  0F43  00CC               	movwf	??___fldiv
  4472  0F44                     u2055:	
  4473  0F44  1003               	clrc
  4474  0F45  0DD8               	rlf	___fldiv@grs,f
  4475  0F46  0DD9               	rlf	___fldiv@grs+1,f
  4476  0F47  0DDA               	rlf	___fldiv@grs+2,f
  4477  0F48  0DDB               	rlf	___fldiv@grs+3,f
  4478  0F49  0BCC               	decfsz	??___fldiv,f
  4479  0F4A  2F44               	goto	u2055
  4480  0F4B                     l2224:	
  4481  0F4B  30FF               	movlw	255
  4482  0F4C  07D6               	addwf	___fldiv@new_exp,f
  4483  0F4D  1803               	skipnc
  4484  0F4E  0AD7               	incf	___fldiv@new_exp+1,f
  4485  0F4F  30FF               	movlw	255
  4486  0F50  07D7               	addwf	___fldiv@new_exp+1,f
  4487  0F51                     l2226:	
  4488  0F51  1FCA               	btfss	___fldiv@b+2,7
  4489  0F52  2F54               	goto	u2061
  4490  0F53  2F55               	goto	u2060
  4491  0F54                     u2061:	
  4492  0F54  2F34               	goto	l2216
  4493  0F55                     u2060:	
  4494  0F55                     l2228:	
  4495  0F55  01DD               	clrf	___fldiv@aexp
  4496  0F56                     l2230:	
  4497  0F56  1FDB               	btfss	___fldiv@grs+3,7
  4498  0F57  2F59               	goto	u2071
  4499  0F58  2F5A               	goto	u2070
  4500  0F59                     u2071:	
  4501  0F59  2F76               	goto	l2238
  4502  0F5A                     u2070:	
  4503  0F5A                     l2232:	
  4504  0F5A  30FF               	movlw	255
  4505  0F5B  0558               	andwf	___fldiv@grs,w
  4506  0F5C  00CC               	movwf	??___fldiv
  4507  0F5D  30FF               	movlw	255
  4508  0F5E  0559               	andwf	___fldiv@grs+1,w
  4509  0F5F  00CD               	movwf	??___fldiv+1
  4510  0F60  30FF               	movlw	255
  4511  0F61  055A               	andwf	___fldiv@grs+2,w
  4512  0F62  00CE               	movwf	??___fldiv+2
  4513  0F63  307F               	movlw	127
  4514  0F64  055B               	andwf	___fldiv@grs+3,w
  4515  0F65  00CF               	movwf	??___fldiv+3
  4516  0F66  084F               	movf	??___fldiv+3,w
  4517  0F67  044E               	iorwf	??___fldiv+2,w
  4518  0F68  044D               	iorwf	??___fldiv+1,w
  4519  0F69  044C               	iorwf	??___fldiv,w
  4520  0F6A  1903               	skipnz
  4521  0F6B  2F6D               	goto	u2081
  4522  0F6C  2F6E               	goto	u2080
  4523  0F6D                     u2081:	
  4524  0F6D  2F71               	goto	l741
  4525  0F6E                     u2080:	
  4526  0F6E                     l2234:	
  4527  0F6E  01DD               	clrf	___fldiv@aexp
  4528  0F6F  0ADD               	incf	___fldiv@aexp,f
  4529  0F70  2F76               	goto	l2238
  4530  0F71                     l741:	
  4531  0F71  1C48               	btfss	___fldiv@b,0
  4532  0F72  2F74               	goto	u2091
  4533  0F73  2F75               	goto	u2090
  4534  0F74                     u2091:	
  4535  0F74  2F76               	goto	l2238
  4536  0F75                     u2090:	
  4537  0F75  2F6E               	goto	l2234
  4538  0F76                     l2238:	
  4539  0F76  085D               	movf	___fldiv@aexp,w
  4540  0F77  1903               	btfsc	3,2
  4541  0F78  2F7A               	goto	u2101
  4542  0F79  2F7B               	goto	u2100
  4543  0F7A                     u2101:	
  4544  0F7A  2FAC               	goto	l2248
  4545  0F7B                     u2100:	
  4546  0F7B                     l2240:	
  4547  0F7B  3001               	movlw	1
  4548  0F7C  07C8               	addwf	___fldiv@b,f
  4549  0F7D  3000               	movlw	0
  4550  0F7E  1803               	skipnc
  4551  0F7F  3001               	movlw	1
  4552  0F80  07C9               	addwf	___fldiv@b+1,f
  4553  0F81  3000               	movlw	0
  4554  0F82  1803               	skipnc
  4555  0F83  3001               	movlw	1
  4556  0F84  07CA               	addwf	___fldiv@b+2,f
  4557  0F85  3000               	movlw	0
  4558  0F86  1803               	skipnc
  4559  0F87  3001               	movlw	1
  4560  0F88  07CB               	addwf	___fldiv@b+3,f
  4561  0F89                     l2242:	
  4562  0F89  1C4B               	btfss	___fldiv@b+3,0
  4563  0F8A  2F8C               	goto	u2111
  4564  0F8B  2F8D               	goto	u2110
  4565  0F8C                     u2111:	
  4566  0F8C  2FAC               	goto	l2248
  4567  0F8D                     u2110:	
  4568  0F8D                     l2244:	
  4569  0F8D  0848               	movf	___fldiv@b,w
  4570  0F8E  00CC               	movwf	??___fldiv
  4571  0F8F  0849               	movf	___fldiv@b+1,w
  4572  0F90  00CD               	movwf	??___fldiv+1
  4573  0F91  084A               	movf	___fldiv@b+2,w
  4574  0F92  00CE               	movwf	??___fldiv+2
  4575  0F93  084B               	movf	___fldiv@b+3,w
  4576  0F94  00CF               	movwf	??___fldiv+3
  4577  0F95  3001               	movlw	1
  4578  0F96  00D0               	movwf	??___fldiv+4
  4579  0F97                     u2125:	
  4580  0F97  0D4F               	rlf	??___fldiv+3,w
  4581  0F98  0CCF               	rrf	??___fldiv+3,f
  4582  0F99  0CCE               	rrf	??___fldiv+2,f
  4583  0F9A  0CCD               	rrf	??___fldiv+1,f
  4584  0F9B  0CCC               	rrf	??___fldiv,f
  4585  0F9C                     u2120:	
  4586  0F9C  0BD0               	decfsz	??___fldiv+4,f
  4587  0F9D  2F97               	goto	u2125
  4588  0F9E  084F               	movf	??___fldiv+3,w
  4589  0F9F  00CB               	movwf	___fldiv@b+3
  4590  0FA0  084E               	movf	??___fldiv+2,w
  4591  0FA1  00CA               	movwf	___fldiv@b+2
  4592  0FA2  084D               	movf	??___fldiv+1,w
  4593  0FA3  00C9               	movwf	___fldiv@b+1
  4594  0FA4  084C               	movf	??___fldiv,w
  4595  0FA5  00C8               	movwf	___fldiv@b
  4596  0FA6                     l2246:	
  4597  0FA6  3001               	movlw	1
  4598  0FA7  07D6               	addwf	___fldiv@new_exp,f
  4599  0FA8  1803               	skipnc
  4600  0FA9  0AD7               	incf	___fldiv@new_exp+1,f
  4601  0FAA  3000               	movlw	0
  4602  0FAB  07D7               	addwf	___fldiv@new_exp+1,f
  4603  0FAC                     l2248:	
  4604  0FAC  0857               	movf	___fldiv@new_exp+1,w
  4605  0FAD  3A80               	xorlw	128
  4606  0FAE  00FF               	movwf	btemp+1
  4607  0FAF  3080               	movlw	128
  4608  0FB0  027F               	subwf	btemp+1,w
  4609  0FB1  1D03               	skipz
  4610  0FB2  2FB5               	goto	u2135
  4611  0FB3  30FF               	movlw	255
  4612  0FB4  0256               	subwf	___fldiv@new_exp,w
  4613  0FB5                     u2135:	
  4614  0FB5  1C03               	skipc
  4615  0FB6  2FB8               	goto	u2131
  4616  0FB7  2FB9               	goto	u2130
  4617  0FB8                     u2131:	
  4618  0FB8  2FC7               	goto	l2252
  4619  0FB9                     u2130:	
  4620  0FB9                     l2250:	
  4621  0FB9  30FF               	movlw	255
  4622  0FBA  1283               	bcf	3,5	;RP0=0, select bank0
  4623  0FBB  1303               	bcf	3,6	;RP1=0, select bank0
  4624  0FBC  00D6               	movwf	___fldiv@new_exp
  4625  0FBD  3000               	movlw	0
  4626  0FBE  00D7               	movwf	___fldiv@new_exp+1
  4627  0FBF  3000               	movlw	0
  4628  0FC0  00CB               	movwf	___fldiv@b+3
  4629  0FC1  3000               	movlw	0
  4630  0FC2  00CA               	movwf	___fldiv@b+2
  4631  0FC3  3000               	movlw	0
  4632  0FC4  00C9               	movwf	___fldiv@b+1
  4633  0FC5  3000               	movlw	0
  4634  0FC6  00C8               	movwf	___fldiv@b
  4635  0FC7                     l2252:	
  4636  0FC7  1283               	bcf	3,5	;RP0=0, select bank0
  4637  0FC8  1303               	bcf	3,6	;RP1=0, select bank0
  4638  0FC9  0857               	movf	___fldiv@new_exp+1,w
  4639  0FCA  3A80               	xorlw	128
  4640  0FCB  00FF               	movwf	btemp+1
  4641  0FCC  3080               	movlw	128
  4642  0FCD  027F               	subwf	btemp+1,w
  4643  0FCE  1D03               	skipz
  4644  0FCF  2FD2               	goto	u2145
  4645  0FD0  3001               	movlw	1
  4646  0FD1  0256               	subwf	___fldiv@new_exp,w
  4647  0FD2                     u2145:	
  4648  0FD2  1803               	skipnc
  4649  0FD3  2FD5               	goto	u2141
  4650  0FD4  2FD6               	goto	u2140
  4651  0FD5                     u2141:	
  4652  0FD5  2FE3               	goto	l747
  4653  0FD6                     u2140:	
  4654  0FD6                     l2254:	
  4655  0FD6  1283               	bcf	3,5	;RP0=0, select bank0
  4656  0FD7  1303               	bcf	3,6	;RP1=0, select bank0
  4657  0FD8  01D6               	clrf	___fldiv@new_exp
  4658  0FD9  01D7               	clrf	___fldiv@new_exp+1
  4659  0FDA                     l2256:	
  4660  0FDA  3000               	movlw	0
  4661  0FDB  00CB               	movwf	___fldiv@b+3
  4662  0FDC  3000               	movlw	0
  4663  0FDD  00CA               	movwf	___fldiv@b+2
  4664  0FDE  3000               	movlw	0
  4665  0FDF  00C9               	movwf	___fldiv@b+1
  4666  0FE0  3000               	movlw	0
  4667  0FE1  00C8               	movwf	___fldiv@b
  4668  0FE2                     l2258:	
  4669  0FE2  01D5               	clrf	___fldiv@sign
  4670  0FE3                     l747:	
  4671  0FE3  1283               	bcf	3,5	;RP0=0, select bank0
  4672  0FE4  1303               	bcf	3,6	;RP1=0, select bank0
  4673  0FE5  0856               	movf	___fldiv@new_exp,w
  4674  0FE6  00CC               	movwf	??___fldiv
  4675  0FE7  084C               	movf	??___fldiv,w
  4676  0FE8  00DC               	movwf	___fldiv@bexp
  4677  0FE9                     l2260:	
  4678  0FE9  1C5C               	btfss	___fldiv@bexp,0
  4679  0FEA  2FEC               	goto	u2151
  4680  0FEB  2FED               	goto	u2150
  4681  0FEC                     u2151:	
  4682  0FEC  2FEF               	goto	l2264
  4683  0FED                     u2150:	
  4684  0FED                     l2262:	
  4685  0FED  17CA               	bsf	___fldiv@b+2,7
  4686  0FEE  2FF3               	goto	l749
  4687  0FEF                     l2264:	
  4688  0FEF  307F               	movlw	127
  4689  0FF0  00CC               	movwf	??___fldiv
  4690  0FF1  084C               	movf	??___fldiv,w
  4691  0FF2  05CA               	andwf	___fldiv@b+2,f
  4692  0FF3                     l749:	
  4693  0FF3  085C               	movf	___fldiv@bexp,w
  4694  0FF4  00CC               	movwf	??___fldiv
  4695  0FF5  1003               	clrc
  4696  0FF6  0C4C               	rrf	??___fldiv,w
  4697  0FF7  00CD               	movwf	??___fldiv+1
  4698  0FF8  084D               	movf	??___fldiv+1,w
  4699  0FF9  00CB               	movwf	___fldiv@b+3
  4700  0FFA  0855               	movf	___fldiv@sign,w
  4701  0FFB  00CC               	movwf	??___fldiv
  4702  0FFC  084C               	movf	??___fldiv,w
  4703  0FFD  04CB               	iorwf	___fldiv@b+3,f
  4704  0FFE  2E97               	goto	l2172
  4705  0FFF                     l727:	
  4706  0FFF  0008               	return
  4707  1000                     __end_of___fldiv:	
  4708                           
  4709                           	psect	text9
  4710  162E                     __ptext9:	
  4711 ;; *************** function _shift *****************
  4712 ;; Defined at:
  4713 ;;		line 99 in file "./LCD.h"
  4714 ;; Parameters:    Size  Location     Type
  4715 ;;		None
  4716 ;; Auto vars:     Size  Location     Type
  4717 ;;		None
  4718 ;; Return value:  Size  Location     Type
  4719 ;;                  1    wreg      void 
  4720 ;; Registers used:
  4721 ;;		wreg
  4722 ;; Tracked objects:
  4723 ;;		On entry : 0/0
  4724 ;;		On exit  : 0/0
  4725 ;;		Unchanged: 0/0
  4726 ;; Data sizes:     COMMON   BANK0   BANK1   BANK3   BANK2
  4727 ;;      Params:         0       0       0       0       0
  4728 ;;      Locals:         0       0       0       0       0
  4729 ;;      Temps:          1       0       0       0       0
  4730 ;;      Totals:         1       0       0       0       0
  4731 ;;Total ram usage:        1 bytes
  4732 ;; Hardware stack levels used:    1
  4733 ;; Hardware stack levels required when called:    1
  4734 ;; This function calls:
  4735 ;;		Nothing
  4736 ;; This function is called by:
  4737 ;;		_main
  4738 ;; This function uses a non-reentrant model
  4739 ;;
  4740                           
  4741                           
  4742                           ;psect for function _shift
  4743  162E                     _shift:	
  4744  162E                     l2492:	
  4745                           ;incstack = 0
  4746                           ; Regs used in _shift: [wreg]
  4747                           
  4748                           
  4749                           ;./LCD.h: 104:     PORTDbits.RD6 = 0;
  4750  162E  1283               	bcf	3,5	;RP0=0, select bank0
  4751  162F  1303               	bcf	3,6	;RP1=0, select bank0
  4752  1630  1308               	bcf	8,6	;volatile
  4753  1631                     l2494:	
  4754                           
  4755                           ;./LCD.h: 105:     PORTB = 0b00011000;
  4756  1631  3018               	movlw	24
  4757  1632  0086               	movwf	6	;volatile
  4758  1633                     l2496:	
  4759                           
  4760                           ;./LCD.h: 106:     PORTDbits.RD7 = 1;
  4761  1633  1788               	bsf	8,7	;volatile
  4762                           
  4763                           ;./LCD.h: 107:     _delay((unsigned long)((1)*(4000000/4000.0)));
  4764  1634  30C7               	movlw	199
  4765  1635  00F2               	movwf	??_shift
  4766  1636                     u3837:	
  4767  1636  2E37               	nop2
  4768  1637  0BF2               	decfsz	??_shift,f
  4769  1638  2E36               	goto	u3837
  4770  1639  2E3A               	nop2
  4771  163A  2E3B               	nop2
  4772  163B                     l2498:	
  4773                           
  4774                           ;./LCD.h: 108:     PORTDbits.RD7 = 0;
  4775  163B  1283               	bcf	3,5	;RP0=0, select bank0
  4776  163C  1303               	bcf	3,6	;RP1=0, select bank0
  4777  163D  1388               	bcf	8,7	;volatile
  4778  163E                     l129:	
  4779  163E  0008               	return
  4780  163F                     __end_of_shift:	
  4781                           
  4782                           	psect	text10
  4783  1652                     __ptext10:	
  4784 ;; *************** function _setup *****************
  4785 ;; Defined at:
  4786 ;;		line 263 in file "Carcelero.c"
  4787 ;; Parameters:    Size  Location     Type
  4788 ;;		None
  4789 ;; Auto vars:     Size  Location     Type
  4790 ;;		None
  4791 ;; Return value:  Size  Location     Type
  4792 ;;                  1    wreg      void 
  4793 ;; Registers used:
  4794 ;;		status,2
  4795 ;; Tracked objects:
  4796 ;;		On entry : 0/0
  4797 ;;		On exit  : 0/0
  4798 ;;		Unchanged: 0/0
  4799 ;; Data sizes:     COMMON   BANK0   BANK1   BANK3   BANK2
  4800 ;;      Params:         0       0       0       0       0
  4801 ;;      Locals:         0       0       0       0       0
  4802 ;;      Temps:          0       0       0       0       0
  4803 ;;      Totals:         0       0       0       0       0
  4804 ;;Total ram usage:        0 bytes
  4805 ;; Hardware stack levels used:    1
  4806 ;; Hardware stack levels required when called:    1
  4807 ;; This function calls:
  4808 ;;		Nothing
  4809 ;; This function is called by:
  4810 ;;		_main
  4811 ;; This function uses a non-reentrant model
  4812 ;;
  4813                           
  4814                           
  4815                           ;psect for function _setup
  4816  1652                     _setup:	
  4817  1652                     l2666:	
  4818                           ;incstack = 0
  4819                           ; Regs used in _setup: [status,2]
  4820                           
  4821                           
  4822                           ;Carcelero.c: 265:     ANSEL = 0;
  4823  1652  1683               	bsf	3,5	;RP0=1, select bank3
  4824  1653  1703               	bsf	3,6	;RP1=1, select bank3
  4825  1654  0188               	clrf	8	;volatile
  4826                           
  4827                           ;Carcelero.c: 266:     ANSELH = 0;
  4828  1655  0189               	clrf	9	;volatile
  4829                           
  4830                           ;Carcelero.c: 268:     TRISA = 0;
  4831  1656  1683               	bsf	3,5	;RP0=1, select bank1
  4832  1657  1303               	bcf	3,6	;RP1=0, select bank1
  4833  1658  0185               	clrf	5	;volatile
  4834                           
  4835                           ;Carcelero.c: 269:     TRISB = 0;
  4836  1659  0186               	clrf	6	;volatile
  4837                           
  4838                           ;Carcelero.c: 270:     TRISC = 0;
  4839  165A  0187               	clrf	7	;volatile
  4840  165B                     l2668:	
  4841                           
  4842                           ;Carcelero.c: 272:     TRISCbits.TRISC6 = 1;
  4843  165B  1707               	bsf	7,6	;volatile
  4844  165C                     l2670:	
  4845                           
  4846                           ;Carcelero.c: 274:     TRISDbits.TRISD6 = 0;
  4847  165C  1308               	bcf	8,6	;volatile
  4848  165D                     l2672:	
  4849                           
  4850                           ;Carcelero.c: 275:     TRISDbits.TRISD7 = 0;
  4851  165D  1388               	bcf	8,7	;volatile
  4852                           
  4853                           ;Carcelero.c: 277:     PORTA = 0;
  4854  165E  1283               	bcf	3,5	;RP0=0, select bank0
  4855  165F  1303               	bcf	3,6	;RP1=0, select bank0
  4856  1660  0185               	clrf	5	;volatile
  4857                           
  4858                           ;Carcelero.c: 278:     PORTB = 0;
  4859  1661  0186               	clrf	6	;volatile
  4860                           
  4861                           ;Carcelero.c: 279:     PORTC = 0;
  4862  1662  0187               	clrf	7	;volatile
  4863                           
  4864                           ;Carcelero.c: 280:     PORTD = 0;
  4865  1663  0188               	clrf	8	;volatile
  4866  1664                     l262:	
  4867  1664  0008               	return
  4868  1665                     __end_of_setup:	
  4869                           
  4870                           	psect	text11
  4871  0802                     __ptext11:	
  4872 ;; *************** function _read_RTC *****************
  4873 ;; Defined at:
  4874 ;;		line 432 in file "Carcelero.c"
  4875 ;; Parameters:    Size  Location     Type
  4876 ;;  address         1    wreg     unsigned char 
  4877 ;; Auto vars:     Size  Location     Type
  4878 ;;  address         1    8[COMMON] unsigned char 
  4879 ;; Return value:  Size  Location     Type
  4880 ;;                  1    wreg      unsigned char 
  4881 ;; Registers used:
  4882 ;;		wreg, status,2, status,0, pclath, cstack
  4883 ;; Tracked objects:
  4884 ;;		On entry : 0/0
  4885 ;;		On exit  : 0/0
  4886 ;;		Unchanged: 0/0
  4887 ;; Data sizes:     COMMON   BANK0   BANK1   BANK3   BANK2
  4888 ;;      Params:         0       0       0       0       0
  4889 ;;      Locals:         1       0       0       0       0
  4890 ;;      Temps:          0       2       0       0       0
  4891 ;;      Totals:         1       2       0       0       0
  4892 ;;Total ram usage:        3 bytes
  4893 ;; Hardware stack levels used:    1
  4894 ;; Hardware stack levels required when called:    3
  4895 ;; This function calls:
  4896 ;;		_I2C_Master_Read
  4897 ;;		_I2C_Master_RepeatedStart
  4898 ;;		_I2C_Master_Start
  4899 ;;		_I2C_Master_Stop
  4900 ;;		_I2C_Master_Write
  4901 ;; This function is called by:
  4902 ;;		_main
  4903 ;; This function uses a non-reentrant model
  4904 ;;
  4905                           
  4906                           
  4907                           ;psect for function _read_RTC
  4908  0802                     _read_RTC:	
  4909                           
  4910                           ;incstack = 0
  4911                           ; Regs used in _read_RTC: [wreg+status,2+status,0+pclath+cstack]
  4912                           ;read_RTC@address stored from wreg
  4913  0802  00F8               	movwf	read_RTC@address
  4914  0803                     l3348:	
  4915                           
  4916                           ;Carcelero.c: 432: char read_RTC(char address);Carcelero.c: 433: {;Carcelero.c: 434:    
      +                               I2C_Master_Start();
  4917  0803  160A  118A  25EE  120A  158A  	fcall	_I2C_Master_Start
  4918                           
  4919                           ;Carcelero.c: 435:         I2C_Master_Write(0xD0);
  4920  0808  30D0               	movlw	208
  4921  0809  00F2               	movwf	I2C_Master_Write@d
  4922  080A  3000               	movlw	0
  4923  080B  00F3               	movwf	I2C_Master_Write@d+1
  4924  080C  160A  118A  2600  120A  158A  	fcall	_I2C_Master_Write
  4925                           
  4926                           ;Carcelero.c: 436:         I2C_Master_Write(address);
  4927  0811  0878               	movf	read_RTC@address,w
  4928  0812  1283               	bcf	3,5	;RP0=0, select bank0
  4929  0813  1303               	bcf	3,6	;RP1=0, select bank0
  4930  0814  00A0               	movwf	??_read_RTC
  4931  0815  01A1               	clrf	??_read_RTC+1
  4932  0816  0820               	movf	??_read_RTC,w
  4933  0817  00F2               	movwf	I2C_Master_Write@d
  4934  0818  0821               	movf	??_read_RTC+1,w
  4935  0819  00F3               	movwf	I2C_Master_Write@d+1
  4936  081A  160A  118A  2600  120A  158A  	fcall	_I2C_Master_Write
  4937                           
  4938                           ;Carcelero.c: 437:         I2C_Master_RepeatedStart();
  4939  081F  160A  118A  25E5  120A  158A  	fcall	_I2C_Master_RepeatedStart
  4940                           
  4941                           ;Carcelero.c: 438:         I2C_Master_Write(0xD1);
  4942  0824  30D1               	movlw	209
  4943  0825  00F2               	movwf	I2C_Master_Write@d
  4944  0826  3000               	movlw	0
  4945  0827  00F3               	movwf	I2C_Master_Write@d+1
  4946  0828  160A  118A  2600  120A  158A  	fcall	_I2C_Master_Write
  4947                           
  4948                           ;Carcelero.c: 439:         dat = I2C_Master_Read(0);
  4949  082D  3000               	movlw	0
  4950  082E  00F2               	movwf	I2C_Master_Read@a
  4951  082F  00F3               	movwf	I2C_Master_Read@a+1
  4952  0830  160A  118A  272F  120A  158A  	fcall	_I2C_Master_Read
  4953  0835  0873               	movf	?_I2C_Master_Read+1,w
  4954  0836  1683               	bsf	3,5	;RP0=1, select bank1
  4955  0837  1303               	bcf	3,6	;RP1=0, select bank1
  4956  0838  00B7               	movwf	(_dat+1)^(0+128)
  4957  0839  0872               	movf	?_I2C_Master_Read,w
  4958  083A  00B6               	movwf	_dat^(0+128)
  4959                           
  4960                           ;Carcelero.c: 440:         I2C_Master_Stop();
  4961  083B  160A  118A  25F7  120A  158A  	fcall	_I2C_Master_Stop
  4962  0840                     l3350:	
  4963                           
  4964                           ;Carcelero.c: 441:         return dat;
  4965  0840  1683               	bsf	3,5	;RP0=1, select bank1
  4966  0841  1303               	bcf	3,6	;RP1=0, select bank1
  4967  0842  0836               	movf	_dat^(0+128),w
  4968  0843                     l278:	
  4969  0843  0008               	return
  4970  0844                     __end_of_read_RTC:	
  4971                           
  4972                           	psect	text12
  4973  1600                     __ptext12:	
  4974 ;; *************** function _I2C_Master_Write *****************
  4975 ;; Defined at:
  4976 ;;		line 65 in file "./I2Cmaestro.h"
  4977 ;; Parameters:    Size  Location     Type
  4978 ;;  d               2    2[COMMON] unsigned int 
  4979 ;; Auto vars:     Size  Location     Type
  4980 ;;		None
  4981 ;; Return value:  Size  Location     Type
  4982 ;;                  1    wreg      void 
  4983 ;; Registers used:
  4984 ;;		wreg, status,2, status,0, pclath, cstack
  4985 ;; Tracked objects:
  4986 ;;		On entry : 0/0
  4987 ;;		On exit  : 0/0
  4988 ;;		Unchanged: 0/0
  4989 ;; Data sizes:     COMMON   BANK0   BANK1   BANK3   BANK2
  4990 ;;      Params:         2       0       0       0       0
  4991 ;;      Locals:         0       0       0       0       0
  4992 ;;      Temps:          0       0       0       0       0
  4993 ;;      Totals:         2       0       0       0       0
  4994 ;;Total ram usage:        2 bytes
  4995 ;; Hardware stack levels used:    1
  4996 ;; Hardware stack levels required when called:    2
  4997 ;; This function calls:
  4998 ;;		_I2C_Master_Wait
  4999 ;; This function is called by:
  5000 ;;		_main
  5001 ;;		_read_RTC
  5002 ;;		_write_RTC
  5003 ;; This function uses a non-reentrant model
  5004 ;;
  5005                           
  5006                           
  5007                           ;psect for function _I2C_Master_Write
  5008  1600                     _I2C_Master_Write:	
  5009  1600                     l1934:	
  5010                           ;incstack = 0
  5011                           ; Regs used in _I2C_Master_Write: [wreg+status,2+status,0+pclath+cstack]
  5012                           
  5013                           
  5014                           ;./I2Cmaestro.h: 65: void I2C_Master_Write(unsigned d);./I2Cmaestro.h: 66: {;./I2Cmaestr
      +                          o.h: 67:     I2C_Master_Wait();
  5015  1600  160A  118A  2621  160A  118A  	fcall	_I2C_Master_Wait
  5016  1605                     l1936:	
  5017                           
  5018                           ;./I2Cmaestro.h: 68:     SSPBUF = d;
  5019  1605  0872               	movf	I2C_Master_Write@d,w
  5020  1606  1283               	bcf	3,5	;RP0=0, select bank0
  5021  1607  1303               	bcf	3,6	;RP1=0, select bank0
  5022  1608  0093               	movwf	19	;volatile
  5023  1609                     l97:	
  5024  1609  0008               	return
  5025  160A                     __end_of_I2C_Master_Write:	
  5026                           
  5027                           	psect	text13
  5028  15F7                     __ptext13:	
  5029 ;; *************** function _I2C_Master_Stop *****************
  5030 ;; Defined at:
  5031 ;;		line 55 in file "./I2Cmaestro.h"
  5032 ;; Parameters:    Size  Location     Type
  5033 ;;		None
  5034 ;; Auto vars:     Size  Location     Type
  5035 ;;		None
  5036 ;; Return value:  Size  Location     Type
  5037 ;;                  1    wreg      void 
  5038 ;; Registers used:
  5039 ;;		wreg, status,2, status,0, pclath, cstack
  5040 ;; Tracked objects:
  5041 ;;		On entry : 0/0
  5042 ;;		On exit  : 0/0
  5043 ;;		Unchanged: 0/0
  5044 ;; Data sizes:     COMMON   BANK0   BANK1   BANK3   BANK2
  5045 ;;      Params:         0       0       0       0       0
  5046 ;;      Locals:         0       0       0       0       0
  5047 ;;      Temps:          0       0       0       0       0
  5048 ;;      Totals:         0       0       0       0       0
  5049 ;;Total ram usage:        0 bytes
  5050 ;; Hardware stack levels used:    1
  5051 ;; Hardware stack levels required when called:    2
  5052 ;; This function calls:
  5053 ;;		_I2C_Master_Wait
  5054 ;; This function is called by:
  5055 ;;		_main
  5056 ;;		_read_RTC
  5057 ;;		_write_RTC
  5058 ;; This function uses a non-reentrant model
  5059 ;;
  5060                           
  5061                           
  5062                           ;psect for function _I2C_Master_Stop
  5063  15F7                     _I2C_Master_Stop:	
  5064  15F7                     l1930:	
  5065                           ;incstack = 0
  5066                           ; Regs used in _I2C_Master_Stop: [wreg+status,2+status,0+pclath+cstack]
  5067                           
  5068                           
  5069                           ;./I2Cmaestro.h: 57:     I2C_Master_Wait();
  5070  15F7  160A  118A  2621  160A  118A  	fcall	_I2C_Master_Wait
  5071  15FC                     l1932:	
  5072                           
  5073                           ;./I2Cmaestro.h: 58:     SSPCON2bits.PEN = 1;
  5074  15FC  1683               	bsf	3,5	;RP0=1, select bank1
  5075  15FD  1303               	bcf	3,6	;RP1=0, select bank1
  5076  15FE  1511               	bsf	17,2	;volatile
  5077  15FF                     l94:	
  5078  15FF  0008               	return
  5079  1600                     __end_of_I2C_Master_Stop:	
  5080                           
  5081                           	psect	text14
  5082  15EE                     __ptext14:	
  5083 ;; *************** function _I2C_Master_Start *****************
  5084 ;; Defined at:
  5085 ;;		line 39 in file "./I2Cmaestro.h"
  5086 ;; Parameters:    Size  Location     Type
  5087 ;;		None
  5088 ;; Auto vars:     Size  Location     Type
  5089 ;;		None
  5090 ;; Return value:  Size  Location     Type
  5091 ;;                  1    wreg      void 
  5092 ;; Registers used:
  5093 ;;		wreg, status,2, status,0, pclath, cstack
  5094 ;; Tracked objects:
  5095 ;;		On entry : 0/0
  5096 ;;		On exit  : 0/0
  5097 ;;		Unchanged: 0/0
  5098 ;; Data sizes:     COMMON   BANK0   BANK1   BANK3   BANK2
  5099 ;;      Params:         0       0       0       0       0
  5100 ;;      Locals:         0       0       0       0       0
  5101 ;;      Temps:          0       0       0       0       0
  5102 ;;      Totals:         0       0       0       0       0
  5103 ;;Total ram usage:        0 bytes
  5104 ;; Hardware stack levels used:    1
  5105 ;; Hardware stack levels required when called:    2
  5106 ;; This function calls:
  5107 ;;		_I2C_Master_Wait
  5108 ;; This function is called by:
  5109 ;;		_main
  5110 ;;		_read_RTC
  5111 ;;		_write_RTC
  5112 ;; This function uses a non-reentrant model
  5113 ;;
  5114                           
  5115                           
  5116                           ;psect for function _I2C_Master_Start
  5117  15EE                     _I2C_Master_Start:	
  5118  15EE                     l1922:	
  5119                           ;incstack = 0
  5120                           ; Regs used in _I2C_Master_Start: [wreg+status,2+status,0+pclath+cstack]
  5121                           
  5122                           
  5123                           ;./I2Cmaestro.h: 41:     I2C_Master_Wait();
  5124  15EE  160A  118A  2621  160A  118A  	fcall	_I2C_Master_Wait
  5125  15F3                     l1924:	
  5126                           
  5127                           ;./I2Cmaestro.h: 42:     SSPCON2bits.SEN = 1;
  5128  15F3  1683               	bsf	3,5	;RP0=1, select bank1
  5129  15F4  1303               	bcf	3,6	;RP1=0, select bank1
  5130  15F5  1411               	bsf	17,0	;volatile
  5131  15F6                     l88:	
  5132  15F6  0008               	return
  5133  15F7                     __end_of_I2C_Master_Start:	
  5134                           
  5135                           	psect	text15
  5136  15E5                     __ptext15:	
  5137 ;; *************** function _I2C_Master_RepeatedStart *****************
  5138 ;; Defined at:
  5139 ;;		line 47 in file "./I2Cmaestro.h"
  5140 ;; Parameters:    Size  Location     Type
  5141 ;;		None
  5142 ;; Auto vars:     Size  Location     Type
  5143 ;;		None
  5144 ;; Return value:  Size  Location     Type
  5145 ;;                  1    wreg      void 
  5146 ;; Registers used:
  5147 ;;		wreg, status,2, status,0, pclath, cstack
  5148 ;; Tracked objects:
  5149 ;;		On entry : 0/0
  5150 ;;		On exit  : 0/0
  5151 ;;		Unchanged: 0/0
  5152 ;; Data sizes:     COMMON   BANK0   BANK1   BANK3   BANK2
  5153 ;;      Params:         0       0       0       0       0
  5154 ;;      Locals:         0       0       0       0       0
  5155 ;;      Temps:          0       0       0       0       0
  5156 ;;      Totals:         0       0       0       0       0
  5157 ;;Total ram usage:        0 bytes
  5158 ;; Hardware stack levels used:    1
  5159 ;; Hardware stack levels required when called:    2
  5160 ;; This function calls:
  5161 ;;		_I2C_Master_Wait
  5162 ;; This function is called by:
  5163 ;;		_read_RTC
  5164 ;; This function uses a non-reentrant model
  5165 ;;
  5166                           
  5167                           
  5168                           ;psect for function _I2C_Master_RepeatedStart
  5169  15E5                     _I2C_Master_RepeatedStart:	
  5170  15E5                     l1926:	
  5171                           ;incstack = 0
  5172                           ; Regs used in _I2C_Master_RepeatedStart: [wreg+status,2+status,0+pclath+cstack]
  5173                           
  5174                           
  5175                           ;./I2Cmaestro.h: 49:     I2C_Master_Wait();
  5176  15E5  160A  118A  2621  160A  118A  	fcall	_I2C_Master_Wait
  5177  15EA                     l1928:	
  5178                           
  5179                           ;./I2Cmaestro.h: 50:     SSPCON2bits.RSEN = 1;
  5180  15EA  1683               	bsf	3,5	;RP0=1, select bank1
  5181  15EB  1303               	bcf	3,6	;RP1=0, select bank1
  5182  15EC  1491               	bsf	17,1	;volatile
  5183  15ED                     l91:	
  5184  15ED  0008               	return
  5185  15EE                     __end_of_I2C_Master_RepeatedStart:	
  5186                           
  5187                           	psect	text16
  5188  172F                     __ptext16:	
  5189 ;; *************** function _I2C_Master_Read *****************
  5190 ;; Defined at:
  5191 ;;		line 74 in file "./I2Cmaestro.h"
  5192 ;; Parameters:    Size  Location     Type
  5193 ;;  a               2    2[COMMON] unsigned short 
  5194 ;; Auto vars:     Size  Location     Type
  5195 ;;  temp            2    6[COMMON] unsigned short 
  5196 ;; Return value:  Size  Location     Type
  5197 ;;                  2    2[COMMON] unsigned short 
  5198 ;; Registers used:
  5199 ;;		wreg, status,2, status,0, pclath, cstack
  5200 ;; Tracked objects:
  5201 ;;		On entry : 0/0
  5202 ;;		On exit  : 0/0
  5203 ;;		Unchanged: 0/0
  5204 ;; Data sizes:     COMMON   BANK0   BANK1   BANK3   BANK2
  5205 ;;      Params:         2       0       0       0       0
  5206 ;;      Locals:         2       0       0       0       0
  5207 ;;      Temps:          2       0       0       0       0
  5208 ;;      Totals:         6       0       0       0       0
  5209 ;;Total ram usage:        6 bytes
  5210 ;; Hardware stack levels used:    1
  5211 ;; Hardware stack levels required when called:    2
  5212 ;; This function calls:
  5213 ;;		_I2C_Master_Wait
  5214 ;; This function is called by:
  5215 ;;		_main
  5216 ;;		_read_RTC
  5217 ;; This function uses a non-reentrant model
  5218 ;;
  5219                           
  5220                           
  5221                           ;psect for function _I2C_Master_Read
  5222  172F                     _I2C_Master_Read:	
  5223  172F                     l1938:	
  5224                           ;incstack = 0
  5225                           ; Regs used in _I2C_Master_Read: [wreg+status,2+status,0+pclath+cstack]
  5226                           
  5227                           
  5228                           ;./I2Cmaestro.h: 74: unsigned short I2C_Master_Read(unsigned short a);./I2Cmaestro.h: 75
      +                          : {;./I2Cmaestro.h: 76:     unsigned short temp;;./I2Cmaestro.h: 77:     I2C_Master_Wait
      +                          ();
  5229  172F  160A  118A  2621  160A  118A  	fcall	_I2C_Master_Wait
  5230  1734                     l1940:	
  5231                           
  5232                           ;./I2Cmaestro.h: 78:     SSPCON2bits.RCEN = 1;
  5233  1734  1683               	bsf	3,5	;RP0=1, select bank1
  5234  1735  1303               	bcf	3,6	;RP1=0, select bank1
  5235  1736  1591               	bsf	17,3	;volatile
  5236                           
  5237                           ;./I2Cmaestro.h: 79:     I2C_Master_Wait();
  5238  1737  160A  118A  2621  160A  118A  	fcall	_I2C_Master_Wait
  5239  173C                     l1942:	
  5240                           
  5241                           ;./I2Cmaestro.h: 80:     temp = SSPBUF;
  5242  173C  1283               	bcf	3,5	;RP0=0, select bank0
  5243  173D  1303               	bcf	3,6	;RP1=0, select bank0
  5244  173E  0813               	movf	19,w	;volatile
  5245  173F  00F4               	movwf	??_I2C_Master_Read
  5246  1740  01F5               	clrf	??_I2C_Master_Read+1
  5247  1741  0874               	movf	??_I2C_Master_Read,w
  5248  1742  00F6               	movwf	I2C_Master_Read@temp
  5249  1743  0875               	movf	??_I2C_Master_Read+1,w
  5250  1744  00F7               	movwf	I2C_Master_Read@temp+1
  5251  1745                     l1944:	
  5252                           
  5253                           ;./I2Cmaestro.h: 81:     I2C_Master_Wait();
  5254  1745  160A  118A  2621  160A  118A  	fcall	_I2C_Master_Wait
  5255  174A                     l1946:	
  5256                           
  5257                           ;./I2Cmaestro.h: 82:     if(a == 1){
  5258  174A  0372               	decf	I2C_Master_Read@a,w
  5259  174B  0473               	iorwf	I2C_Master_Read@a+1,w
  5260  174C  1D03               	btfss	3,2
  5261  174D  2F4F               	goto	u1471
  5262  174E  2F50               	goto	u1470
  5263  174F                     u1471:	
  5264  174F  2F54               	goto	l100
  5265  1750                     u1470:	
  5266  1750                     l1948:	
  5267                           
  5268                           ;./I2Cmaestro.h: 83:         SSPCON2bits.ACKDT = 0;
  5269  1750  1683               	bsf	3,5	;RP0=1, select bank1
  5270  1751  1303               	bcf	3,6	;RP1=0, select bank1
  5271  1752  1291               	bcf	17,5	;volatile
  5272                           
  5273                           ;./I2Cmaestro.h: 84:     }else{
  5274  1753  2F57               	goto	l101
  5275  1754                     l100:	
  5276                           
  5277                           ;./I2Cmaestro.h: 85:         SSPCON2bits.ACKDT = 1;
  5278  1754  1683               	bsf	3,5	;RP0=1, select bank1
  5279  1755  1303               	bcf	3,6	;RP1=0, select bank1
  5280  1756  1691               	bsf	17,5	;volatile
  5281  1757                     l101:	
  5282                           ;./I2Cmaestro.h: 86:     }
  5283                           
  5284                           
  5285                           ;./I2Cmaestro.h: 87:     SSPCON2bits.ACKEN = 1;
  5286  1757  1611               	bsf	17,4	;volatile
  5287  1758                     l1950:	
  5288                           
  5289                           ;./I2Cmaestro.h: 88:     return temp;
  5290  1758  0877               	movf	I2C_Master_Read@temp+1,w
  5291  1759  00F3               	movwf	?_I2C_Master_Read+1
  5292  175A  0876               	movf	I2C_Master_Read@temp,w
  5293  175B  00F2               	movwf	?_I2C_Master_Read
  5294  175C                     l102:	
  5295  175C  0008               	return
  5296  175D                     __end_of_I2C_Master_Read:	
  5297                           
  5298                           	psect	text17
  5299  1621                     __ptext17:	
  5300 ;; *************** function _I2C_Master_Wait *****************
  5301 ;; Defined at:
  5302 ;;		line 32 in file "./I2Cmaestro.h"
  5303 ;; Parameters:    Size  Location     Type
  5304 ;;		None
  5305 ;; Auto vars:     Size  Location     Type
  5306 ;;		None
  5307 ;; Return value:  Size  Location     Type
  5308 ;;                  1    wreg      void 
  5309 ;; Registers used:
  5310 ;;		wreg, status,2
  5311 ;; Tracked objects:
  5312 ;;		On entry : 0/0
  5313 ;;		On exit  : 0/0
  5314 ;;		Unchanged: 0/0
  5315 ;; Data sizes:     COMMON   BANK0   BANK1   BANK3   BANK2
  5316 ;;      Params:         0       0       0       0       0
  5317 ;;      Locals:         0       0       0       0       0
  5318 ;;      Temps:          0       0       0       0       0
  5319 ;;      Totals:         0       0       0       0       0
  5320 ;;Total ram usage:        0 bytes
  5321 ;; Hardware stack levels used:    1
  5322 ;; Hardware stack levels required when called:    1
  5323 ;; This function calls:
  5324 ;;		Nothing
  5325 ;; This function is called by:
  5326 ;;		_I2C_Master_Start
  5327 ;;		_I2C_Master_RepeatedStart
  5328 ;;		_I2C_Master_Stop
  5329 ;;		_I2C_Master_Write
  5330 ;;		_I2C_Master_Read
  5331 ;; This function uses a non-reentrant model
  5332 ;;
  5333                           
  5334                           
  5335                           ;psect for function _I2C_Master_Wait
  5336  1621                     _I2C_Master_Wait:	
  5337  1621                     l1896:	
  5338                           ;incstack = 0
  5339                           ; Regs used in _I2C_Master_Wait: [wreg+status,2]
  5340                           
  5341  1621                     l82:	
  5342                           ;./I2Cmaestro.h: 34:     while ((SSPSTAT & 0x04) || (SSPCON2 & 0x1F));
  5343                           
  5344  1621  1683               	bsf	3,5	;RP0=1, select bank1
  5345  1622  1303               	bcf	3,6	;RP1=0, select bank1
  5346  1623  1914               	btfsc	20,2	;volatile
  5347  1624  2E26               	goto	u1421
  5348  1625  2E27               	goto	u1420
  5349  1626                     u1421:	
  5350  1626  2E21               	goto	l82
  5351  1627                     u1420:	
  5352  1627                     l1898:	
  5353  1627  0811               	movf	17,w	;volatile
  5354  1628  391F               	andlw	31
  5355  1629  1D03               	btfss	3,2
  5356  162A  2E2C               	goto	u1431
  5357  162B  2E2D               	goto	u1430
  5358  162C                     u1431:	
  5359  162C  2E21               	goto	l82
  5360  162D                     u1430:	
  5361  162D                     l85:	
  5362  162D  0008               	return
  5363  162E                     __end_of_I2C_Master_Wait:	
  5364                           
  5365                           	psect	text18
  5366  0695                     __ptext18:	
  5367 ;; *************** function _luces *****************
  5368 ;; Defined at:
  5369 ;;		line 200 in file "Carcelero.c"
  5370 ;; Parameters:    Size  Location     Type
  5371 ;;		None
  5372 ;; Auto vars:     Size  Location     Type
  5373 ;;		None
  5374 ;; Return value:  Size  Location     Type
  5375 ;;                  1    wreg      void 
  5376 ;; Registers used:
  5377 ;;		wreg, fsr0l, fsr0h, status,2, status,0, pclath, cstack
  5378 ;; Tracked objects:
  5379 ;;		On entry : 0/0
  5380 ;;		On exit  : 0/0
  5381 ;;		Unchanged: 0/0
  5382 ;; Data sizes:     COMMON   BANK0   BANK1   BANK3   BANK2
  5383 ;;      Params:         0       0       0       0       0
  5384 ;;      Locals:         0       0       0       0       0
  5385 ;;      Temps:          0       2       0       0       0
  5386 ;;      Totals:         0       2       0       0       0
  5387 ;;Total ram usage:        2 bytes
  5388 ;; Hardware stack levels used:    1
  5389 ;; Hardware stack levels required when called:    3
  5390 ;; This function calls:
  5391 ;;		___awdiv
  5392 ;;		___awmod
  5393 ;;		_colocar
  5394 ;;		_imprimir
  5395 ;;		_mostrar
  5396 ;; This function is called by:
  5397 ;;		_main
  5398 ;; This function uses a non-reentrant model
  5399 ;;
  5400                           
  5401                           
  5402                           ;psect for function _luces
  5403  0695                     _luces:	
  5404  0695                     l3296:	
  5405                           ;incstack = 0
  5406                           ; Regs used in _luces: [wreg-fsr0h+status,2+status,0+pclath+cstack]
  5407                           
  5408                           
  5409                           ;Carcelero.c: 203:     y = Luz/100;
  5410  0695  3064               	movlw	100
  5411  0696  00F2               	movwf	___awdiv@divisor
  5412  0697  3000               	movlw	0
  5413  0698  00F3               	movwf	___awdiv@divisor+1
  5414  0699  087B               	movf	_Luz,w
  5415  069A  1283               	bcf	3,5	;RP0=0, select bank0
  5416  069B  1303               	bcf	3,6	;RP1=0, select bank0
  5417  069C  00A4               	movwf	??_luces
  5418  069D  01A5               	clrf	??_luces+1
  5419  069E  0824               	movf	??_luces,w
  5420  069F  00F4               	movwf	___awdiv@dividend
  5421  06A0  0825               	movf	??_luces+1,w
  5422  06A1  00F5               	movwf	___awdiv@dividend+1
  5423  06A2  120A  118A  2797  120A  118A  	fcall	___awdiv
  5424  06A7  0873               	movf	?___awdiv+1,w
  5425  06A8  1683               	bsf	3,5	;RP0=1, select bank1
  5426  06A9  1303               	bcf	3,6	;RP1=0, select bank1
  5427  06AA  00D7               	movwf	(_y+1)^(0+128)
  5428  06AB  0872               	movf	?___awdiv,w
  5429  06AC  00D6               	movwf	_y^(0+128)
  5430                           
  5431                           ;Carcelero.c: 204:     y1 = Luz%100;
  5432  06AD  3064               	movlw	100
  5433  06AE  00F2               	movwf	___awmod@divisor
  5434  06AF  3000               	movlw	0
  5435  06B0  00F3               	movwf	___awmod@divisor+1
  5436  06B1  087B               	movf	_Luz,w
  5437  06B2  1283               	bcf	3,5	;RP0=0, select bank0
  5438  06B3  1303               	bcf	3,6	;RP1=0, select bank0
  5439  06B4  00A4               	movwf	??_luces
  5440  06B5  01A5               	clrf	??_luces+1
  5441  06B6  0824               	movf	??_luces,w
  5442  06B7  00F4               	movwf	___awmod@dividend
  5443  06B8  0825               	movf	??_luces+1,w
  5444  06B9  00F5               	movwf	___awmod@dividend+1
  5445  06BA  120A  158A  2098  120A  118A  	fcall	___awmod
  5446  06BF  0873               	movf	?___awmod+1,w
  5447  06C0  1683               	bsf	3,5	;RP0=1, select bank1
  5448  06C1  1303               	bcf	3,6	;RP1=0, select bank1
  5449  06C2  00D5               	movwf	(_y1+1)^(0+128)
  5450  06C3  0872               	movf	?___awmod,w
  5451  06C4  00D4               	movwf	_y1^(0+128)
  5452                           
  5453                           ;Carcelero.c: 205:     y2 = y1/10;
  5454  06C5  300A               	movlw	10
  5455  06C6  00F2               	movwf	___awdiv@divisor
  5456  06C7  3000               	movlw	0
  5457  06C8  00F3               	movwf	___awdiv@divisor+1
  5458  06C9  0855               	movf	(_y1+1)^(0+128),w
  5459  06CA  00F5               	movwf	___awdiv@dividend+1
  5460  06CB  0854               	movf	_y1^(0+128),w
  5461  06CC  00F4               	movwf	___awdiv@dividend
  5462  06CD  120A  118A  2797  120A  118A  	fcall	___awdiv
  5463  06D2  0873               	movf	?___awdiv+1,w
  5464  06D3  1683               	bsf	3,5	;RP0=1, select bank1
  5465  06D4  1303               	bcf	3,6	;RP1=0, select bank1
  5466  06D5  00D3               	movwf	(_y2+1)^(0+128)
  5467  06D6  0872               	movf	?___awdiv,w
  5468  06D7  00D2               	movwf	_y2^(0+128)
  5469                           
  5470                           ;Carcelero.c: 206:     y3 = y1%10;
  5471  06D8  300A               	movlw	10
  5472  06D9  00F2               	movwf	___awmod@divisor
  5473  06DA  3000               	movlw	0
  5474  06DB  00F3               	movwf	___awmod@divisor+1
  5475  06DC  0855               	movf	(_y1+1)^(0+128),w
  5476  06DD  00F5               	movwf	___awmod@dividend+1
  5477  06DE  0854               	movf	_y1^(0+128),w
  5478  06DF  00F4               	movwf	___awmod@dividend
  5479  06E0  120A  158A  2098  120A  118A  	fcall	___awmod
  5480  06E5  0873               	movf	?___awmod+1,w
  5481  06E6  1683               	bsf	3,5	;RP0=1, select bank1
  5482  06E7  1303               	bcf	3,6	;RP1=0, select bank1
  5483  06E8  00D1               	movwf	(_y3+1)^(0+128)
  5484  06E9  0872               	movf	?___awmod,w
  5485  06EA  00D0               	movwf	_y3^(0+128)
  5486                           
  5487                           ;Carcelero.c: 208:     colocar(1,2);
  5488  06EB  3002               	movlw	2
  5489  06EC  1283               	bcf	3,5	;RP0=0, select bank0
  5490  06ED  1303               	bcf	3,6	;RP1=0, select bank0
  5491  06EE  00A4               	movwf	??_luces
  5492  06EF  0824               	movf	??_luces,w
  5493  06F0  00F5               	movwf	colocar@y
  5494  06F1  3001               	movlw	1
  5495  06F2  160A  118A  26E2  120A  118A  	fcall	_colocar
  5496  06F7                     l3298:	
  5497                           
  5498                           ;Carcelero.c: 209:     mostrar(a[y]);
  5499  06F7  1683               	bsf	3,5	;RP0=1, select bank1
  5500  06F8  1303               	bcf	3,6	;RP1=0, select bank1
  5501  06F9  0856               	movf	_y^(0+128),w
  5502  06FA  3E01               	addlw	low ((_a-__stringbase)| (0+32768))
  5503  06FB  0084               	movwf	4
  5504  06FC  160A  118A  2000  120A  118A  	fcall	stringdir
  5505  0701  160A  118A  268C  120A  118A  	fcall	_mostrar
  5506  0706                     l3300:	
  5507                           
  5508                           ;Carcelero.c: 210:     colocar(2,2);
  5509  0706  3002               	movlw	2
  5510  0707  1283               	bcf	3,5	;RP0=0, select bank0
  5511  0708  1303               	bcf	3,6	;RP1=0, select bank0
  5512  0709  00A4               	movwf	??_luces
  5513  070A  0824               	movf	??_luces,w
  5514  070B  00F5               	movwf	colocar@y
  5515  070C  3002               	movlw	2
  5516  070D  160A  118A  26E2  120A  118A  	fcall	_colocar
  5517                           
  5518                           ;Carcelero.c: 211:     mostrar(a[y2]);
  5519  0712  1683               	bsf	3,5	;RP0=1, select bank1
  5520  0713  1303               	bcf	3,6	;RP1=0, select bank1
  5521  0714  0852               	movf	_y2^(0+128),w
  5522  0715  3E01               	addlw	low ((_a-__stringbase)| (0+32768))
  5523  0716  0084               	movwf	4
  5524  0717  160A  118A  2000  120A  118A  	fcall	stringdir
  5525  071C  160A  118A  268C  120A  118A  	fcall	_mostrar
  5526  0721                     l3302:	
  5527                           
  5528                           ;Carcelero.c: 212:     colocar(3,2);
  5529  0721  3002               	movlw	2
  5530  0722  1283               	bcf	3,5	;RP0=0, select bank0
  5531  0723  1303               	bcf	3,6	;RP1=0, select bank0
  5532  0724  00A4               	movwf	??_luces
  5533  0725  0824               	movf	??_luces,w
  5534  0726  00F5               	movwf	colocar@y
  5535  0727  3003               	movlw	3
  5536  0728  160A  118A  26E2  120A  118A  	fcall	_colocar
  5537  072D                     l3304:	
  5538                           
  5539                           ;Carcelero.c: 213:     mostrar(a[y3]);
  5540  072D  1683               	bsf	3,5	;RP0=1, select bank1
  5541  072E  1303               	bcf	3,6	;RP1=0, select bank1
  5542  072F  0850               	movf	_y3^(0+128),w
  5543  0730  3E01               	addlw	low ((_a-__stringbase)| (0+32768))
  5544  0731  0084               	movwf	4
  5545  0732  160A  118A  2000  120A  118A  	fcall	stringdir
  5546  0737  160A  118A  268C  120A  118A  	fcall	_mostrar
  5547  073C                     l3306:	
  5548                           
  5549                           ;Carcelero.c: 215:     if (Luz < 50)
  5550  073C  3032               	movlw	50
  5551  073D  027B               	subwf	_Luz,w
  5552  073E  1803               	skipnc
  5553  073F  2F41               	goto	u3681
  5554  0740  2F42               	goto	u3680
  5555  0741                     u3681:	
  5556  0741  2F66               	goto	l3316
  5557  0742                     u3680:	
  5558  0742                     l3308:	
  5559                           
  5560                           ;Carcelero.c: 216:     {;Carcelero.c: 217:         colocar(4,2);
  5561  0742  3002               	movlw	2
  5562  0743  1283               	bcf	3,5	;RP0=0, select bank0
  5563  0744  1303               	bcf	3,6	;RP1=0, select bank0
  5564  0745  00A4               	movwf	??_luces
  5565  0746  0824               	movf	??_luces,w
  5566  0747  00F5               	movwf	colocar@y
  5567  0748  3004               	movlw	4
  5568  0749  160A  118A  26E2  120A  118A  	fcall	_colocar
  5569  074E                     l3310:	
  5570                           
  5571                           ;Carcelero.c: 218:         imprimir("   ");
  5572  074E  300E               	movlw	(low (((STR_2+3)-__stringbase)| (0+32768)))& (0+255)
  5573  074F  160A  118A  275D  120A  118A  	fcall	_imprimir
  5574  0754                     l3312:	
  5575                           
  5576                           ;Carcelero.c: 219:         colocar(5,1);
  5577  0754  01F5               	clrf	colocar@y
  5578  0755  0AF5               	incf	colocar@y,f
  5579  0756  3005               	movlw	5
  5580  0757  160A  118A  26E2  120A  118A  	fcall	_colocar
  5581                           
  5582                           ;Carcelero.c: 220:         imprimir("ON");
  5583  075C  3039               	movlw	(low ((STR_6-__stringbase)| (0+32768)))& (0+255)
  5584  075D  160A  118A  275D  120A  118A  	fcall	_imprimir
  5585  0762                     l3314:	
  5586                           
  5587                           ;Carcelero.c: 221:         PORTAbits.RA2 = 1;
  5588  0762  1283               	bcf	3,5	;RP0=0, select bank0
  5589  0763  1303               	bcf	3,6	;RP1=0, select bank0
  5590  0764  1505               	bsf	5,2	;volatile
  5591                           
  5592                           ;Carcelero.c: 222:     }
  5593  0765  2F89               	goto	l3324
  5594  0766                     l3316:	
  5595                           
  5596                           ;Carcelero.c: 225:     {;Carcelero.c: 226:         colocar(5,1);
  5597  0766  01F5               	clrf	colocar@y
  5598  0767  0AF5               	incf	colocar@y,f
  5599  0768  3005               	movlw	5
  5600  0769  160A  118A  26E2  120A  118A  	fcall	_colocar
  5601  076E                     l3318:	
  5602                           
  5603                           ;Carcelero.c: 227:         imprimir("  ");
  5604  076E  300F               	movlw	(low (((STR_2+4)-__stringbase)| (0+32768)))& (0+255)
  5605  076F  160A  118A  275D  120A  118A  	fcall	_imprimir
  5606  0774                     l3320:	
  5607                           
  5608                           ;Carcelero.c: 228:         colocar(4,2);
  5609  0774  3002               	movlw	2
  5610  0775  1283               	bcf	3,5	;RP0=0, select bank0
  5611  0776  1303               	bcf	3,6	;RP1=0, select bank0
  5612  0777  00A4               	movwf	??_luces
  5613  0778  0824               	movf	??_luces,w
  5614  0779  00F5               	movwf	colocar@y
  5615  077A  3004               	movlw	4
  5616  077B  160A  118A  26E2  120A  118A  	fcall	_colocar
  5617                           
  5618                           ;Carcelero.c: 229:         imprimir("OFF");
  5619  0780  302F               	movlw	(low ((STR_8-__stringbase)| (0+32768)))& (0+255)
  5620  0781  160A  118A  275D  120A  118A  	fcall	_imprimir
  5621  0786                     l3322:	
  5622                           
  5623                           ;Carcelero.c: 230:         PORTAbits.RA2 = 0;
  5624  0786  1283               	bcf	3,5	;RP0=0, select bank0
  5625  0787  1303               	bcf	3,6	;RP1=0, select bank0
  5626  0788  1105               	bcf	5,2	;volatile
  5627  0789                     l3324:	
  5628                           
  5629                           ;Carcelero.c: 233:     b[1] = Luz;
  5630  0789  087B               	movf	_Luz,w
  5631  078A  00A4               	movwf	??_luces
  5632  078B  01A5               	clrf	??_luces+1
  5633  078C  0824               	movf	??_luces,w
  5634  078D  1683               	bsf	3,5	;RP0=1, select bank1
  5635  078E  1303               	bcf	3,6	;RP1=0, select bank1
  5636  078F  00A2               	movwf	(_b^(0+128)+2)
  5637  0790  1283               	bcf	3,5	;RP0=0, select bank0
  5638  0791  1303               	bcf	3,6	;RP1=0, select bank0
  5639  0792  0825               	movf	??_luces+1,w
  5640  0793  1683               	bsf	3,5	;RP0=1, select bank1
  5641  0794  1303               	bcf	3,6	;RP1=0, select bank1
  5642  0795  00A3               	movwf	((_b+1)^(0+128)+2)
  5643  0796                     l253:	
  5644  0796  0008               	return
  5645  0797                     __end_of_luces:	
  5646                           
  5647                           	psect	text19
  5648  16B4                     __ptext19:	
  5649 ;; *************** function _initTimer1 *****************
  5650 ;; Defined at:
  5651 ;;		line 470 in file "Carcelero.c"
  5652 ;; Parameters:    Size  Location     Type
  5653 ;;		None
  5654 ;; Auto vars:     Size  Location     Type
  5655 ;;		None
  5656 ;; Return value:  Size  Location     Type
  5657 ;;                  1    wreg      void 
  5658 ;; Registers used:
  5659 ;;		wreg
  5660 ;; Tracked objects:
  5661 ;;		On entry : 0/0
  5662 ;;		On exit  : 0/0
  5663 ;;		Unchanged: 0/0
  5664 ;; Data sizes:     COMMON   BANK0   BANK1   BANK3   BANK2
  5665 ;;      Params:         0       0       0       0       0
  5666 ;;      Locals:         0       0       0       0       0
  5667 ;;      Temps:          0       0       0       0       0
  5668 ;;      Totals:         0       0       0       0       0
  5669 ;;Total ram usage:        0 bytes
  5670 ;; Hardware stack levels used:    1
  5671 ;; Hardware stack levels required when called:    1
  5672 ;; This function calls:
  5673 ;;		Nothing
  5674 ;; This function is called by:
  5675 ;;		_main
  5676 ;; This function uses a non-reentrant model
  5677 ;;
  5678                           
  5679                           
  5680                           ;psect for function _initTimer1
  5681  16B4                     _initTimer1:	
  5682  16B4                     l2676:	
  5683                           ;incstack = 0
  5684                           ; Regs used in _initTimer1: [wreg]
  5685                           
  5686                           
  5687                           ;Carcelero.c: 472:     T1CONbits.T1GINV = 0;
  5688  16B4  1283               	bcf	3,5	;RP0=0, select bank0
  5689  16B5  1303               	bcf	3,6	;RP1=0, select bank0
  5690  16B6  1390               	bcf	16,7	;volatile
  5691                           
  5692                           ;Carcelero.c: 473:     T1CONbits.TMR1GE = 0;
  5693  16B7  1310               	bcf	16,6	;volatile
  5694                           
  5695                           ;Carcelero.c: 474:     T1CONbits.T1CKPS0 = 1;
  5696  16B8  1610               	bsf	16,4	;volatile
  5697                           
  5698                           ;Carcelero.c: 475:     T1CONbits.T1CKPS1 = 0;
  5699  16B9  1290               	bcf	16,5	;volatile
  5700                           
  5701                           ;Carcelero.c: 476:     T1CONbits.T1OSCEN = 0;
  5702  16BA  1190               	bcf	16,3	;volatile
  5703                           
  5704                           ;Carcelero.c: 477:     T1CONbits.TMR1CS = 0;
  5705  16BB  1090               	bcf	16,1	;volatile
  5706                           
  5707                           ;Carcelero.c: 478:     T1CONbits.TMR1ON = 1;
  5708  16BC  1410               	bsf	16,0	;volatile
  5709                           
  5710                           ;Carcelero.c: 484:     INTCONbits.PEIE = 1;
  5711  16BD  170B               	bsf	11,6	;volatile
  5712                           
  5713                           ;Carcelero.c: 485:     PIR1bits.TMR1IF = 0;
  5714  16BE  100C               	bcf	12,0	;volatile
  5715                           
  5716                           ;Carcelero.c: 486:     PIE1bits.TMR1IE = 1;
  5717  16BF  1683               	bsf	3,5	;RP0=1, select bank1
  5718  16C0  1303               	bcf	3,6	;RP1=0, select bank1
  5719  16C1  140C               	bsf	12,0	;volatile
  5720  16C2                     l2678:	
  5721                           
  5722                           ;Carcelero.c: 489:     TMR1H = 0xF4;
  5723  16C2  30F4               	movlw	244
  5724  16C3  1283               	bcf	3,5	;RP0=0, select bank0
  5725  16C4  1303               	bcf	3,6	;RP1=0, select bank0
  5726  16C5  008F               	movwf	15	;volatile
  5727                           
  5728                           ;Carcelero.c: 490:     TMR1L = 0x02;
  5729  16C6  3002               	movlw	2
  5730  16C7  008E               	movwf	14	;volatile
  5731  16C8                     l290:	
  5732  16C8  0008               	return
  5733  16C9                     __end_of_initTimer1:	
  5734                           
  5735                           	psect	text20
  5736  16C9                     __ptext20:	
  5737 ;; *************** function _iniciarUART *****************
  5738 ;; Defined at:
  5739 ;;		line 13 in file "./UART.h"
  5740 ;; Parameters:    Size  Location     Type
  5741 ;;		None
  5742 ;; Auto vars:     Size  Location     Type
  5743 ;;		None
  5744 ;; Return value:  Size  Location     Type
  5745 ;;                  1    wreg      void 
  5746 ;; Registers used:
  5747 ;;		wreg, status,2
  5748 ;; Tracked objects:
  5749 ;;		On entry : 0/0
  5750 ;;		On exit  : 0/0
  5751 ;;		Unchanged: 0/0
  5752 ;; Data sizes:     COMMON   BANK0   BANK1   BANK3   BANK2
  5753 ;;      Params:         0       0       0       0       0
  5754 ;;      Locals:         0       0       0       0       0
  5755 ;;      Temps:          0       0       0       0       0
  5756 ;;      Totals:         0       0       0       0       0
  5757 ;;Total ram usage:        0 bytes
  5758 ;; Hardware stack levels used:    1
  5759 ;; Hardware stack levels required when called:    1
  5760 ;; This function calls:
  5761 ;;		Nothing
  5762 ;; This function is called by:
  5763 ;;		_main
  5764 ;; This function uses a non-reentrant model
  5765 ;;
  5766                           
  5767                           
  5768                           ;psect for function _iniciarUART
  5769  16C9                     _iniciarUART:	
  5770  16C9                     l2528:	
  5771                           ;incstack = 0
  5772                           ; Regs used in _iniciarUART: [wreg+status,2]
  5773                           
  5774                           
  5775                           ;./UART.h: 15:     TXSTAbits.TXEN = 1;
  5776  16C9  1683               	bsf	3,5	;RP0=1, select bank1
  5777  16CA  1303               	bcf	3,6	;RP1=0, select bank1
  5778  16CB  1698               	bsf	24,5	;volatile
  5779                           
  5780                           ;./UART.h: 16:     TXSTAbits.SYNC = 0;
  5781  16CC  1218               	bcf	24,4	;volatile
  5782                           
  5783                           ;./UART.h: 17:     RCSTAbits.SPEN = 1;
  5784  16CD  1283               	bcf	3,5	;RP0=0, select bank0
  5785  16CE  1303               	bcf	3,6	;RP1=0, select bank0
  5786  16CF  1798               	bsf	24,7	;volatile
  5787                           
  5788                           ;./UART.h: 18:     TXSTAbits.TX9 = 0;
  5789  16D0  1683               	bsf	3,5	;RP0=1, select bank1
  5790  16D1  1303               	bcf	3,6	;RP1=0, select bank1
  5791  16D2  1318               	bcf	24,6	;volatile
  5792                           
  5793                           ;./UART.h: 19:     RCSTAbits.CREN = 1;
  5794  16D3  1283               	bcf	3,5	;RP0=0, select bank0
  5795  16D4  1303               	bcf	3,6	;RP1=0, select bank0
  5796  16D5  1618               	bsf	24,4	;volatile
  5797  16D6                     l2530:	
  5798                           
  5799                           ;./UART.h: 21:     SPBRG = 25;
  5800  16D6  3019               	movlw	25
  5801  16D7  1683               	bsf	3,5	;RP0=1, select bank1
  5802  16D8  1303               	bcf	3,6	;RP1=0, select bank1
  5803  16D9  0099               	movwf	25	;volatile
  5804  16DA                     l2532:	
  5805                           
  5806                           ;./UART.h: 22:     SPBRGH = 0;
  5807  16DA  019A               	clrf	26	;volatile
  5808  16DB                     l2534:	
  5809                           
  5810                           ;./UART.h: 23:     BAUDCTLbits.BRG16 = 0;
  5811  16DB  1683               	bsf	3,5	;RP0=1, select bank3
  5812  16DC  1703               	bsf	3,6	;RP1=1, select bank3
  5813  16DD  1187               	bcf	7,3	;volatile
  5814  16DE                     l2536:	
  5815                           
  5816                           ;./UART.h: 24:     TXSTAbits.BRGH = 1;
  5817  16DE  1683               	bsf	3,5	;RP0=1, select bank1
  5818  16DF  1303               	bcf	3,6	;RP1=0, select bank1
  5819  16E0  1518               	bsf	24,2	;volatile
  5820  16E1                     l146:	
  5821  16E1  0008               	return
  5822  16E2                     __end_of_iniciarUART:	
  5823                           
  5824                           	psect	text21
  5825  094C                     __ptext21:	
  5826 ;; *************** function _iniciarOSC *****************
  5827 ;; Defined at:
  5828 ;;		line 5 in file "./Oscilador.h"
  5829 ;; Parameters:    Size  Location     Type
  5830 ;;  frec            1    wreg     unsigned char 
  5831 ;; Auto vars:     Size  Location     Type
  5832 ;;  frec            1    4[COMMON] unsigned char 
  5833 ;; Return value:  Size  Location     Type
  5834 ;;                  1    wreg      void 
  5835 ;; Registers used:
  5836 ;;		wreg, fsr0l, fsr0h, status,2, status,0
  5837 ;; Tracked objects:
  5838 ;;		On entry : 0/0
  5839 ;;		On exit  : 0/0
  5840 ;;		Unchanged: 0/0
  5841 ;; Data sizes:     COMMON   BANK0   BANK1   BANK3   BANK2
  5842 ;;      Params:         0       0       0       0       0
  5843 ;;      Locals:         1       0       0       0       0
  5844 ;;      Temps:          2       0       0       0       0
  5845 ;;      Totals:         3       0       0       0       0
  5846 ;;Total ram usage:        3 bytes
  5847 ;; Hardware stack levels used:    1
  5848 ;; Hardware stack levels required when called:    1
  5849 ;; This function calls:
  5850 ;;		Nothing
  5851 ;; This function is called by:
  5852 ;;		_main
  5853 ;; This function uses a non-reentrant model
  5854 ;;
  5855                           
  5856                           
  5857                           ;psect for function _iniciarOSC
  5858  094C                     _iniciarOSC:	
  5859                           
  5860                           ;incstack = 0
  5861                           ; Regs used in _iniciarOSC: [wreg-fsr0h+status,2+status,0]
  5862                           ;iniciarOSC@frec stored from wreg
  5863  094C  00F4               	movwf	iniciarOSC@frec
  5864  094D                     l2500:	
  5865                           
  5866                           ;./Oscilador.h: 5: void iniciarOSC(uint8_t frec);./Oscilador.h: 6: {;./Oscilador.h: 7:  
      +                             switch(frec)
  5867  094D  2989               	goto	l2522
  5868  094E                     l2502:	
  5869                           
  5870                           ;./Oscilador.h: 10:             OSCCONbits.IRCF = 0b000;
  5871  094E  308F               	movlw	-113
  5872  094F  1683               	bsf	3,5	;RP0=1, select bank1
  5873  0950  1303               	bcf	3,6	;RP1=0, select bank1
  5874  0951  058F               	andwf	15,f	;volatile
  5875                           
  5876                           ;./Oscilador.h: 11:             break;
  5877  0952  29AB               	goto	l134
  5878  0953                     l2504:	
  5879                           
  5880                           ;./Oscilador.h: 14:             OSCCONbits.IRCF = 0b001;
  5881  0953  1683               	bsf	3,5	;RP0=1, select bank1
  5882  0954  1303               	bcf	3,6	;RP1=0, select bank1
  5883  0955  080F               	movf	15,w	;volatile
  5884  0956  398F               	andlw	-113
  5885  0957  3810               	iorlw	16
  5886  0958  008F               	movwf	15	;volatile
  5887                           
  5888                           ;./Oscilador.h: 15:             break;
  5889  0959  29AB               	goto	l134
  5890  095A                     l2506:	
  5891                           
  5892                           ;./Oscilador.h: 18:             OSCCONbits.IRCF = 0b010;
  5893  095A  1683               	bsf	3,5	;RP0=1, select bank1
  5894  095B  1303               	bcf	3,6	;RP1=0, select bank1
  5895  095C  080F               	movf	15,w	;volatile
  5896  095D  398F               	andlw	-113
  5897  095E  3820               	iorlw	32
  5898  095F  008F               	movwf	15	;volatile
  5899                           
  5900                           ;./Oscilador.h: 19:             break;
  5901  0960  29AB               	goto	l134
  5902  0961                     l2508:	
  5903                           
  5904                           ;./Oscilador.h: 22:             OSCCONbits.IRCF = 0b001;
  5905  0961  1683               	bsf	3,5	;RP0=1, select bank1
  5906  0962  1303               	bcf	3,6	;RP1=0, select bank1
  5907  0963  080F               	movf	15,w	;volatile
  5908  0964  398F               	andlw	-113
  5909  0965  3810               	iorlw	16
  5910  0966  008F               	movwf	15	;volatile
  5911                           
  5912                           ;./Oscilador.h: 23:             break;
  5913  0967  29AB               	goto	l134
  5914  0968                     l2510:	
  5915                           
  5916                           ;./Oscilador.h: 26:             OSCCONbits.IRCF = 0b100;
  5917  0968  1683               	bsf	3,5	;RP0=1, select bank1
  5918  0969  1303               	bcf	3,6	;RP1=0, select bank1
  5919  096A  080F               	movf	15,w	;volatile
  5920  096B  398F               	andlw	-113
  5921  096C  3840               	iorlw	64
  5922  096D  008F               	movwf	15	;volatile
  5923                           
  5924                           ;./Oscilador.h: 27:             break;
  5925  096E  29AB               	goto	l134
  5926  096F                     l2512:	
  5927                           
  5928                           ;./Oscilador.h: 30:             OSCCONbits.IRCF = 0b101;
  5929  096F  1683               	bsf	3,5	;RP0=1, select bank1
  5930  0970  1303               	bcf	3,6	;RP1=0, select bank1
  5931  0971  080F               	movf	15,w	;volatile
  5932  0972  398F               	andlw	-113
  5933  0973  3850               	iorlw	80
  5934  0974  008F               	movwf	15	;volatile
  5935                           
  5936                           ;./Oscilador.h: 31:             break;
  5937  0975  29AB               	goto	l134
  5938  0976                     l2514:	
  5939                           
  5940                           ;./Oscilador.h: 34:             OSCCONbits.IRCF = 0b110;
  5941  0976  1683               	bsf	3,5	;RP0=1, select bank1
  5942  0977  1303               	bcf	3,6	;RP1=0, select bank1
  5943  0978  080F               	movf	15,w	;volatile
  5944  0979  398F               	andlw	-113
  5945  097A  3860               	iorlw	96
  5946  097B  008F               	movwf	15	;volatile
  5947                           
  5948                           ;./Oscilador.h: 35:             break;
  5949  097C  29AB               	goto	l134
  5950  097D                     l2516:	
  5951                           
  5952                           ;./Oscilador.h: 38:             OSCCONbits.IRCF = 0b111;
  5953  097D  3070               	movlw	112
  5954  097E  1683               	bsf	3,5	;RP0=1, select bank1
  5955  097F  1303               	bcf	3,6	;RP1=0, select bank1
  5956  0980  048F               	iorwf	15,f	;volatile
  5957                           
  5958                           ;./Oscilador.h: 39:             break;
  5959  0981  29AB               	goto	l134
  5960  0982                     l2518:	
  5961                           
  5962                           ;./Oscilador.h: 42:             OSCCONbits.IRCF = 0b110;
  5963  0982  1683               	bsf	3,5	;RP0=1, select bank1
  5964  0983  1303               	bcf	3,6	;RP1=0, select bank1
  5965  0984  080F               	movf	15,w	;volatile
  5966  0985  398F               	andlw	-113
  5967  0986  3860               	iorlw	96
  5968  0987  008F               	movwf	15	;volatile
  5969                           
  5970                           ;./Oscilador.h: 43:             break;
  5971  0988  29AB               	goto	l134
  5972  0989                     l2522:	
  5973  0989  0874               	movf	iniciarOSC@frec,w
  5974  098A  00F2               	movwf	??_iniciarOSC
  5975  098B  01F3               	clrf	??_iniciarOSC+1
  5976                           
  5977                           ; Switch on 2 bytes has been partitioned into a top level switch of size 1, and 1 sub-sw
      +                          itches
  5978                           ; Switch size 1, requested type "simple"
  5979                           ; Number of cases is 1, Range of values is 0 to 0
  5980                           ; switch strategies available:
  5981                           ; Name         Instructions Cycles
  5982                           ; simple_byte            4     3 (average)
  5983                           ; direct_byte           11     8 (fixed)
  5984                           ; jumptable            260     6 (fixed)
  5985                           ;	Chosen strategy is simple_byte
  5986  098C  0873               	movf	??_iniciarOSC+1,w
  5987  098D  3A00               	xorlw	0	; case 0
  5988  098E  1903               	skipnz
  5989  098F  2991               	goto	l3550
  5990  0990  2982               	goto	l2518
  5991  0991                     l3550:	
  5992                           
  5993                           ; Switch size 1, requested type "simple"
  5994                           ; Number of cases is 8, Range of values is 0 to 7
  5995                           ; switch strategies available:
  5996                           ; Name         Instructions Cycles
  5997                           ; simple_byte           25    13 (average)
  5998                           ; direct_byte           32     8 (fixed)
  5999                           ; jumptable            260     6 (fixed)
  6000                           ;	Chosen strategy is simple_byte
  6001  0991  0872               	movf	??_iniciarOSC,w
  6002  0992  3A00               	xorlw	0	; case 0
  6003  0993  1903               	skipnz
  6004  0994  294E               	goto	l2502
  6005  0995  3A01               	xorlw	1	; case 1
  6006  0996  1903               	skipnz
  6007  0997  2953               	goto	l2504
  6008  0998  3A03               	xorlw	3	; case 2
  6009  0999  1903               	skipnz
  6010  099A  295A               	goto	l2506
  6011  099B  3A01               	xorlw	1	; case 3
  6012  099C  1903               	skipnz
  6013  099D  2961               	goto	l2508
  6014  099E  3A07               	xorlw	7	; case 4
  6015  099F  1903               	skipnz
  6016  09A0  2968               	goto	l2510
  6017  09A1  3A01               	xorlw	1	; case 5
  6018  09A2  1903               	skipnz
  6019  09A3  296F               	goto	l2512
  6020  09A4  3A03               	xorlw	3	; case 6
  6021  09A5  1903               	skipnz
  6022  09A6  2976               	goto	l2514
  6023  09A7  3A01               	xorlw	1	; case 7
  6024  09A8  1903               	skipnz
  6025  09A9  297D               	goto	l2516
  6026  09AA  2982               	goto	l2518
  6027  09AB                     l134:	
  6028                           
  6029                           ;./Oscilador.h: 47:     OSCCONbits.SCS = 1;
  6030  09AB  140F               	bsf	15,0	;volatile
  6031  09AC                     l143:	
  6032  09AC  0008               	return
  6033  09AD                     __end_of_iniciarOSC:	
  6034                           
  6035                           	psect	text22
  6036  0844                     __ptext22:	
  6037 ;; *************** function _iniciarLCD *****************
  6038 ;; Defined at:
  6039 ;;		line 25 in file "./LCD.h"
  6040 ;; Parameters:    Size  Location     Type
  6041 ;;		None
  6042 ;; Auto vars:     Size  Location     Type
  6043 ;;		None
  6044 ;; Return value:  Size  Location     Type
  6045 ;;                  1    wreg      void 
  6046 ;; Registers used:
  6047 ;;		wreg, status,2, status,0, pclath, cstack
  6048 ;; Tracked objects:
  6049 ;;		On entry : 0/0
  6050 ;;		On exit  : 0/0
  6051 ;;		Unchanged: 0/0
  6052 ;; Data sizes:     COMMON   BANK0   BANK1   BANK3   BANK2
  6053 ;;      Params:         0       0       0       0       0
  6054 ;;      Locals:         0       0       0       0       0
  6055 ;;      Temps:          2       0       0       0       0
  6056 ;;      Totals:         2       0       0       0       0
  6057 ;;Total ram usage:        2 bytes
  6058 ;; Hardware stack levels used:    1
  6059 ;; Hardware stack levels required when called:    2
  6060 ;; This function calls:
  6061 ;;		_comando
  6062 ;; This function is called by:
  6063 ;;		_main
  6064 ;; This function uses a non-reentrant model
  6065 ;;
  6066                           
  6067                           
  6068                           ;psect for function _iniciarLCD
  6069  0844                     _iniciarLCD:	
  6070  0844                     l2466:	
  6071                           ;incstack = 0
  6072                           ; Regs used in _iniciarLCD: [wreg+status,2+status,0+pclath+cstack]
  6073                           
  6074                           
  6075                           ;./LCD.h: 27:     PORTDbits.RD6 = 0;
  6076  0844  1283               	bcf	3,5	;RP0=0, select bank0
  6077  0845  1303               	bcf	3,6	;RP1=0, select bank0
  6078  0846  1308               	bcf	8,6	;volatile
  6079  0847                     l2468:	
  6080                           
  6081                           ;./LCD.h: 29:     comando(0);
  6082  0847  3000               	movlw	0
  6083  0848  160A  118A  2678  120A  158A  	fcall	_comando
  6084  084D                     l2470:	
  6085                           
  6086                           ;./LCD.h: 31:     _delay((unsigned long)((15)*(4000000/4000.0)));
  6087  084D  3014               	movlw	20
  6088  084E  00F6               	movwf	??_iniciarLCD+1
  6089  084F  3079               	movlw	121
  6090  0850  00F5               	movwf	??_iniciarLCD
  6091  0851                     u3847:	
  6092  0851  0BF5               	decfsz	??_iniciarLCD,f
  6093  0852  2851               	goto	u3847
  6094  0853  0BF6               	decfsz	??_iniciarLCD+1,f
  6095  0854  2851               	goto	u3847
  6096  0855  2856               	nop2
  6097  0856                     l2472:	
  6098                           
  6099                           ;./LCD.h: 33:     comando(0x30);
  6100  0856  3030               	movlw	48
  6101  0857  160A  118A  2678  120A  158A  	fcall	_comando
  6102                           
  6103                           ;./LCD.h: 34:     _delay((unsigned long)((4)*(4000000/4000.0)));
  6104  085C  3006               	movlw	6
  6105  085D  00F6               	movwf	??_iniciarLCD+1
  6106  085E  3030               	movlw	48
  6107  085F  00F5               	movwf	??_iniciarLCD
  6108  0860                     u3857:	
  6109  0860  0BF5               	decfsz	??_iniciarLCD,f
  6110  0861  2860               	goto	u3857
  6111  0862  0BF6               	decfsz	??_iniciarLCD+1,f
  6112  0863  2860               	goto	u3857
  6113  0864  0000               	nop
  6114  0865                     l2474:	
  6115                           
  6116                           ;./LCD.h: 36:     comando(0x30);
  6117  0865  3030               	movlw	48
  6118  0866  160A  118A  2678  120A  158A  	fcall	_comando
  6119  086B                     l2476:	
  6120                           
  6121                           ;./LCD.h: 37:     _delay((unsigned long)((160)*(4000000/4000000.0)));
  6122  086B  3035               	movlw	53
  6123  086C  00F5               	movwf	??_iniciarLCD
  6124  086D                     u3867:	
  6125  086D  0BF5               	decfsz	??_iniciarLCD,f
  6126  086E  286D               	goto	u3867
  6127                           
  6128                           ;./LCD.h: 39:     comando(0x30);
  6129  086F  3030               	movlw	48
  6130  0870  160A  118A  2678  120A  158A  	fcall	_comando
  6131  0875                     l2478:	
  6132                           
  6133                           ;./LCD.h: 40:     _delay((unsigned long)((160)*(4000000/4000000.0)));
  6134  0875  3035               	movlw	53
  6135  0876  00F5               	movwf	??_iniciarLCD
  6136  0877                     u3877:	
  6137  0877  0BF5               	decfsz	??_iniciarLCD,f
  6138  0878  2877               	goto	u3877
  6139  0879                     l2480:	
  6140                           
  6141                           ;./LCD.h: 42:     comando(0x38);
  6142  0879  3038               	movlw	56
  6143  087A  160A  118A  2678  120A  158A  	fcall	_comando
  6144  087F                     l2482:	
  6145                           
  6146                           ;./LCD.h: 44:     comando(0x10);
  6147  087F  3010               	movlw	16
  6148  0880  160A  118A  2678  120A  158A  	fcall	_comando
  6149  0885                     l2484:	
  6150                           
  6151                           ;./LCD.h: 46:     comando(0x01);
  6152  0885  3001               	movlw	1
  6153  0886  160A  118A  2678  120A  158A  	fcall	_comando
  6154  088B                     l2486:	
  6155                           
  6156                           ;./LCD.h: 48:     comando(0x06);
  6157  088B  3006               	movlw	6
  6158  088C  160A  118A  2678  120A  158A  	fcall	_comando
  6159  0891                     l2488:	
  6160                           
  6161                           ;./LCD.h: 50:     comando(0x0F);
  6162  0891  300F               	movlw	15
  6163  0892  160A  118A  2678  120A  158A  	fcall	_comando
  6164  0897                     l108:	
  6165  0897  0008               	return
  6166  0898                     __end_of_iniciarLCD:	
  6167                           
  6168                           	psect	text23
  6169  0C4E                     __ptext23:	
  6170 ;; *************** function _humo *****************
  6171 ;; Defined at:
  6172 ;;		line 142 in file "Carcelero.c"
  6173 ;; Parameters:    Size  Location     Type
  6174 ;;		None
  6175 ;; Auto vars:     Size  Location     Type
  6176 ;;		None
  6177 ;; Return value:  Size  Location     Type
  6178 ;;                  1    wreg      void 
  6179 ;; Registers used:
  6180 ;;		wreg, fsr0l, fsr0h, status,2, status,0, pclath, cstack
  6181 ;; Tracked objects:
  6182 ;;		On entry : 0/0
  6183 ;;		On exit  : 0/0
  6184 ;;		Unchanged: 0/0
  6185 ;; Data sizes:     COMMON   BANK0   BANK1   BANK3   BANK2
  6186 ;;      Params:         0       0       0       0       0
  6187 ;;      Locals:         0       0       0       0       0
  6188 ;;      Temps:          0       2       0       0       0
  6189 ;;      Totals:         0       2       0       0       0
  6190 ;;Total ram usage:        2 bytes
  6191 ;; Hardware stack levels used:    1
  6192 ;; Hardware stack levels required when called:    3
  6193 ;; This function calls:
  6194 ;;		___awdiv
  6195 ;;		___awmod
  6196 ;;		_colocar
  6197 ;;		_imprimir
  6198 ;;		_mostrar
  6199 ;; This function is called by:
  6200 ;;		_main
  6201 ;; This function uses a non-reentrant model
  6202 ;;
  6203                           
  6204                           
  6205                           ;psect for function _humo
  6206  0C4E                     _humo:	
  6207  0C4E                     l3248:	
  6208                           ;incstack = 0
  6209                           ; Regs used in _humo: [wreg-fsr0h+status,2+status,0+pclath+cstack]
  6210                           
  6211                           
  6212                           ;Carcelero.c: 144:     w = Humo/100;
  6213  0C4E  3064               	movlw	100
  6214  0C4F  00F2               	movwf	___awdiv@divisor
  6215  0C50  3000               	movlw	0
  6216  0C51  00F3               	movwf	___awdiv@divisor+1
  6217  0C52  0879               	movf	_Humo,w
  6218  0C53  1283               	bcf	3,5	;RP0=0, select bank0
  6219  0C54  1303               	bcf	3,6	;RP1=0, select bank0
  6220  0C55  00A4               	movwf	??_humo
  6221  0C56  01A5               	clrf	??_humo+1
  6222  0C57  0824               	movf	??_humo,w
  6223  0C58  00F4               	movwf	___awdiv@dividend
  6224  0C59  0825               	movf	??_humo+1,w
  6225  0C5A  00F5               	movwf	___awdiv@dividend+1
  6226  0C5B  120A  118A  2797  120A  158A  	fcall	___awdiv
  6227  0C60  0873               	movf	?___awdiv+1,w
  6228  0C61  1683               	bsf	3,5	;RP0=1, select bank1
  6229  0C62  1303               	bcf	3,6	;RP1=0, select bank1
  6230  0C63  00CB               	movwf	(_w+1)^(0+128)
  6231  0C64  0872               	movf	?___awdiv,w
  6232  0C65  00CA               	movwf	_w^(0+128)
  6233                           
  6234                           ;Carcelero.c: 145:     w1 = Humo%100;
  6235  0C66  3064               	movlw	100
  6236  0C67  00F2               	movwf	___awmod@divisor
  6237  0C68  3000               	movlw	0
  6238  0C69  00F3               	movwf	___awmod@divisor+1
  6239  0C6A  0879               	movf	_Humo,w
  6240  0C6B  1283               	bcf	3,5	;RP0=0, select bank0
  6241  0C6C  1303               	bcf	3,6	;RP1=0, select bank0
  6242  0C6D  00A4               	movwf	??_humo
  6243  0C6E  01A5               	clrf	??_humo+1
  6244  0C6F  0824               	movf	??_humo,w
  6245  0C70  00F4               	movwf	___awmod@dividend
  6246  0C71  0825               	movf	??_humo+1,w
  6247  0C72  00F5               	movwf	___awmod@dividend+1
  6248  0C73  120A  158A  2098  120A  158A  	fcall	___awmod
  6249  0C78  0873               	movf	?___awmod+1,w
  6250  0C79  1683               	bsf	3,5	;RP0=1, select bank1
  6251  0C7A  1303               	bcf	3,6	;RP1=0, select bank1
  6252  0C7B  00C9               	movwf	(_w1+1)^(0+128)
  6253  0C7C  0872               	movf	?___awmod,w
  6254  0C7D  00C8               	movwf	_w1^(0+128)
  6255                           
  6256                           ;Carcelero.c: 146:     w2 = w1/10;
  6257  0C7E  300A               	movlw	10
  6258  0C7F  00F2               	movwf	___awdiv@divisor
  6259  0C80  3000               	movlw	0
  6260  0C81  00F3               	movwf	___awdiv@divisor+1
  6261  0C82  0849               	movf	(_w1+1)^(0+128),w
  6262  0C83  00F5               	movwf	___awdiv@dividend+1
  6263  0C84  0848               	movf	_w1^(0+128),w
  6264  0C85  00F4               	movwf	___awdiv@dividend
  6265  0C86  120A  118A  2797  120A  158A  	fcall	___awdiv
  6266  0C8B  0873               	movf	?___awdiv+1,w
  6267  0C8C  1683               	bsf	3,5	;RP0=1, select bank1
  6268  0C8D  1303               	bcf	3,6	;RP1=0, select bank1
  6269  0C8E  00C7               	movwf	(_w2+1)^(0+128)
  6270  0C8F  0872               	movf	?___awdiv,w
  6271  0C90  00C6               	movwf	_w2^(0+128)
  6272                           
  6273                           ;Carcelero.c: 147:     w3 = w1%10;
  6274  0C91  300A               	movlw	10
  6275  0C92  00F2               	movwf	___awmod@divisor
  6276  0C93  3000               	movlw	0
  6277  0C94  00F3               	movwf	___awmod@divisor+1
  6278  0C95  0849               	movf	(_w1+1)^(0+128),w
  6279  0C96  00F5               	movwf	___awmod@dividend+1
  6280  0C97  0848               	movf	_w1^(0+128),w
  6281  0C98  00F4               	movwf	___awmod@dividend
  6282  0C99  120A  158A  2098  120A  158A  	fcall	___awmod
  6283  0C9E  0873               	movf	?___awmod+1,w
  6284  0C9F  1683               	bsf	3,5	;RP0=1, select bank1
  6285  0CA0  1303               	bcf	3,6	;RP1=0, select bank1
  6286  0CA1  00C5               	movwf	(_w3+1)^(0+128)
  6287  0CA2  0872               	movf	?___awmod,w
  6288  0CA3  00C4               	movwf	_w3^(0+128)
  6289                           
  6290                           ;Carcelero.c: 149:     colocar(20,1);
  6291  0CA4  01F5               	clrf	colocar@y
  6292  0CA5  0AF5               	incf	colocar@y,f
  6293  0CA6  3014               	movlw	20
  6294  0CA7  160A  118A  26E2  120A  158A  	fcall	_colocar
  6295  0CAC                     l3250:	
  6296                           
  6297                           ;Carcelero.c: 150:     mostrar(a[w]);
  6298  0CAC  1683               	bsf	3,5	;RP0=1, select bank1
  6299  0CAD  1303               	bcf	3,6	;RP1=0, select bank1
  6300  0CAE  084A               	movf	_w^(0+128),w
  6301  0CAF  3E01               	addlw	low ((_a-__stringbase)| (0+32768))
  6302  0CB0  0084               	movwf	4
  6303  0CB1  160A  118A  2000  120A  158A  	fcall	stringdir
  6304  0CB6  160A  118A  268C  120A  158A  	fcall	_mostrar
  6305  0CBB                     l3252:	
  6306                           
  6307                           ;Carcelero.c: 151:     colocar(21,1);
  6308  0CBB  01F5               	clrf	colocar@y
  6309  0CBC  0AF5               	incf	colocar@y,f
  6310  0CBD  3015               	movlw	21
  6311  0CBE  160A  118A  26E2  120A  158A  	fcall	_colocar
  6312                           
  6313                           ;Carcelero.c: 152:     mostrar(a[w2]);
  6314  0CC3  1683               	bsf	3,5	;RP0=1, select bank1
  6315  0CC4  1303               	bcf	3,6	;RP1=0, select bank1
  6316  0CC5  0846               	movf	_w2^(0+128),w
  6317  0CC6  3E01               	addlw	low ((_a-__stringbase)| (0+32768))
  6318  0CC7  0084               	movwf	4
  6319  0CC8  160A  118A  2000  120A  158A  	fcall	stringdir
  6320  0CCD  160A  118A  268C  120A  158A  	fcall	_mostrar
  6321  0CD2                     l3254:	
  6322                           
  6323                           ;Carcelero.c: 153:     colocar(22,1);
  6324  0CD2  01F5               	clrf	colocar@y
  6325  0CD3  0AF5               	incf	colocar@y,f
  6326  0CD4  3016               	movlw	22
  6327  0CD5  160A  118A  26E2  120A  158A  	fcall	_colocar
  6328  0CDA                     l3256:	
  6329                           
  6330                           ;Carcelero.c: 154:     mostrar(a[w3]);
  6331  0CDA  1683               	bsf	3,5	;RP0=1, select bank1
  6332  0CDB  1303               	bcf	3,6	;RP1=0, select bank1
  6333  0CDC  0844               	movf	_w3^(0+128),w
  6334  0CDD  3E01               	addlw	low ((_a-__stringbase)| (0+32768))
  6335  0CDE  0084               	movwf	4
  6336  0CDF  160A  118A  2000  120A  158A  	fcall	stringdir
  6337  0CE4  160A  118A  268C  120A  158A  	fcall	_mostrar
  6338  0CE9                     l3258:	
  6339                           
  6340                           ;Carcelero.c: 156:     if (Humo > 50)
  6341  0CE9  3033               	movlw	51
  6342  0CEA  0279               	subwf	_Humo,w
  6343  0CEB  1C03               	skipc
  6344  0CEC  2CEE               	goto	u3661
  6345  0CED  2CEF               	goto	u3660
  6346  0CEE                     u3661:	
  6347  0CEE  2D05               	goto	l3266
  6348  0CEF                     u3660:	
  6349  0CEF                     l3260:	
  6350                           
  6351                           ;Carcelero.c: 157:     {;Carcelero.c: 158:         colocar(16,2);
  6352  0CEF  3002               	movlw	2
  6353  0CF0  1283               	bcf	3,5	;RP0=0, select bank0
  6354  0CF1  1303               	bcf	3,6	;RP1=0, select bank0
  6355  0CF2  00A4               	movwf	??_humo
  6356  0CF3  0824               	movf	??_humo,w
  6357  0CF4  00F5               	movwf	colocar@y
  6358  0CF5  3010               	movlw	16
  6359  0CF6  160A  118A  26E2  120A  158A  	fcall	_colocar
  6360  0CFB                     l3262:	
  6361                           
  6362                           ;Carcelero.c: 159:         imprimir("ALERTA");
  6363  0CFB  3012               	movlw	(low ((STR_1-__stringbase)| (0+32768)))& (0+255)
  6364  0CFC  160A  118A  275D  120A  158A  	fcall	_imprimir
  6365  0D01                     l3264:	
  6366                           
  6367                           ;Carcelero.c: 160:         PORTAbits.RA4 = 1;
  6368  0D01  1283               	bcf	3,5	;RP0=0, select bank0
  6369  0D02  1303               	bcf	3,6	;RP1=0, select bank0
  6370  0D03  1605               	bsf	5,4	;volatile
  6371                           
  6372                           ;Carcelero.c: 161:     }
  6373  0D04  2D1A               	goto	l3272
  6374  0D05                     l3266:	
  6375                           
  6376                           ;Carcelero.c: 164:     {;Carcelero.c: 165:         colocar(16,2);
  6377  0D05  3002               	movlw	2
  6378  0D06  1283               	bcf	3,5	;RP0=0, select bank0
  6379  0D07  1303               	bcf	3,6	;RP1=0, select bank0
  6380  0D08  00A4               	movwf	??_humo
  6381  0D09  0824               	movf	??_humo,w
  6382  0D0A  00F5               	movwf	colocar@y
  6383  0D0B  3010               	movlw	16
  6384  0D0C  160A  118A  26E2  120A  158A  	fcall	_colocar
  6385  0D11                     l3268:	
  6386                           
  6387                           ;Carcelero.c: 166:         imprimir("      ");
  6388  0D11  300B               	movlw	(low ((STR_2-__stringbase)| (0+32768)))& (0+255)
  6389  0D12  160A  118A  275D  120A  158A  	fcall	_imprimir
  6390  0D17                     l3270:	
  6391                           
  6392                           ;Carcelero.c: 167:         PORTAbits.RA4 = 0;
  6393  0D17  1283               	bcf	3,5	;RP0=0, select bank0
  6394  0D18  1303               	bcf	3,6	;RP1=0, select bank0
  6395  0D19  1205               	bcf	5,4	;volatile
  6396  0D1A                     l3272:	
  6397                           
  6398                           ;Carcelero.c: 170:     b[3] = Humo;
  6399  0D1A  0879               	movf	_Humo,w
  6400  0D1B  00A4               	movwf	??_humo
  6401  0D1C  01A5               	clrf	??_humo+1
  6402  0D1D  0824               	movf	??_humo,w
  6403  0D1E  1683               	bsf	3,5	;RP0=1, select bank1
  6404  0D1F  1303               	bcf	3,6	;RP1=0, select bank1
  6405  0D20  00A6               	movwf	(_b^(0+128)+6)
  6406  0D21  1283               	bcf	3,5	;RP0=0, select bank0
  6407  0D22  1303               	bcf	3,6	;RP1=0, select bank0
  6408  0D23  0825               	movf	??_humo+1,w
  6409  0D24  1683               	bsf	3,5	;RP0=1, select bank1
  6410  0D25  1303               	bcf	3,6	;RP1=0, select bank1
  6411  0D26  00A7               	movwf	((_b+1)^(0+128)+6)
  6412  0D27                     l243:	
  6413  0D27  0008               	return
  6414  0D28                     __end_of_humo:	
  6415                           
  6416                           	psect	text24
  6417  168C                     __ptext24:	
  6418 ;; *************** function _mostrar *****************
  6419 ;; Defined at:
  6420 ;;		line 90 in file "./LCD.h"
  6421 ;; Parameters:    Size  Location     Type
  6422 ;;  t               1    wreg     const unsigned char 
  6423 ;; Auto vars:     Size  Location     Type
  6424 ;;  t               1    4[COMMON] const unsigned char 
  6425 ;; Return value:  Size  Location     Type
  6426 ;;                  1    wreg      void 
  6427 ;; Registers used:
  6428 ;;		wreg
  6429 ;; Tracked objects:
  6430 ;;		On entry : 0/0
  6431 ;;		On exit  : 0/0
  6432 ;;		Unchanged: 0/0
  6433 ;; Data sizes:     COMMON   BANK0   BANK1   BANK3   BANK2
  6434 ;;      Params:         0       0       0       0       0
  6435 ;;      Locals:         1       0       0       0       0
  6436 ;;      Temps:          2       0       0       0       0
  6437 ;;      Totals:         3       0       0       0       0
  6438 ;;Total ram usage:        3 bytes
  6439 ;; Hardware stack levels used:    1
  6440 ;; Hardware stack levels required when called:    1
  6441 ;; This function calls:
  6442 ;;		Nothing
  6443 ;; This function is called by:
  6444 ;;		_temperatura
  6445 ;;		_humo
  6446 ;;		_ultrasonico
  6447 ;;		_luces
  6448 ;;		_main
  6449 ;; This function uses a non-reentrant model
  6450 ;;
  6451                           
  6452                           
  6453                           ;psect for function _mostrar
  6454  168C                     _mostrar:	
  6455                           
  6456                           ;incstack = 0
  6457                           ; Regs used in _mostrar: [wreg]
  6458                           ;mostrar@t stored from wreg
  6459  168C  00F4               	movwf	mostrar@t
  6460  168D                     l1978:	
  6461                           
  6462                           ;./LCD.h: 90: void mostrar(const char t);./LCD.h: 91: {;./LCD.h: 92:     PORTDbits.RD6 =
      +                           1;
  6463  168D  1283               	bcf	3,5	;RP0=0, select bank0
  6464  168E  1303               	bcf	3,6	;RP1=0, select bank0
  6465  168F  1708               	bsf	8,6	;volatile
  6466  1690                     l1980:	
  6467                           
  6468                           ;./LCD.h: 93:     PORTB = t;
  6469  1690  0874               	movf	mostrar@t,w
  6470  1691  0086               	movwf	6	;volatile
  6471  1692                     l1982:	
  6472                           
  6473                           ;./LCD.h: 94:     PORTDbits.RD7 = 1;
  6474  1692  1788               	bsf	8,7	;volatile
  6475                           
  6476                           ;./LCD.h: 95:     _delay((unsigned long)((2)*(4000000/4000.0)));
  6477  1693  3003               	movlw	3
  6478  1694  00F3               	movwf	??_mostrar+1
  6479  1695  3097               	movlw	151
  6480  1696  00F2               	movwf	??_mostrar
  6481  1697                     u3887:	
  6482  1697  0BF2               	decfsz	??_mostrar,f
  6483  1698  2E97               	goto	u3887
  6484  1699  0BF3               	decfsz	??_mostrar+1,f
  6485  169A  2E97               	goto	u3887
  6486  169B  2E9C               	nop2
  6487  169C                     l1984:	
  6488                           
  6489                           ;./LCD.h: 96:     PORTDbits.RD7 = 0;
  6490  169C  1283               	bcf	3,5	;RP0=0, select bank0
  6491  169D  1303               	bcf	3,6	;RP1=0, select bank0
  6492  169E  1388               	bcf	8,7	;volatile
  6493  169F                     l126:	
  6494  169F  0008               	return
  6495  16A0                     __end_of_mostrar:	
  6496                           
  6497                           	psect	text25
  6498  0898                     __ptext25:	
  6499 ;; *************** function ___awmod *****************
  6500 ;; Defined at:
  6501 ;;		line 5 in file "C:\Program Files (x86)\Microchip\xc8\v2.10\pic\sources\c90\common\awmod.c"
  6502 ;; Parameters:    Size  Location     Type
  6503 ;;  divisor         2    2[COMMON] int 
  6504 ;;  dividend        2    4[COMMON] int 
  6505 ;; Auto vars:     Size  Location     Type
  6506 ;;  sign            1    8[COMMON] unsigned char 
  6507 ;;  counter         1    7[COMMON] unsigned char 
  6508 ;; Return value:  Size  Location     Type
  6509 ;;                  2    2[COMMON] int 
  6510 ;; Registers used:
  6511 ;;		wreg, status,2, status,0
  6512 ;; Tracked objects:
  6513 ;;		On entry : 0/0
  6514 ;;		On exit  : 0/0
  6515 ;;		Unchanged: 0/0
  6516 ;; Data sizes:     COMMON   BANK0   BANK1   BANK3   BANK2
  6517 ;;      Params:         4       0       0       0       0
  6518 ;;      Locals:         2       0       0       0       0
  6519 ;;      Temps:          1       0       0       0       0
  6520 ;;      Totals:         7       0       0       0       0
  6521 ;;Total ram usage:        7 bytes
  6522 ;; Hardware stack levels used:    1
  6523 ;; Hardware stack levels required when called:    1
  6524 ;; This function calls:
  6525 ;;		Nothing
  6526 ;; This function is called by:
  6527 ;;		_temperatura
  6528 ;;		_humo
  6529 ;;		_ultrasonico
  6530 ;;		_luces
  6531 ;; This function uses a non-reentrant model
  6532 ;;
  6533                           
  6534                           
  6535                           ;psect for function ___awmod
  6536  0898                     ___awmod:	
  6537  0898                     l2054:	
  6538                           ;incstack = 0
  6539                           ; Regs used in ___awmod: [wreg+status,2+status,0]
  6540                           
  6541  0898  01F8               	clrf	___awmod@sign
  6542  0899                     l2056:	
  6543  0899  1FF5               	btfss	___awmod@dividend+1,7
  6544  089A  289C               	goto	u1681
  6545  089B  289D               	goto	u1680
  6546  089C                     u1681:	
  6547  089C  28A4               	goto	l2062
  6548  089D                     u1680:	
  6549  089D                     l2058:	
  6550  089D  09F4               	comf	___awmod@dividend,f
  6551  089E  09F5               	comf	___awmod@dividend+1,f
  6552  089F  0AF4               	incf	___awmod@dividend,f
  6553  08A0  1903               	skipnz
  6554  08A1  0AF5               	incf	___awmod@dividend+1,f
  6555  08A2                     l2060:	
  6556  08A2  01F8               	clrf	___awmod@sign
  6557  08A3  0AF8               	incf	___awmod@sign,f
  6558  08A4                     l2062:	
  6559  08A4  1FF3               	btfss	___awmod@divisor+1,7
  6560  08A5  28A7               	goto	u1691
  6561  08A6  28A8               	goto	u1690
  6562  08A7                     u1691:	
  6563  08A7  28AD               	goto	l2066
  6564  08A8                     u1690:	
  6565  08A8                     l2064:	
  6566  08A8  09F2               	comf	___awmod@divisor,f
  6567  08A9  09F3               	comf	___awmod@divisor+1,f
  6568  08AA  0AF2               	incf	___awmod@divisor,f
  6569  08AB  1903               	skipnz
  6570  08AC  0AF3               	incf	___awmod@divisor+1,f
  6571  08AD                     l2066:	
  6572  08AD  0872               	movf	___awmod@divisor,w
  6573  08AE  0473               	iorwf	___awmod@divisor+1,w
  6574  08AF  1903               	btfsc	3,2
  6575  08B0  28B2               	goto	u1701
  6576  08B1  28B3               	goto	u1700
  6577  08B2                     u1701:	
  6578  08B2  28E2               	goto	l2084
  6579  08B3                     u1700:	
  6580  08B3                     l2068:	
  6581  08B3  01F7               	clrf	___awmod@counter
  6582  08B4  0AF7               	incf	___awmod@counter,f
  6583  08B5  28C1               	goto	l2074
  6584  08B6                     l2070:	
  6585  08B6  3001               	movlw	1
  6586  08B7                     u1715:	
  6587  08B7  1003               	clrc
  6588  08B8  0DF2               	rlf	___awmod@divisor,f
  6589  08B9  0DF3               	rlf	___awmod@divisor+1,f
  6590  08BA  3EFF               	addlw	-1
  6591  08BB  1D03               	skipz
  6592  08BC  28B7               	goto	u1715
  6593  08BD                     l2072:	
  6594  08BD  3001               	movlw	1
  6595  08BE  00F6               	movwf	??___awmod
  6596  08BF  0876               	movf	??___awmod,w
  6597  08C0  07F7               	addwf	___awmod@counter,f
  6598  08C1                     l2074:	
  6599  08C1  1FF3               	btfss	___awmod@divisor+1,7
  6600  08C2  28C4               	goto	u1721
  6601  08C3  28C5               	goto	u1720
  6602  08C4                     u1721:	
  6603  08C4  28B6               	goto	l2070
  6604  08C5                     u1720:	
  6605  08C5                     l2076:	
  6606  08C5  0873               	movf	___awmod@divisor+1,w
  6607  08C6  0275               	subwf	___awmod@dividend+1,w
  6608  08C7  1D03               	skipz
  6609  08C8  28CB               	goto	u1735
  6610  08C9  0872               	movf	___awmod@divisor,w
  6611  08CA  0274               	subwf	___awmod@dividend,w
  6612  08CB                     u1735:	
  6613  08CB  1C03               	skipc
  6614  08CC  28CE               	goto	u1731
  6615  08CD  28CF               	goto	u1730
  6616  08CE                     u1731:	
  6617  08CE  28D5               	goto	l2080
  6618  08CF                     u1730:	
  6619  08CF                     l2078:	
  6620  08CF  0872               	movf	___awmod@divisor,w
  6621  08D0  02F4               	subwf	___awmod@dividend,f
  6622  08D1  0873               	movf	___awmod@divisor+1,w
  6623  08D2  1C03               	skipc
  6624  08D3  03F5               	decf	___awmod@dividend+1,f
  6625  08D4  02F5               	subwf	___awmod@dividend+1,f
  6626  08D5                     l2080:	
  6627  08D5  3001               	movlw	1
  6628  08D6                     u1745:	
  6629  08D6  1003               	clrc
  6630  08D7  0CF3               	rrf	___awmod@divisor+1,f
  6631  08D8  0CF2               	rrf	___awmod@divisor,f
  6632  08D9  3EFF               	addlw	-1
  6633  08DA  1D03               	skipz
  6634  08DB  28D6               	goto	u1745
  6635  08DC                     l2082:	
  6636  08DC  3001               	movlw	1
  6637  08DD  02F7               	subwf	___awmod@counter,f
  6638  08DE  1D03               	btfss	3,2
  6639  08DF  28E1               	goto	u1751
  6640  08E0  28E2               	goto	u1750
  6641  08E1                     u1751:	
  6642  08E1  28C5               	goto	l2076
  6643  08E2                     u1750:	
  6644  08E2                     l2084:	
  6645  08E2  0878               	movf	___awmod@sign,w
  6646  08E3  1903               	btfsc	3,2
  6647  08E4  28E6               	goto	u1761
  6648  08E5  28E7               	goto	u1760
  6649  08E6                     u1761:	
  6650  08E6  28EC               	goto	l2088
  6651  08E7                     u1760:	
  6652  08E7                     l2086:	
  6653  08E7  09F4               	comf	___awmod@dividend,f
  6654  08E8  09F5               	comf	___awmod@dividend+1,f
  6655  08E9  0AF4               	incf	___awmod@dividend,f
  6656  08EA  1903               	skipnz
  6657  08EB  0AF5               	incf	___awmod@dividend+1,f
  6658  08EC                     l2088:	
  6659  08EC  0875               	movf	___awmod@dividend+1,w
  6660  08ED  00F3               	movwf	?___awmod+1
  6661  08EE  0874               	movf	___awmod@dividend,w
  6662  08EF  00F2               	movwf	?___awmod
  6663  08F0                     l542:	
  6664  08F0  0008               	return
  6665  08F1                     __end_of___awmod:	
  6666                           
  6667                           	psect	text26
  6668  0797                     __ptext26:	
  6669 ;; *************** function ___awdiv *****************
  6670 ;; Defined at:
  6671 ;;		line 5 in file "C:\Program Files (x86)\Microchip\xc8\v2.10\pic\sources\c90\common\awdiv.c"
  6672 ;; Parameters:    Size  Location     Type
  6673 ;;  divisor         2    2[COMMON] int 
  6674 ;;  dividend        2    4[COMMON] int 
  6675 ;; Auto vars:     Size  Location     Type
  6676 ;;  quotient        2    2[BANK0 ] int 
  6677 ;;  sign            1    1[BANK0 ] unsigned char 
  6678 ;;  counter         1    0[BANK0 ] unsigned char 
  6679 ;; Return value:  Size  Location     Type
  6680 ;;                  2    2[COMMON] int 
  6681 ;; Registers used:
  6682 ;;		wreg, status,2, status,0
  6683 ;; Tracked objects:
  6684 ;;		On entry : 0/0
  6685 ;;		On exit  : 0/0
  6686 ;;		Unchanged: 0/0
  6687 ;; Data sizes:     COMMON   BANK0   BANK1   BANK3   BANK2
  6688 ;;      Params:         4       0       0       0       0
  6689 ;;      Locals:         0       4       0       0       0
  6690 ;;      Temps:          1       0       0       0       0
  6691 ;;      Totals:         5       4       0       0       0
  6692 ;;Total ram usage:        9 bytes
  6693 ;; Hardware stack levels used:    1
  6694 ;; Hardware stack levels required when called:    1
  6695 ;; This function calls:
  6696 ;;		Nothing
  6697 ;; This function is called by:
  6698 ;;		_temperatura
  6699 ;;		_humo
  6700 ;;		_ultrasonico
  6701 ;;		_luces
  6702 ;; This function uses a non-reentrant model
  6703 ;;
  6704                           
  6705                           
  6706                           ;psect for function ___awdiv
  6707  0797                     ___awdiv:	
  6708  0797                     l2948:	
  6709                           ;incstack = 0
  6710                           ; Regs used in ___awdiv: [wreg+status,2+status,0]
  6711                           
  6712  0797  1283               	bcf	3,5	;RP0=0, select bank0
  6713  0798  1303               	bcf	3,6	;RP1=0, select bank0
  6714  0799  01A1               	clrf	___awdiv@sign
  6715  079A                     l2950:	
  6716  079A  1FF3               	btfss	___awdiv@divisor+1,7
  6717  079B  2F9D               	goto	u2931
  6718  079C  2F9E               	goto	u2930
  6719  079D                     u2931:	
  6720  079D  2FA5               	goto	l2956
  6721  079E                     u2930:	
  6722  079E                     l2952:	
  6723  079E  09F2               	comf	___awdiv@divisor,f
  6724  079F  09F3               	comf	___awdiv@divisor+1,f
  6725  07A0  0AF2               	incf	___awdiv@divisor,f
  6726  07A1  1903               	skipnz
  6727  07A2  0AF3               	incf	___awdiv@divisor+1,f
  6728  07A3                     l2954:	
  6729  07A3  01A1               	clrf	___awdiv@sign
  6730  07A4  0AA1               	incf	___awdiv@sign,f
  6731  07A5                     l2956:	
  6732  07A5  1FF5               	btfss	___awdiv@dividend+1,7
  6733  07A6  2FA8               	goto	u2941
  6734  07A7  2FA9               	goto	u2940
  6735  07A8                     u2941:	
  6736  07A8  2FB2               	goto	l2962
  6737  07A9                     u2940:	
  6738  07A9                     l2958:	
  6739  07A9  09F4               	comf	___awdiv@dividend,f
  6740  07AA  09F5               	comf	___awdiv@dividend+1,f
  6741  07AB  0AF4               	incf	___awdiv@dividend,f
  6742  07AC  1903               	skipnz
  6743  07AD  0AF5               	incf	___awdiv@dividend+1,f
  6744  07AE                     l2960:	
  6745  07AE  3001               	movlw	1
  6746  07AF  00F6               	movwf	??___awdiv
  6747  07B0  0876               	movf	??___awdiv,w
  6748  07B1  06A1               	xorwf	___awdiv@sign,f
  6749  07B2                     l2962:	
  6750  07B2  01A2               	clrf	___awdiv@quotient
  6751  07B3  01A3               	clrf	___awdiv@quotient+1
  6752  07B4                     l2964:	
  6753  07B4  0872               	movf	___awdiv@divisor,w
  6754  07B5  0473               	iorwf	___awdiv@divisor+1,w
  6755  07B6  1903               	btfsc	3,2
  6756  07B7  2FB9               	goto	u2951
  6757  07B8  2FBA               	goto	u2950
  6758  07B9                     u2951:	
  6759  07B9  2FF1               	goto	l2984
  6760  07BA                     u2950:	
  6761  07BA                     l2966:	
  6762  07BA  01A0               	clrf	___awdiv@counter
  6763  07BB  0AA0               	incf	___awdiv@counter,f
  6764  07BC  2FC8               	goto	l2972
  6765  07BD                     l2968:	
  6766  07BD  3001               	movlw	1
  6767  07BE                     u2965:	
  6768  07BE  1003               	clrc
  6769  07BF  0DF2               	rlf	___awdiv@divisor,f
  6770  07C0  0DF3               	rlf	___awdiv@divisor+1,f
  6771  07C1  3EFF               	addlw	-1
  6772  07C2  1D03               	skipz
  6773  07C3  2FBE               	goto	u2965
  6774  07C4                     l2970:	
  6775  07C4  3001               	movlw	1
  6776  07C5  00F6               	movwf	??___awdiv
  6777  07C6  0876               	movf	??___awdiv,w
  6778  07C7  07A0               	addwf	___awdiv@counter,f
  6779  07C8                     l2972:	
  6780  07C8  1FF3               	btfss	___awdiv@divisor+1,7
  6781  07C9  2FCB               	goto	u2971
  6782  07CA  2FCC               	goto	u2970
  6783  07CB                     u2971:	
  6784  07CB  2FBD               	goto	l2968
  6785  07CC                     u2970:	
  6786  07CC                     l2974:	
  6787  07CC  3001               	movlw	1
  6788  07CD                     u2985:	
  6789  07CD  1003               	clrc
  6790  07CE  0DA2               	rlf	___awdiv@quotient,f
  6791  07CF  0DA3               	rlf	___awdiv@quotient+1,f
  6792  07D0  3EFF               	addlw	-1
  6793  07D1  1D03               	skipz
  6794  07D2  2FCD               	goto	u2985
  6795  07D3  0873               	movf	___awdiv@divisor+1,w
  6796  07D4  0275               	subwf	___awdiv@dividend+1,w
  6797  07D5  1D03               	skipz
  6798  07D6  2FD9               	goto	u2995
  6799  07D7  0872               	movf	___awdiv@divisor,w
  6800  07D8  0274               	subwf	___awdiv@dividend,w
  6801  07D9                     u2995:	
  6802  07D9  1C03               	skipc
  6803  07DA  2FDC               	goto	u2991
  6804  07DB  2FDD               	goto	u2990
  6805  07DC                     u2991:	
  6806  07DC  2FE4               	goto	l2980
  6807  07DD                     u2990:	
  6808  07DD                     l2976:	
  6809  07DD  0872               	movf	___awdiv@divisor,w
  6810  07DE  02F4               	subwf	___awdiv@dividend,f
  6811  07DF  0873               	movf	___awdiv@divisor+1,w
  6812  07E0  1C03               	skipc
  6813  07E1  03F5               	decf	___awdiv@dividend+1,f
  6814  07E2  02F5               	subwf	___awdiv@dividend+1,f
  6815  07E3                     l2978:	
  6816  07E3  1422               	bsf	___awdiv@quotient,0
  6817  07E4                     l2980:	
  6818  07E4  3001               	movlw	1
  6819  07E5                     u3005:	
  6820  07E5  1003               	clrc
  6821  07E6  0CF3               	rrf	___awdiv@divisor+1,f
  6822  07E7  0CF2               	rrf	___awdiv@divisor,f
  6823  07E8  3EFF               	addlw	-1
  6824  07E9  1D03               	skipz
  6825  07EA  2FE5               	goto	u3005
  6826  07EB                     l2982:	
  6827  07EB  3001               	movlw	1
  6828  07EC  02A0               	subwf	___awdiv@counter,f
  6829  07ED  1D03               	btfss	3,2
  6830  07EE  2FF0               	goto	u3011
  6831  07EF  2FF1               	goto	u3010
  6832  07F0                     u3011:	
  6833  07F0  2FCC               	goto	l2974
  6834  07F1                     u3010:	
  6835  07F1                     l2984:	
  6836  07F1  0821               	movf	___awdiv@sign,w
  6837  07F2  1903               	btfsc	3,2
  6838  07F3  2FF5               	goto	u3021
  6839  07F4  2FF6               	goto	u3020
  6840  07F5                     u3021:	
  6841  07F5  2FFB               	goto	l2988
  6842  07F6                     u3020:	
  6843  07F6                     l2986:	
  6844  07F6  09A2               	comf	___awdiv@quotient,f
  6845  07F7  09A3               	comf	___awdiv@quotient+1,f
  6846  07F8  0AA2               	incf	___awdiv@quotient,f
  6847  07F9  1903               	skipnz
  6848  07FA  0AA3               	incf	___awdiv@quotient+1,f
  6849  07FB                     l2988:	
  6850  07FB  0823               	movf	___awdiv@quotient+1,w
  6851  07FC  00F3               	movwf	?___awdiv+1
  6852  07FD  0822               	movf	___awdiv@quotient,w
  6853  07FE  00F2               	movwf	?___awdiv
  6854  07FF                     l529:	
  6855  07FF  0008               	return
  6856  0800                     __end_of___awdiv:	
  6857                           
  6858                           	psect	text27
  6859  09AD                     __ptext27:	
  6860 ;; *************** function _celda *****************
  6861 ;; Defined at:
  6862 ;;		line 236 in file "Carcelero.c"
  6863 ;; Parameters:    Size  Location     Type
  6864 ;;		None
  6865 ;; Auto vars:     Size  Location     Type
  6866 ;;		None
  6867 ;; Return value:  Size  Location     Type
  6868 ;;                  1    wreg      void 
  6869 ;; Registers used:
  6870 ;;		wreg, fsr0l, fsr0h, status,2, status,0, pclath, cstack
  6871 ;; Tracked objects:
  6872 ;;		On entry : 0/0
  6873 ;;		On exit  : 0/0
  6874 ;;		Unchanged: 0/0
  6875 ;; Data sizes:     COMMON   BANK0   BANK1   BANK3   BANK2
  6876 ;;      Params:         0       0       0       0       0
  6877 ;;      Locals:         0       0       0       0       0
  6878 ;;      Temps:          0       2       0       0       0
  6879 ;;      Totals:         0       2       0       0       0
  6880 ;;Total ram usage:        2 bytes
  6881 ;; Hardware stack levels used:    1
  6882 ;; Hardware stack levels required when called:    3
  6883 ;; This function calls:
  6884 ;;		_colocar
  6885 ;;		_imprimir
  6886 ;; This function is called by:
  6887 ;;		_main
  6888 ;; This function uses a non-reentrant model
  6889 ;;
  6890                           
  6891                           
  6892                           ;psect for function _celda
  6893  09AD                     _celda:	
  6894  09AD                     l3326:	
  6895                           ;incstack = 0
  6896                           ; Regs used in _celda: [wreg-fsr0h+status,2+status,0+pclath+cstack]
  6897                           
  6898                           
  6899                           ;Carcelero.c: 238:     if (grados == 0)
  6900  09AD  1283               	bcf	3,5	;RP0=0, select bank0
  6901  09AE  1303               	bcf	3,6	;RP1=0, select bank0
  6902  09AF  086D               	movf	_grados,w
  6903  09B0  1D03               	btfss	3,2
  6904  09B1  29B3               	goto	u3691
  6905  09B2  29B4               	goto	u3690
  6906  09B3                     u3691:	
  6907  09B3  29D8               	goto	l3336
  6908  09B4                     u3690:	
  6909  09B4                     l3328:	
  6910                           
  6911                           ;Carcelero.c: 239:     {;Carcelero.c: 240:         colocar(38,2);
  6912  09B4  3002               	movlw	2
  6913  09B5  00A0               	movwf	??_celda
  6914  09B6  0820               	movf	??_celda,w
  6915  09B7  00F5               	movwf	colocar@y
  6916  09B8  3026               	movlw	38
  6917  09B9  160A  118A  26E2  120A  158A  	fcall	_colocar
  6918  09BE                     l3330:	
  6919                           
  6920                           ;Carcelero.c: 241:         imprimir(" ");
  6921  09BE  3010               	movlw	(low (((STR_2+5)-__stringbase)| (0+32768)))& (0+255)
  6922  09BF  160A  118A  275D  120A  158A  	fcall	_imprimir
  6923  09C4                     l3332:	
  6924                           
  6925                           ;Carcelero.c: 243:         PORTAbits.RA1 = 0;
  6926  09C4  1283               	bcf	3,5	;RP0=0, select bank0
  6927  09C5  1303               	bcf	3,6	;RP1=0, select bank0
  6928  09C6  1085               	bcf	5,1	;volatile
  6929  09C7                     l3334:	
  6930                           
  6931                           ;Carcelero.c: 245:         colocar(39,2);
  6932  09C7  3002               	movlw	2
  6933  09C8  00A0               	movwf	??_celda
  6934  09C9  0820               	movf	??_celda,w
  6935  09CA  00F5               	movwf	colocar@y
  6936  09CB  3027               	movlw	39
  6937  09CC  160A  118A  26E2  120A  158A  	fcall	_colocar
  6938                           
  6939                           ;Carcelero.c: 246:         imprimir("-");
  6940  09D1  3044               	movlw	(low ((STR_10-__stringbase)| (0+32768)))& (0+255)
  6941  09D2  160A  118A  275D  120A  158A  	fcall	_imprimir
  6942                           
  6943                           ;Carcelero.c: 247:     }
  6944  09D7  2A01               	goto	l3346
  6945  09D8                     l3336:	
  6946  09D8  305A               	movlw	90
  6947  09D9  066D               	xorwf	_grados,w
  6948  09DA  1D03               	btfss	3,2
  6949  09DB  29DD               	goto	u3701
  6950  09DC  29DE               	goto	u3700
  6951  09DD                     u3701:	
  6952  09DD  2A01               	goto	l3346
  6953  09DE                     u3700:	
  6954  09DE                     l3338:	
  6955                           
  6956                           ;Carcelero.c: 250:     {;Carcelero.c: 251:         colocar(39,2);
  6957  09DE  3002               	movlw	2
  6958  09DF  00A0               	movwf	??_celda
  6959  09E0  0820               	movf	??_celda,w
  6960  09E1  00F5               	movwf	colocar@y
  6961  09E2  3027               	movlw	39
  6962  09E3  160A  118A  26E2  120A  158A  	fcall	_colocar
  6963  09E8                     l3340:	
  6964                           
  6965                           ;Carcelero.c: 252:         imprimir(" ");
  6966  09E8  3010               	movlw	(low (((STR_2+5)-__stringbase)| (0+32768)))& (0+255)
  6967  09E9  160A  118A  275D  120A  158A  	fcall	_imprimir
  6968  09EE                     l3342:	
  6969                           
  6970                           ;Carcelero.c: 254:         PORTAbits.RA1 = 1;
  6971  09EE  1283               	bcf	3,5	;RP0=0, select bank0
  6972  09EF  1303               	bcf	3,6	;RP1=0, select bank0
  6973  09F0  1485               	bsf	5,1	;volatile
  6974  09F1                     l3344:	
  6975                           
  6976                           ;Carcelero.c: 256:         colocar(38,2);
  6977  09F1  3002               	movlw	2
  6978  09F2  00A0               	movwf	??_celda
  6979  09F3  0820               	movf	??_celda,w
  6980  09F4  00F5               	movwf	colocar@y
  6981  09F5  3026               	movlw	38
  6982  09F6  160A  118A  26E2  120A  158A  	fcall	_colocar
  6983                           
  6984                           ;Carcelero.c: 257:         imprimir("+");
  6985  09FB  3042               	movlw	(low ((STR_12-__stringbase)| (0+32768)))& (0+255)
  6986  09FC  160A  118A  275D  120A  158A  	fcall	_imprimir
  6987  0A01                     l3346:	
  6988                           
  6989                           ;Carcelero.c: 260:     b[0] = grados;
  6990  0A01  1283               	bcf	3,5	;RP0=0, select bank0
  6991  0A02  1303               	bcf	3,6	;RP1=0, select bank0
  6992  0A03  086D               	movf	_grados,w
  6993  0A04  00A0               	movwf	??_celda
  6994  0A05  01A1               	clrf	??_celda+1
  6995  0A06  0820               	movf	??_celda,w
  6996  0A07  1683               	bsf	3,5	;RP0=1, select bank1
  6997  0A08  1303               	bcf	3,6	;RP1=0, select bank1
  6998  0A09  00A0               	movwf	_b^(0+128)
  6999  0A0A  1283               	bcf	3,5	;RP0=0, select bank0
  7000  0A0B  1303               	bcf	3,6	;RP1=0, select bank0
  7001  0A0C  0821               	movf	??_celda+1,w
  7002  0A0D  1683               	bsf	3,5	;RP0=1, select bank1
  7003  0A0E  1303               	bcf	3,6	;RP1=0, select bank1
  7004  0A0F  00A1               	movwf	(_b+1)^(0+128)
  7005  0A10                     l259:	
  7006  0A10  0008               	return
  7007  0A11                     __end_of_celda:	
  7008                           
  7009                           	psect	text28
  7010  175D                     __ptext28:	
  7011 ;; *************** function _imprimir *****************
  7012 ;; Defined at:
  7013 ;;		line 78 in file "./LCD.h"
  7014 ;; Parameters:    Size  Location     Type
  7015 ;;  texto           1    wreg     PTR const unsigned char 
  7016 ;;		 -> STR_22(3), STR_21(3), STR_20(2), STR_19(6), 
  7017 ;;		 -> STR_18(2), STR_17(5), STR_16(6), STR_15(3), 
  7018 ;;		 -> STR_14(3), STR_13(5), STR_12(2), STR_11(2), 
  7019 ;;		 -> STR_10(2), STR_9(2), STR_8(4), STR_7(3), 
  7020 ;;		 -> STR_6(3), STR_5(4), STR_4(7), STR_3(7), 
  7021 ;;		 -> STR_2(7), STR_1(7), 
  7022 ;; Auto vars:     Size  Location     Type
  7023 ;;  texto           1    6[COMMON] PTR const unsigned char 
  7024 ;;		 -> STR_22(3), STR_21(3), STR_20(2), STR_19(6), 
  7025 ;;		 -> STR_18(2), STR_17(5), STR_16(6), STR_15(3), 
  7026 ;;		 -> STR_14(3), STR_13(5), STR_12(2), STR_11(2), 
  7027 ;;		 -> STR_10(2), STR_9(2), STR_8(4), STR_7(3), 
  7028 ;;		 -> STR_6(3), STR_5(4), STR_4(7), STR_3(7), 
  7029 ;;		 -> STR_2(7), STR_1(7), 
  7030 ;;  i               2    4[COMMON] int 
  7031 ;; Return value:  Size  Location     Type
  7032 ;;                  1    wreg      void 
  7033 ;; Registers used:
  7034 ;;		wreg, fsr0l, fsr0h, status,2, status,0, pclath
  7035 ;; Tracked objects:
  7036 ;;		On entry : 0/0
  7037 ;;		On exit  : 0/0
  7038 ;;		Unchanged: 0/0
  7039 ;; Data sizes:     COMMON   BANK0   BANK1   BANK3   BANK2
  7040 ;;      Params:         0       0       0       0       0
  7041 ;;      Locals:         3       0       0       0       0
  7042 ;;      Temps:          2       0       0       0       0
  7043 ;;      Totals:         5       0       0       0       0
  7044 ;;Total ram usage:        5 bytes
  7045 ;; Hardware stack levels used:    2
  7046 ;; Hardware stack levels required when called:    1
  7047 ;; This function calls:
  7048 ;;		Nothing
  7049 ;; This function is called by:
  7050 ;;		_humo
  7051 ;;		_ultrasonico
  7052 ;;		_luces
  7053 ;;		_celda
  7054 ;;		_main
  7055 ;; This function uses a non-reentrant model
  7056 ;;
  7057                           
  7058                           
  7059                           ;psect for function _imprimir
  7060  175D                     _imprimir:	
  7061                           
  7062                           ;incstack = 0
  7063                           ; Regs used in _imprimir: [wreg-fsr0h+status,2+status,0+pclath]
  7064                           ;imprimir@texto stored from wreg
  7065  175D  00F6               	movwf	imprimir@texto
  7066  175E                     l1966:	
  7067                           
  7068                           ;./LCD.h: 78: void imprimir(const char *texto);./LCD.h: 79: {;./LCD.h: 80:     for(int i
      +                           = 0; texto[i] != '\0'; i++)
  7069  175E  01F4               	clrf	imprimir@i
  7070  175F  01F5               	clrf	imprimir@i+1
  7071  1760  2F80               	goto	l120
  7072  1761                     l121:	
  7073                           
  7074                           ;./LCD.h: 81:     {;./LCD.h: 82:         PORTDbits.RD6 = 1;
  7075  1761  1283               	bcf	3,5	;RP0=0, select bank0
  7076  1762  1303               	bcf	3,6	;RP1=0, select bank0
  7077  1763  1708               	bsf	8,6	;volatile
  7078  1764                     l1968:	
  7079                           
  7080                           ;./LCD.h: 83:         PORTB = texto[i];
  7081  1764  0874               	movf	imprimir@i,w
  7082  1765  0776               	addwf	imprimir@texto,w
  7083  1766  0084               	movwf	4
  7084  1767  160A  118A  2000  160A  118A  	fcall	stringdir
  7085  176C  0086               	movwf	6	;volatile
  7086  176D                     l1970:	
  7087                           
  7088                           ;./LCD.h: 84:         PORTDbits.RD7 = 1;
  7089  176D  1788               	bsf	8,7	;volatile
  7090  176E                     l1972:	
  7091                           
  7092                           ;./LCD.h: 85:         _delay((unsigned long)((2)*(4000000/4000.0)));
  7093  176E  3003               	movlw	3
  7094  176F  00F3               	movwf	??_imprimir+1
  7095  1770  3097               	movlw	151
  7096  1771  00F2               	movwf	??_imprimir
  7097  1772                     u3897:	
  7098  1772  0BF2               	decfsz	??_imprimir,f
  7099  1773  2F72               	goto	u3897
  7100  1774  0BF3               	decfsz	??_imprimir+1,f
  7101  1775  2F72               	goto	u3897
  7102  1776  2F77               	nop2
  7103  1777                     l1974:	
  7104                           
  7105                           ;./LCD.h: 86:         PORTDbits.RD7 = 0;
  7106  1777  1283               	bcf	3,5	;RP0=0, select bank0
  7107  1778  1303               	bcf	3,6	;RP1=0, select bank0
  7108  1779  1388               	bcf	8,7	;volatile
  7109  177A                     l1976:	
  7110                           
  7111                           ;./LCD.h: 87:     }
  7112  177A  3001               	movlw	1
  7113  177B  07F4               	addwf	imprimir@i,f
  7114  177C  1803               	skipnc
  7115  177D  0AF5               	incf	imprimir@i+1,f
  7116  177E  3000               	movlw	0
  7117  177F  07F5               	addwf	imprimir@i+1,f
  7118  1780                     l120:	
  7119  1780  0874               	movf	imprimir@i,w
  7120  1781  0776               	addwf	imprimir@texto,w
  7121  1782  0084               	movwf	4
  7122  1783  160A  118A  2000  160A  118A  	fcall	stringdir
  7123  1788  3A00               	xorlw	0
  7124  1789  1D03               	skipz
  7125  178A  2F8C               	goto	u1501
  7126  178B  2F8D               	goto	u1500
  7127  178C                     u1501:	
  7128  178C  2F61               	goto	l121
  7129  178D                     u1500:	
  7130  178D                     l123:	
  7131  178D  0008               	return
  7132  178E                     __end_of_imprimir:	
  7133                           
  7134                           	psect	text29
  7135  16E2                     __ptext29:	
  7136 ;; *************** function _colocar *****************
  7137 ;; Defined at:
  7138 ;;		line 62 in file "./LCD.h"
  7139 ;; Parameters:    Size  Location     Type
  7140 ;;  x               1    wreg     const unsigned char 
  7141 ;;  y               1    5[COMMON] const unsigned char 
  7142 ;; Auto vars:     Size  Location     Type
  7143 ;;  x               1    7[COMMON] const unsigned char 
  7144 ;;  temp            1    8[COMMON] unsigned char 
  7145 ;; Return value:  Size  Location     Type
  7146 ;;                  1    wreg      void 
  7147 ;; Registers used:
  7148 ;;		wreg, status,2, status,0, pclath, cstack
  7149 ;; Tracked objects:
  7150 ;;		On entry : 0/0
  7151 ;;		On exit  : 0/0
  7152 ;;		Unchanged: 0/0
  7153 ;; Data sizes:     COMMON   BANK0   BANK1   BANK3   BANK2
  7154 ;;      Params:         1       0       0       0       0
  7155 ;;      Locals:         2       0       0       0       0
  7156 ;;      Temps:          1       0       0       0       0
  7157 ;;      Totals:         4       0       0       0       0
  7158 ;;Total ram usage:        4 bytes
  7159 ;; Hardware stack levels used:    1
  7160 ;; Hardware stack levels required when called:    2
  7161 ;; This function calls:
  7162 ;;		_comando
  7163 ;; This function is called by:
  7164 ;;		_temperatura
  7165 ;;		_humo
  7166 ;;		_ultrasonico
  7167 ;;		_luces
  7168 ;;		_celda
  7169 ;;		_main
  7170 ;; This function uses a non-reentrant model
  7171 ;;
  7172                           
  7173                           
  7174                           ;psect for function _colocar
  7175  16E2                     _colocar:	
  7176                           
  7177                           ;incstack = 0
  7178                           ; Regs used in _colocar: [wreg+status,2+status,0+pclath+cstack]
  7179                           ;colocar@x stored from wreg
  7180  16E2  00F7               	movwf	colocar@x
  7181  16E3                     l1954:	
  7182                           
  7183                           ;./LCD.h: 62: void colocar(const char x,const char y);./LCD.h: 63: {;./LCD.h: 64:     ch
      +                          ar temp;;./LCD.h: 66:     if (y == 1)
  7184  16E3  0375               	decf	colocar@y,w
  7185  16E4  1D03               	btfss	3,2
  7186  16E5  2EE7               	goto	u1481
  7187  16E6  2EE8               	goto	u1480
  7188  16E7                     u1481:	
  7189  16E7  2EF4               	goto	l1960
  7190  16E8                     u1480:	
  7191  16E8                     l1956:	
  7192                           
  7193                           ;./LCD.h: 67:     {;./LCD.h: 68:         temp = 0x80 + x - 1;
  7194  16E8  0877               	movf	colocar@x,w
  7195  16E9  3E7F               	addlw	127
  7196  16EA  00F6               	movwf	??_colocar
  7197  16EB  0876               	movf	??_colocar,w
  7198  16EC  00F8               	movwf	colocar@temp
  7199  16ED                     l1958:	
  7200                           
  7201                           ;./LCD.h: 69:         comando(temp);
  7202  16ED  0878               	movf	colocar@temp,w
  7203  16EE  160A  118A  2678  160A  118A  	fcall	_comando
  7204                           
  7205                           ;./LCD.h: 70:     }
  7206  16F3  2F05               	goto	l117
  7207  16F4                     l1960:	
  7208  16F4  3002               	movlw	2
  7209  16F5  0675               	xorwf	colocar@y,w
  7210  16F6  1D03               	btfss	3,2
  7211  16F7  2EF9               	goto	u1491
  7212  16F8  2EFA               	goto	u1490
  7213  16F9                     u1491:	
  7214  16F9  2F05               	goto	l117
  7215  16FA                     u1490:	
  7216  16FA                     l1962:	
  7217                           
  7218                           ;./LCD.h: 72:     {;./LCD.h: 73:         temp = 0xC0 + x - 1;
  7219  16FA  0877               	movf	colocar@x,w
  7220  16FB  3EBF               	addlw	191
  7221  16FC  00F6               	movwf	??_colocar
  7222  16FD  0876               	movf	??_colocar,w
  7223  16FE  00F8               	movwf	colocar@temp
  7224  16FF                     l1964:	
  7225                           
  7226                           ;./LCD.h: 74:         comando(temp);
  7227  16FF  0878               	movf	colocar@temp,w
  7228  1700  160A  118A  2678  160A  118A  	fcall	_comando
  7229  1705                     l117:	
  7230  1705  0008               	return
  7231  1706                     __end_of_colocar:	
  7232                           
  7233                           	psect	text30
  7234  163F                     __ptext30:	
  7235 ;; *************** function _borrarv *****************
  7236 ;; Defined at:
  7237 ;;		line 54 in file "./LCD.h"
  7238 ;; Parameters:    Size  Location     Type
  7239 ;;		None
  7240 ;; Auto vars:     Size  Location     Type
  7241 ;;		None
  7242 ;; Return value:  Size  Location     Type
  7243 ;;                  1    wreg      void 
  7244 ;; Registers used:
  7245 ;;		wreg, status,2, status,0, pclath, cstack
  7246 ;; Tracked objects:
  7247 ;;		On entry : 0/0
  7248 ;;		On exit  : 0/0
  7249 ;;		Unchanged: 0/0
  7250 ;; Data sizes:     COMMON   BANK0   BANK1   BANK3   BANK2
  7251 ;;      Params:         0       0       0       0       0
  7252 ;;      Locals:         0       0       0       0       0
  7253 ;;      Temps:          0       0       0       0       0
  7254 ;;      Totals:         0       0       0       0       0
  7255 ;;Total ram usage:        0 bytes
  7256 ;; Hardware stack levels used:    1
  7257 ;; Hardware stack levels required when called:    2
  7258 ;; This function calls:
  7259 ;;		_comando
  7260 ;; This function is called by:
  7261 ;;		_main
  7262 ;; This function uses a non-reentrant model
  7263 ;;
  7264                           
  7265                           
  7266                           ;psect for function _borrarv
  7267  163F                     _borrarv:	
  7268  163F                     l2490:	
  7269                           ;incstack = 0
  7270                           ; Regs used in _borrarv: [wreg+status,2+status,0+pclath+cstack]
  7271                           
  7272                           
  7273                           ;./LCD.h: 56:     comando(0);
  7274  163F  3000               	movlw	0
  7275  1640  160A  118A  2678  160A  118A  	fcall	_comando
  7276                           
  7277                           ;./LCD.h: 57:     comando(1);
  7278  1645  3001               	movlw	1
  7279  1646  160A  118A  2678  160A  118A  	fcall	_comando
  7280                           
  7281                           ;./LCD.h: 59:     comando(0x0C);
  7282  164B  300C               	movlw	12
  7283  164C  160A  118A  2678  160A  118A  	fcall	_comando
  7284  1651                     l111:	
  7285  1651  0008               	return
  7286  1652                     __end_of_borrarv:	
  7287                           
  7288                           	psect	text31
  7289  1678                     __ptext31:	
  7290 ;; *************** function _comando *****************
  7291 ;; Defined at:
  7292 ;;		line 16 in file "./LCD.h"
  7293 ;; Parameters:    Size  Location     Type
  7294 ;;  x               1    wreg     const unsigned char 
  7295 ;; Auto vars:     Size  Location     Type
  7296 ;;  x               1    4[COMMON] const unsigned char 
  7297 ;; Return value:  Size  Location     Type
  7298 ;;                  1    wreg      void 
  7299 ;; Registers used:
  7300 ;;		wreg
  7301 ;; Tracked objects:
  7302 ;;		On entry : 0/0
  7303 ;;		On exit  : 0/0
  7304 ;;		Unchanged: 0/0
  7305 ;; Data sizes:     COMMON   BANK0   BANK1   BANK3   BANK2
  7306 ;;      Params:         0       0       0       0       0
  7307 ;;      Locals:         1       0       0       0       0
  7308 ;;      Temps:          2       0       0       0       0
  7309 ;;      Totals:         3       0       0       0       0
  7310 ;;Total ram usage:        3 bytes
  7311 ;; Hardware stack levels used:    1
  7312 ;; Hardware stack levels required when called:    1
  7313 ;; This function calls:
  7314 ;;		Nothing
  7315 ;; This function is called by:
  7316 ;;		_iniciarLCD
  7317 ;;		_borrarv
  7318 ;;		_colocar
  7319 ;; This function uses a non-reentrant model
  7320 ;;
  7321                           
  7322                           
  7323                           ;psect for function _comando
  7324  1678                     _comando:	
  7325                           
  7326                           ;incstack = 0
  7327                           ; Regs used in _comando: [wreg]
  7328                           ;comando@x stored from wreg
  7329  1678  00F4               	movwf	comando@x
  7330  1679                     l1900:	
  7331                           
  7332                           ;./LCD.h: 16: void comando(const char x);./LCD.h: 17: {;./LCD.h: 18:     PORTDbits.RD6 =
      +                           0;
  7333  1679  1283               	bcf	3,5	;RP0=0, select bank0
  7334  167A  1303               	bcf	3,6	;RP1=0, select bank0
  7335  167B  1308               	bcf	8,6	;volatile
  7336  167C                     l1902:	
  7337                           
  7338                           ;./LCD.h: 19:     PORTB = x;
  7339  167C  0874               	movf	comando@x,w
  7340  167D  0086               	movwf	6	;volatile
  7341  167E                     l1904:	
  7342                           
  7343                           ;./LCD.h: 20:     PORTDbits.RD7 = 1;
  7344  167E  1788               	bsf	8,7	;volatile
  7345                           
  7346                           ;./LCD.h: 21:     _delay((unsigned long)((4)*(4000000/4000.0)));
  7347  167F  3006               	movlw	6
  7348  1680  00F3               	movwf	??_comando+1
  7349  1681  3030               	movlw	48
  7350  1682  00F2               	movwf	??_comando
  7351  1683                     u3907:	
  7352  1683  0BF2               	decfsz	??_comando,f
  7353  1684  2E83               	goto	u3907
  7354  1685  0BF3               	decfsz	??_comando+1,f
  7355  1686  2E83               	goto	u3907
  7356  1687  0000               	nop
  7357  1688                     l1906:	
  7358                           
  7359                           ;./LCD.h: 22:     PORTDbits.RD7 = 0;
  7360  1688  1283               	bcf	3,5	;RP0=0, select bank0
  7361  1689  1303               	bcf	3,6	;RP1=0, select bank0
  7362  168A  1388               	bcf	8,7	;volatile
  7363  168B                     l105:	
  7364  168B  0008               	return
  7365  168C                     __end_of_comando:	
  7366                           
  7367                           	psect	text32
  7368  160A                     __ptext32:	
  7369 ;; *************** function _UARTenvINT *****************
  7370 ;; Defined at:
  7371 ;;		line 63 in file "./UART.h"
  7372 ;; Parameters:    Size  Location     Type
  7373 ;;  x               2    2[COMMON] int 
  7374 ;; Auto vars:     Size  Location     Type
  7375 ;;		None
  7376 ;; Return value:  Size  Location     Type
  7377 ;;                  1    wreg      void 
  7378 ;; Registers used:
  7379 ;;		wreg
  7380 ;; Tracked objects:
  7381 ;;		On entry : 0/0
  7382 ;;		On exit  : 0/0
  7383 ;;		Unchanged: 0/0
  7384 ;; Data sizes:     COMMON   BANK0   BANK1   BANK3   BANK2
  7385 ;;      Params:         2       0       0       0       0
  7386 ;;      Locals:         0       0       0       0       0
  7387 ;;      Temps:          0       0       0       0       0
  7388 ;;      Totals:         2       0       0       0       0
  7389 ;;Total ram usage:        2 bytes
  7390 ;; Hardware stack levels used:    1
  7391 ;; Hardware stack levels required when called:    1
  7392 ;; This function calls:
  7393 ;;		Nothing
  7394 ;; This function is called by:
  7395 ;;		_main
  7396 ;; This function uses a non-reentrant model
  7397 ;;
  7398                           
  7399                           
  7400                           ;psect for function _UARTenvINT
  7401  160A                     _UARTenvINT:	
  7402  160A                     l2538:	
  7403                           ;incstack = 0
  7404                           ; Regs used in _UARTenvINT: [wreg]
  7405                           
  7406  160A                     l149:	
  7407                           ;./UART.h: 66:     {;./UART.h: 68:     }
  7408                           
  7409                           
  7410                           ;./UART.h: 65:     while (TXSTAbits.TRMT == 0)
  7411  160A  1683               	bsf	3,5	;RP0=1, select bank1
  7412  160B  1303               	bcf	3,6	;RP1=0, select bank1
  7413  160C  1C98               	btfss	24,1	;volatile
  7414  160D  2E0F               	goto	u2681
  7415  160E  2E10               	goto	u2680
  7416  160F                     u2681:	
  7417  160F  2E0A               	goto	l149
  7418  1610                     u2680:	
  7419  1610                     l2540:	
  7420                           
  7421                           ;./UART.h: 70:     TXREG = x;
  7422  1610  0872               	movf	UARTenvINT@x,w
  7423  1611  1283               	bcf	3,5	;RP0=0, select bank0
  7424  1612  1303               	bcf	3,6	;RP1=0, select bank0
  7425  1613  0099               	movwf	25	;volatile
  7426  1614                     l152:	
  7427  1614  0008               	return
  7428  1615                     __end_of_UARTenvINT:	
  7429                           
  7430                           	psect	text33
  7431  1615                     __ptext33:	
  7432 ;; *************** function _MSB *****************
  7433 ;; Defined at:
  7434 ;;		line 461 in file "Carcelero.c"
  7435 ;; Parameters:    Size  Location     Type
  7436 ;;  x               1    wreg     unsigned char 
  7437 ;; Auto vars:     Size  Location     Type
  7438 ;;  x               1    3[COMMON] unsigned char 
  7439 ;; Return value:  Size  Location     Type
  7440 ;;                  1    wreg      unsigned char 
  7441 ;; Registers used:
  7442 ;;		wreg, status,2, status,0
  7443 ;; Tracked objects:
  7444 ;;		On entry : 0/0
  7445 ;;		On exit  : 0/0
  7446 ;;		Unchanged: 0/0
  7447 ;; Data sizes:     COMMON   BANK0   BANK1   BANK3   BANK2
  7448 ;;      Params:         0       0       0       0       0
  7449 ;;      Locals:         1       0       0       0       0
  7450 ;;      Temps:          1       0       0       0       0
  7451 ;;      Totals:         2       0       0       0       0
  7452 ;;Total ram usage:        2 bytes
  7453 ;; Hardware stack levels used:    1
  7454 ;; Hardware stack levels required when called:    1
  7455 ;; This function calls:
  7456 ;;		Nothing
  7457 ;; This function is called by:
  7458 ;;		_main
  7459 ;; This function uses a non-reentrant model
  7460 ;;
  7461                           
  7462                           
  7463                           ;psect for function _MSB
  7464  1615                     _MSB:	
  7465                           
  7466                           ;incstack = 0
  7467                           ; Regs used in _MSB: [wreg+status,2+status,0]
  7468                           ;MSB@x stored from wreg
  7469  1615  00F3               	movwf	MSB@x
  7470  1616                     l2686:	
  7471                           
  7472                           ;Carcelero.c: 461: unsigned char MSB(unsigned char x);Carcelero.c: 462: {;Carcelero.c: 4
      +                          63:   return ((x >> 4) + '0');
  7473  1616  0873               	movf	MSB@x,w
  7474  1617  00F2               	movwf	??_MSB
  7475  1618  3004               	movlw	4
  7476  1619                     u2755:	
  7477  1619  1003               	clrc
  7478  161A  0CF2               	rrf	??_MSB,f
  7479  161B  3EFF               	addlw	-1
  7480  161C  1D03               	skipz
  7481  161D  2E19               	goto	u2755
  7482  161E  0872               	movf	??_MSB,w
  7483  161F  3E30               	addlw	48
  7484  1620                     l284:	
  7485  1620  0008               	return
  7486  1621                     __end_of_MSB:	
  7487                           
  7488                           	psect	text34
  7489  15D8                     __ptext34:	
  7490 ;; *************** function _LSB *****************
  7491 ;; Defined at:
  7492 ;;		line 466 in file "Carcelero.c"
  7493 ;; Parameters:    Size  Location     Type
  7494 ;;  x               1    wreg     unsigned char 
  7495 ;; Auto vars:     Size  Location     Type
  7496 ;;  x               1    2[COMMON] unsigned char 
  7497 ;; Return value:  Size  Location     Type
  7498 ;;                  1    wreg      unsigned char 
  7499 ;; Registers used:
  7500 ;;		wreg, status,2, status,0
  7501 ;; Tracked objects:
  7502 ;;		On entry : 0/0
  7503 ;;		On exit  : 0/0
  7504 ;;		Unchanged: 0/0
  7505 ;; Data sizes:     COMMON   BANK0   BANK1   BANK3   BANK2
  7506 ;;      Params:         0       0       0       0       0
  7507 ;;      Locals:         1       0       0       0       0
  7508 ;;      Temps:          0       0       0       0       0
  7509 ;;      Totals:         1       0       0       0       0
  7510 ;;Total ram usage:        1 bytes
  7511 ;; Hardware stack levels used:    1
  7512 ;; Hardware stack levels required when called:    1
  7513 ;; This function calls:
  7514 ;;		Nothing
  7515 ;; This function is called by:
  7516 ;;		_main
  7517 ;; This function uses a non-reentrant model
  7518 ;;
  7519                           
  7520                           
  7521                           ;psect for function _LSB
  7522  15D8                     _LSB:	
  7523                           
  7524                           ;incstack = 0
  7525                           ; Regs used in _LSB: [wreg+status,2+status,0]
  7526                           ;LSB@x stored from wreg
  7527  15D8  00F2               	movwf	LSB@x
  7528  15D9                     l2690:	
  7529                           
  7530                           ;Carcelero.c: 466: unsigned char LSB(unsigned char x);Carcelero.c: 467: {;Carcelero.c: 4
      +                          68:   return ((x & 0x0F) + '0');
  7531  15D9  0872               	movf	LSB@x,w
  7532  15DA  390F               	andlw	15
  7533  15DB  3E30               	addlw	48
  7534  15DC                     l287:	
  7535  15DC  0008               	return
  7536  15DD                     __end_of_LSB:	
  7537                           
  7538                           	psect	text35
  7539  17C6                     __ptext35:	
  7540 ;; *************** function _I2C_Master_Init *****************
  7541 ;; Defined at:
  7542 ;;		line 16 in file "./I2Cmaestro.h"
  7543 ;; Parameters:    Size  Location     Type
  7544 ;;  c               4    8[BANK0 ] const unsigned long 
  7545 ;; Auto vars:     Size  Location     Type
  7546 ;;		None
  7547 ;; Return value:  Size  Location     Type
  7548 ;;                  1    wreg      void 
  7549 ;; Registers used:
  7550 ;;		wreg, status,2, status,0, pclath, cstack
  7551 ;; Tracked objects:
  7552 ;;		On entry : 0/0
  7553 ;;		On exit  : 0/0
  7554 ;;		Unchanged: 0/0
  7555 ;; Data sizes:     COMMON   BANK0   BANK1   BANK3   BANK2
  7556 ;;      Params:         0       4       0       0       0
  7557 ;;      Locals:         0       0       0       0       0
  7558 ;;      Temps:          0       4       0       0       0
  7559 ;;      Totals:         0       8       0       0       0
  7560 ;;Total ram usage:        8 bytes
  7561 ;; Hardware stack levels used:    1
  7562 ;; Hardware stack levels required when called:    2
  7563 ;; This function calls:
  7564 ;;		___lldiv
  7565 ;; This function is called by:
  7566 ;;		_main
  7567 ;; This function uses a non-reentrant model
  7568 ;;
  7569                           
  7570                           
  7571                           ;psect for function _I2C_Master_Init
  7572  17C6                     _I2C_Master_Init:	
  7573  17C6                     l3212:	
  7574                           ;incstack = 0
  7575                           ; Regs used in _I2C_Master_Init: [wreg+status,2+status,0+pclath+cstack]
  7576                           
  7577                           
  7578                           ;./I2Cmaestro.h: 16: void I2C_Master_Init(const unsigned long c);./I2Cmaestro.h: 17: {;.
      +                          /I2Cmaestro.h: 18:     SSPCON = 0b00101000;
  7579  17C6  3028               	movlw	40
  7580  17C7  1283               	bcf	3,5	;RP0=0, select bank0
  7581  17C8  1303               	bcf	3,6	;RP1=0, select bank0
  7582  17C9  0094               	movwf	20	;volatile
  7583  17CA                     l3214:	
  7584                           
  7585                           ;./I2Cmaestro.h: 19:     SSPCON2 = 0;
  7586  17CA  1683               	bsf	3,5	;RP0=1, select bank1
  7587  17CB  1303               	bcf	3,6	;RP1=0, select bank1
  7588  17CC  0191               	clrf	17	;volatile
  7589  17CD                     l3216:	
  7590                           
  7591                           ;./I2Cmaestro.h: 20:     SSPADD = (4000000/(4*c))-1;
  7592  17CD  1283               	bcf	3,5	;RP0=0, select bank0
  7593  17CE  1303               	bcf	3,6	;RP1=0, select bank0
  7594  17CF  0828               	movf	I2C_Master_Init@c,w
  7595  17D0  00AC               	movwf	??_I2C_Master_Init
  7596  17D1  0829               	movf	I2C_Master_Init@c+1,w
  7597  17D2  00AD               	movwf	??_I2C_Master_Init+1
  7598  17D3  082A               	movf	I2C_Master_Init@c+2,w
  7599  17D4  00AE               	movwf	??_I2C_Master_Init+2
  7600  17D5  082B               	movf	I2C_Master_Init@c+3,w
  7601  17D6  00AF               	movwf	??_I2C_Master_Init+3
  7602  17D7  3002               	movlw	2
  7603  17D8                     u3645:	
  7604  17D8  1003               	clrc
  7605  17D9  0DAC               	rlf	??_I2C_Master_Init,f
  7606  17DA  0DAD               	rlf	??_I2C_Master_Init+1,f
  7607  17DB  0DAE               	rlf	??_I2C_Master_Init+2,f
  7608  17DC  0DAF               	rlf	??_I2C_Master_Init+3,f
  7609  17DD                     u3640:	
  7610  17DD  3EFF               	addlw	-1
  7611  17DE  1D03               	skipz
  7612  17DF  2FD8               	goto	u3645
  7613  17E0  082F               	movf	??_I2C_Master_Init+3,w
  7614  17E1  00A3               	movwf	___lldiv@divisor+3
  7615  17E2  082E               	movf	??_I2C_Master_Init+2,w
  7616  17E3  00A2               	movwf	___lldiv@divisor+2
  7617  17E4  082D               	movf	??_I2C_Master_Init+1,w
  7618  17E5  00A1               	movwf	___lldiv@divisor+1
  7619  17E6  082C               	movf	??_I2C_Master_Init,w
  7620  17E7  00A0               	movwf	___lldiv@divisor
  7621  17E8  3000               	movlw	0
  7622  17E9  00A7               	movwf	___lldiv@dividend+3
  7623  17EA  303D               	movlw	61
  7624  17EB  00A6               	movwf	___lldiv@dividend+2
  7625  17EC  3009               	movlw	9
  7626  17ED  00A5               	movwf	___lldiv@dividend+1
  7627  17EE  3000               	movlw	0
  7628  17EF  00A4               	movwf	___lldiv@dividend
  7629  17F0  120A  158A  2211  160A  118A  	fcall	___lldiv
  7630  17F5  1283               	bcf	3,5	;RP0=0, select bank0
  7631  17F6  1303               	bcf	3,6	;RP1=0, select bank0
  7632  17F7  0820               	movf	?___lldiv,w
  7633  17F8  3EFF               	addlw	255
  7634  17F9  1683               	bsf	3,5	;RP0=1, select bank1
  7635  17FA  1303               	bcf	3,6	;RP1=0, select bank1
  7636  17FB  0093               	movwf	19	;volatile
  7637  17FC                     l3218:	
  7638                           
  7639                           ;./I2Cmaestro.h: 21:     SSPSTAT = 0;
  7640  17FC  0194               	clrf	20	;volatile
  7641  17FD                     l3220:	
  7642                           
  7643                           ;./I2Cmaestro.h: 22:     TRISCbits.TRISC3 = 1;
  7644  17FD  1587               	bsf	7,3	;volatile
  7645  17FE                     l3222:	
  7646                           
  7647                           ;./I2Cmaestro.h: 23:     TRISCbits.TRISC4 = 1;
  7648  17FE  1607               	bsf	7,4	;volatile
  7649  17FF                     l79:	
  7650  17FF  0008               	return
  7651  1800                     __end_of_I2C_Master_Init:	
  7652                           
  7653                           	psect	text36
  7654  0A11                     __ptext36:	
  7655 ;; *************** function ___lldiv *****************
  7656 ;; Defined at:
  7657 ;;		line 5 in file "C:\Program Files (x86)\Microchip\xc8\v2.10\pic\sources\c90\common\__lldiv.c"
  7658 ;; Parameters:    Size  Location     Type
  7659 ;;  divisor         4    0[BANK0 ] unsigned long 
  7660 ;;  dividend        4    4[BANK0 ] unsigned long 
  7661 ;; Auto vars:     Size  Location     Type
  7662 ;;  quotient        4    3[COMMON] unsigned long 
  7663 ;;  counter         1    7[COMMON] unsigned char 
  7664 ;; Return value:  Size  Location     Type
  7665 ;;                  4    0[BANK0 ] unsigned long 
  7666 ;; Registers used:
  7667 ;;		wreg, status,2, status,0
  7668 ;; Tracked objects:
  7669 ;;		On entry : 0/0
  7670 ;;		On exit  : 0/0
  7671 ;;		Unchanged: 0/0
  7672 ;; Data sizes:     COMMON   BANK0   BANK1   BANK3   BANK2
  7673 ;;      Params:         0       8       0       0       0
  7674 ;;      Locals:         5       0       0       0       0
  7675 ;;      Temps:          1       0       0       0       0
  7676 ;;      Totals:         6       8       0       0       0
  7677 ;;Total ram usage:       14 bytes
  7678 ;; Hardware stack levels used:    1
  7679 ;; Hardware stack levels required when called:    1
  7680 ;; This function calls:
  7681 ;;		Nothing
  7682 ;; This function is called by:
  7683 ;;		_I2C_Master_Init
  7684 ;; This function uses a non-reentrant model
  7685 ;;
  7686                           
  7687                           
  7688                           ;psect for function ___lldiv
  7689  0A11                     ___lldiv:	
  7690  0A11                     l2924:	
  7691                           ;incstack = 0
  7692                           ; Regs used in ___lldiv: [wreg+status,2+status,0]
  7693                           
  7694  0A11  3000               	movlw	0
  7695  0A12  00F6               	movwf	___lldiv@quotient+3
  7696  0A13  3000               	movlw	0
  7697  0A14  00F5               	movwf	___lldiv@quotient+2
  7698  0A15  3000               	movlw	0
  7699  0A16  00F4               	movwf	___lldiv@quotient+1
  7700  0A17  3000               	movlw	0
  7701  0A18  00F3               	movwf	___lldiv@quotient
  7702  0A19  1283               	bcf	3,5	;RP0=0, select bank0
  7703  0A1A  1303               	bcf	3,6	;RP1=0, select bank0
  7704  0A1B  0823               	movf	___lldiv@divisor+3,w
  7705  0A1C  0422               	iorwf	___lldiv@divisor+2,w
  7706  0A1D  0421               	iorwf	___lldiv@divisor+1,w
  7707  0A1E  0420               	iorwf	___lldiv@divisor,w
  7708  0A1F  1903               	skipnz
  7709  0A20  2A22               	goto	u2861
  7710  0A21  2A23               	goto	u2860
  7711  0A22                     u2861:	
  7712  0A22  2A70               	goto	l2944
  7713  0A23                     u2860:	
  7714  0A23                     l2926:	
  7715  0A23  01F7               	clrf	___lldiv@counter
  7716  0A24  0AF7               	incf	___lldiv@counter,f
  7717  0A25  2A33               	goto	l2930
  7718  0A26                     l2928:	
  7719  0A26  3001               	movlw	1
  7720  0A27  00F2               	movwf	??___lldiv
  7721  0A28                     u2875:	
  7722  0A28  1003               	clrc
  7723  0A29  0DA0               	rlf	___lldiv@divisor,f
  7724  0A2A  0DA1               	rlf	___lldiv@divisor+1,f
  7725  0A2B  0DA2               	rlf	___lldiv@divisor+2,f
  7726  0A2C  0DA3               	rlf	___lldiv@divisor+3,f
  7727  0A2D  0BF2               	decfsz	??___lldiv,f
  7728  0A2E  2A28               	goto	u2875
  7729  0A2F  3001               	movlw	1
  7730  0A30  00F2               	movwf	??___lldiv
  7731  0A31  0872               	movf	??___lldiv,w
  7732  0A32  07F7               	addwf	___lldiv@counter,f
  7733  0A33                     l2930:	
  7734  0A33  1FA3               	btfss	___lldiv@divisor+3,7
  7735  0A34  2A36               	goto	u2881
  7736  0A35  2A37               	goto	u2880
  7737  0A36                     u2881:	
  7738  0A36  2A26               	goto	l2928
  7739  0A37                     u2880:	
  7740  0A37                     l2932:	
  7741  0A37  3001               	movlw	1
  7742  0A38  00F2               	movwf	??___lldiv
  7743  0A39                     u2895:	
  7744  0A39  1003               	clrc
  7745  0A3A  0DF3               	rlf	___lldiv@quotient,f
  7746  0A3B  0DF4               	rlf	___lldiv@quotient+1,f
  7747  0A3C  0DF5               	rlf	___lldiv@quotient+2,f
  7748  0A3D  0DF6               	rlf	___lldiv@quotient+3,f
  7749  0A3E  0BF2               	decfsz	??___lldiv,f
  7750  0A3F  2A39               	goto	u2895
  7751  0A40                     l2934:	
  7752  0A40  0823               	movf	___lldiv@divisor+3,w
  7753  0A41  0227               	subwf	___lldiv@dividend+3,w
  7754  0A42  1D03               	skipz
  7755  0A43  2A4E               	goto	u2905
  7756  0A44  0822               	movf	___lldiv@divisor+2,w
  7757  0A45  0226               	subwf	___lldiv@dividend+2,w
  7758  0A46  1D03               	skipz
  7759  0A47  2A4E               	goto	u2905
  7760  0A48  0821               	movf	___lldiv@divisor+1,w
  7761  0A49  0225               	subwf	___lldiv@dividend+1,w
  7762  0A4A  1D03               	skipz
  7763  0A4B  2A4E               	goto	u2905
  7764  0A4C  0820               	movf	___lldiv@divisor,w
  7765  0A4D  0224               	subwf	___lldiv@dividend,w
  7766  0A4E                     u2905:	
  7767  0A4E  1C03               	skipc
  7768  0A4F  2A51               	goto	u2901
  7769  0A50  2A52               	goto	u2900
  7770  0A51                     u2901:	
  7771  0A51  2A61               	goto	l2940
  7772  0A52                     u2900:	
  7773  0A52                     l2936:	
  7774  0A52  0820               	movf	___lldiv@divisor,w
  7775  0A53  02A4               	subwf	___lldiv@dividend,f
  7776  0A54  0821               	movf	___lldiv@divisor+1,w
  7777  0A55  1C03               	skipc
  7778  0A56  0F21               	incfsz	___lldiv@divisor+1,w
  7779  0A57  02A5               	subwf	___lldiv@dividend+1,f
  7780  0A58  0822               	movf	___lldiv@divisor+2,w
  7781  0A59  1C03               	skipc
  7782  0A5A  0F22               	incfsz	___lldiv@divisor+2,w
  7783  0A5B  02A6               	subwf	___lldiv@dividend+2,f
  7784  0A5C  0823               	movf	___lldiv@divisor+3,w
  7785  0A5D  1C03               	skipc
  7786  0A5E  0F23               	incfsz	___lldiv@divisor+3,w
  7787  0A5F  02A7               	subwf	___lldiv@dividend+3,f
  7788  0A60                     l2938:	
  7789  0A60  1473               	bsf	___lldiv@quotient,0
  7790  0A61                     l2940:	
  7791  0A61  3001               	movlw	1
  7792  0A62                     u2915:	
  7793  0A62  1003               	clrc
  7794  0A63  0CA3               	rrf	___lldiv@divisor+3,f
  7795  0A64  0CA2               	rrf	___lldiv@divisor+2,f
  7796  0A65  0CA1               	rrf	___lldiv@divisor+1,f
  7797  0A66  0CA0               	rrf	___lldiv@divisor,f
  7798  0A67  3EFF               	addlw	-1
  7799  0A68  1D03               	skipz
  7800  0A69  2A62               	goto	u2915
  7801  0A6A                     l2942:	
  7802  0A6A  3001               	movlw	1
  7803  0A6B  02F7               	subwf	___lldiv@counter,f
  7804  0A6C  1D03               	btfss	3,2
  7805  0A6D  2A6F               	goto	u2921
  7806  0A6E  2A70               	goto	u2920
  7807  0A6F                     u2921:	
  7808  0A6F  2A37               	goto	l2932
  7809  0A70                     u2920:	
  7810  0A70                     l2944:	
  7811  0A70  0876               	movf	___lldiv@quotient+3,w
  7812  0A71  00A3               	movwf	?___lldiv+3
  7813  0A72  0875               	movf	___lldiv@quotient+2,w
  7814  0A73  00A2               	movwf	?___lldiv+2
  7815  0A74  0874               	movf	___lldiv@quotient+1,w
  7816  0A75  00A1               	movwf	?___lldiv+1
  7817  0A76  0873               	movf	___lldiv@quotient,w
  7818  0A77  00A0               	movwf	?___lldiv
  7819  0A78                     l412:	
  7820  0A78  0008               	return
  7821  0A79                     __end_of___lldiv:	
  7822                           
  7823                           	psect	text37
  7824  178E                     __ptext37:	
  7825 ;; *************** function _isr *****************
  7826 ;; Defined at:
  7827 ;;		line 90 in file "Carcelero.c"
  7828 ;; Parameters:    Size  Location     Type
  7829 ;;		None
  7830 ;; Auto vars:     Size  Location     Type
  7831 ;;		None
  7832 ;; Return value:  Size  Location     Type
  7833 ;;                  1    wreg      void 
  7834 ;; Registers used:
  7835 ;;		wreg, status,2, status,0
  7836 ;; Tracked objects:
  7837 ;;		On entry : 0/0
  7838 ;;		On exit  : 0/0
  7839 ;;		Unchanged: 0/0
  7840 ;; Data sizes:     COMMON   BANK0   BANK1   BANK3   BANK2
  7841 ;;      Params:         0       0       0       0       0
  7842 ;;      Locals:         0       0       0       0       0
  7843 ;;      Temps:          2       0       0       0       0
  7844 ;;      Totals:         2       0       0       0       0
  7845 ;;Total ram usage:        2 bytes
  7846 ;; Hardware stack levels used:    1
  7847 ;; This function calls:
  7848 ;;		Nothing
  7849 ;; This function is called by:
  7850 ;;		Interrupt level 1
  7851 ;; This function uses a non-reentrant model
  7852 ;;
  7853                           
  7854                           
  7855                           ;psect for function _isr
  7856  178E                     _isr:	
  7857  178E                     i1l2694:	
  7858                           
  7859                           ;Carcelero.c: 92:      if(PIR1bits.TMR1IF == 1)
  7860  178E  1283               	bcf	3,5	;RP0=0, select bank0
  7861  178F  1303               	bcf	3,6	;RP1=0, select bank0
  7862  1790  1C0C               	btfss	12,0	;volatile
  7863  1791  2F93               	goto	u276_21
  7864  1792  2F94               	goto	u276_20
  7865  1793                     u276_21:	
  7866  1793  2FBF               	goto	i1l233
  7867  1794                     u276_20:	
  7868  1794                     i1l2696:	
  7869                           
  7870                           ;Carcelero.c: 93:      {;Carcelero.c: 94:         flanco ++;
  7871  1794  3001               	movlw	1
  7872  1795  1683               	bsf	3,5	;RP0=1, select bank1
  7873  1796  1303               	bcf	3,6	;RP1=0, select bank1
  7874  1797  07AA               	addwf	_flanco^(0+128),f
  7875  1798  1803               	skipnc
  7876  1799  0AAB               	incf	(_flanco+1)^(0+128),f
  7877  179A  3000               	movlw	0
  7878  179B  07AB               	addwf	(_flanco+1)^(0+128),f
  7879  179C                     i1l2698:	
  7880                           
  7881                           ;Carcelero.c: 95:         if (flanco == 2)
  7882  179C  3002               	movlw	2
  7883  179D  062A               	xorwf	_flanco^(0+128),w
  7884  179E  042B               	iorwf	(_flanco+1)^(0+128),w
  7885  179F  1D03               	btfss	3,2
  7886  17A0  2FA2               	goto	u277_21
  7887  17A1  2FA3               	goto	u277_20
  7888  17A2                     u277_21:	
  7889  17A2  2FA5               	goto	i1l2702
  7890  17A3                     u277_20:	
  7891  17A3                     i1l2700:	
  7892                           
  7893                           ;Carcelero.c: 96:         {;Carcelero.c: 97:             flanco = 0;
  7894  17A3  01AA               	clrf	_flanco^(0+128)
  7895  17A4  01AB               	clrf	(_flanco+1)^(0+128)
  7896  17A5                     i1l2702:	
  7897                           
  7898                           ;Carcelero.c: 99:         if (flanco == 1)
  7899  17A5  032A               	decf	_flanco^(0+128),w
  7900  17A6  042B               	iorwf	(_flanco+1)^(0+128),w
  7901  17A7  1D03               	btfss	3,2
  7902  17A8  2FAA               	goto	u278_21
  7903  17A9  2FAB               	goto	u278_20
  7904  17AA                     u278_21:	
  7905  17AA  2FAE               	goto	i1l2706
  7906  17AB                     u278_20:	
  7907  17AB                     i1l2704:	
  7908                           
  7909                           ;Carcelero.c: 100:         {;Carcelero.c: 101:             PORTDbits.RD1 = 1;
  7910  17AB  1283               	bcf	3,5	;RP0=0, select bank0
  7911  17AC  1303               	bcf	3,6	;RP1=0, select bank0
  7912  17AD  1488               	bsf	8,1	;volatile
  7913  17AE                     i1l2706:	
  7914                           
  7915                           ;Carcelero.c: 103:         if (flanco == 0)
  7916  17AE  1683               	bsf	3,5	;RP0=1, select bank1
  7917  17AF  1303               	bcf	3,6	;RP1=0, select bank1
  7918  17B0  082A               	movf	_flanco^(0+128),w
  7919  17B1  042B               	iorwf	(_flanco+1)^(0+128),w
  7920  17B2  1D03               	btfss	3,2
  7921  17B3  2FB5               	goto	u279_21
  7922  17B4  2FB6               	goto	u279_20
  7923  17B5                     u279_21:	
  7924  17B5  2FB9               	goto	i1l2710
  7925  17B6                     u279_20:	
  7926  17B6                     i1l2708:	
  7927                           
  7928                           ;Carcelero.c: 104:         {;Carcelero.c: 105:             PORTDbits.RD1 = 0;
  7929  17B6  1283               	bcf	3,5	;RP0=0, select bank0
  7930  17B7  1303               	bcf	3,6	;RP1=0, select bank0
  7931  17B8  1088               	bcf	8,1	;volatile
  7932  17B9                     i1l2710:	
  7933                           
  7934                           ;Carcelero.c: 109:         TMR1H = 0xE9;
  7935  17B9  30E9               	movlw	233
  7936  17BA  1283               	bcf	3,5	;RP0=0, select bank0
  7937  17BB  008F               	movwf	15	;volatile
  7938                           
  7939                           ;Carcelero.c: 110:         TMR1L = 0x28;
  7940  17BC  3028               	movlw	40
  7941  17BD  008E               	movwf	14	;volatile
  7942  17BE                     i1l2712:	
  7943                           
  7944                           ;Carcelero.c: 111:         PIR1bits.TMR1IF = 0;
  7945  17BE  100C               	bcf	12,0	;volatile
  7946  17BF                     i1l233:	
  7947  17BF  0871               	movf	??_isr+1,w
  7948  17C0  008A               	movwf	10
  7949  17C1  0E70               	swapf	??_isr^(0+4294967168),w
  7950  17C2  0083               	movwf	3
  7951  17C3  0EFE               	swapf	btemp,f
  7952  17C4  0E7E               	swapf	btemp,w
  7953  17C5  0009               	retfie
  7954  17C6                     __end_of_isr:	
  7955  007E                     btemp	set	126	;btemp
  7956  007E                     wtemp0	set	126
  7957                           
  7958                           	psect	intentry
  7959  0004                     __pintentry:	
  7960                           ;incstack = 0
  7961                           ; Regs used in _isr: [wreg+status,2+status,0]
  7962                           
  7963  0004                     interrupt_function:	
  7964  007E                     saved_w	set	btemp
  7965  0004  00FE               	movwf	btemp
  7966  0005  0E03               	swapf	3,w
  7967  0006  00F0               	movwf	??_isr
  7968  0007  080A               	movf	10,w
  7969  0008  00F1               	movwf	??_isr+1
  7970  0009  160A  118A  2F8E   	ljmp	_isr


Data Sizes:
    Strings     59
    Constant    10
    Data        20
    BSS         64
    Persistent  0
    Stack       0

Auto Spaces:
    Space          Size  Autos    Used
    COMMON           14      9      12
    BANK0            80     76      79
    BANK1            80      0      78
    BANK3            96      3       3
    BANK2            96      0       0

Pointer List with Targets:

    imprimir@texto	PTR const unsigned char  size(1) Largest target is 7
		 -> STR_22(CODE[3]), STR_21(CODE[3]), STR_20(CODE[2]), STR_19(CODE[6]), 
		 -> STR_18(CODE[2]), STR_17(CODE[5]), STR_16(CODE[6]), STR_15(CODE[3]), 
		 -> STR_14(CODE[3]), STR_13(CODE[5]), STR_12(CODE[2]), STR_11(CODE[2]), 
		 -> STR_10(CODE[2]), STR_9(CODE[2]), STR_8(CODE[4]), STR_7(CODE[3]), 
		 -> STR_6(CODE[3]), STR_5(CODE[4]), STR_4(CODE[7]), STR_3(CODE[7]), 
		 -> STR_2(CODE[7]), STR_1(CODE[7]), 


Critical Paths under _main in COMMON

    _main->_colocar
    _main->_read_RTC
    _write_RTC->_I2C_Master_Write
    _ultrasonico->___awmod
    _ultrasonico->_colocar
    _temperatura->___awmod
    _temperatura->_colocar
    ___fltol->___xxtofl
    ___flmul->__Umul8_16
    ___flmul->___xxtofl
    ___fldiv->___xxtofl
    _read_RTC->_I2C_Master_Read
    _luces->___awmod
    _luces->_colocar
    _iniciarLCD->_comando
    _humo->___awmod
    _humo->_colocar
    _celda->_colocar
    _colocar->_comando
    _borrarv->_comando
    _I2C_Master_Init->___lldiv

Critical Paths under _isr in COMMON

    None.

Critical Paths under _main in BANK0

    _main->_temperatura
    _ultrasonico->___awdiv
    _temperatura->___fltol
    ___fltol->___fldiv
    ___flmul->___xxtofl
    ___fldiv->___flmul
    _luces->___awdiv
    _humo->___awdiv
    _I2C_Master_Init->___lldiv

Critical Paths under _isr in BANK0

    None.

Critical Paths under _main in BANK1

    None.

Critical Paths under _isr in BANK1

    None.

Critical Paths under _main in BANK3

    None.

Critical Paths under _isr in BANK3

    None.

Critical Paths under _main in BANK2

    None.

Critical Paths under _isr in BANK2

    None.

Call Graph Tables:

 ---------------------------------------------------------------------------------
 (Depth) Function   	        Calls       Base Space   Used Autos Params    Refs
 ---------------------------------------------------------------------------------
 (0) _main                                                 3     3      0   45678
                                              0 BANK3      3     3      0
                    _I2C_Master_Init
                    _I2C_Master_Read
                   _I2C_Master_Start
                    _I2C_Master_Stop
                   _I2C_Master_Write
                                _LSB
                                _MSB
                         _UARTenvINT
                            _borrarv
                              _celda
                            _colocar
                               _humo
                           _imprimir
                         _iniciarLCD
                         _iniciarOSC
                        _iniciarUART
                         _initTimer1
                              _luces
                            _mostrar
                           _read_RTC
                              _setup
                              _shift
                        _temperatura
                        _ultrasonico
                          _write_RTC
 ---------------------------------------------------------------------------------
 (1) _write_RTC                                            0     0      0    1314
                   _I2C_Master_Start
                    _I2C_Master_Stop
                   _I2C_Master_Write
 ---------------------------------------------------------------------------------
 (1) _ultrasonico                                          2     2      0    6871
                                              4 BANK0      2     2      0
                            ___awdiv
                            ___awmod
                            _colocar
                           _imprimir
                            _mostrar
 ---------------------------------------------------------------------------------
 (1) _temperatura                                          5     5      0   11674
                                             71 BANK0      5     5      0
                            ___awdiv
                            ___awmod
                            ___fldiv
                            ___flmul
                            ___fltol
                           ___xxtofl
                            _colocar
                            _mostrar
 ---------------------------------------------------------------------------------
 (2) ___xxtofl                                            14    10      4     566
                                              2 COMMON     4     0      4
                                              0 BANK0     10    10      0
 ---------------------------------------------------------------------------------
 (2) ___fltol                                             11     7      4     427
                                              6 COMMON     2     2      0
                                             62 BANK0      9     5      4
                            ___fldiv (ARG)
                            ___flmul (ARG)
                           ___xxtofl (ARG)
 ---------------------------------------------------------------------------------
 (2) ___flmul                                             26    18      8    3353
                                             10 BANK0     26    18      8
                          __Umul8_16
                           ___xxtofl (ARG)
 ---------------------------------------------------------------------------------
 (3) __Umul8_16                                            9     7      2     980
                                              2 COMMON     4     2      2
                                              0 BANK0      5     5      0
 ---------------------------------------------------------------------------------
 (2) ___fldiv                                             26    18      8    1273
                                             36 BANK0     26    18      8
                            ___flmul (ARG)
                           ___xxtofl (ARG)
 ---------------------------------------------------------------------------------
 (1) _shift                                                1     1      0       0
                                              2 COMMON     1     1      0
 ---------------------------------------------------------------------------------
 (1) _setup                                                0     0      0       0
 ---------------------------------------------------------------------------------
 (1) _read_RTC                                             3     3      0    1846
                                              8 COMMON     1     1      0
                                              0 BANK0      2     2      0
                    _I2C_Master_Read
           _I2C_Master_RepeatedStart
                   _I2C_Master_Start
                    _I2C_Master_Stop
                   _I2C_Master_Write
 ---------------------------------------------------------------------------------
 (2) _I2C_Master_Write                                     2     0      2    1314
                                              2 COMMON     2     0      2
                    _I2C_Master_Wait
 ---------------------------------------------------------------------------------
 (2) _I2C_Master_Stop                                      0     0      0       0
                    _I2C_Master_Wait
 ---------------------------------------------------------------------------------
 (2) _I2C_Master_Start                                     0     0      0       0
                    _I2C_Master_Wait
 ---------------------------------------------------------------------------------
 (2) _I2C_Master_RepeatedStart                             0     0      0       0
                    _I2C_Master_Wait
 ---------------------------------------------------------------------------------
 (2) _I2C_Master_Read                                      6     4      2     501
                                              2 COMMON     6     4      2
                    _I2C_Master_Wait
 ---------------------------------------------------------------------------------
 (3) _I2C_Master_Wait                                      0     0      0       0
 ---------------------------------------------------------------------------------
 (1) _luces                                                2     2      0    6871
                                              4 BANK0      2     2      0
                            ___awdiv
                            ___awmod
                            _colocar
                           _imprimir
                            _mostrar
 ---------------------------------------------------------------------------------
 (1) _initTimer1                                           0     0      0       0
 ---------------------------------------------------------------------------------
 (1) _iniciarUART                                          0     0      0       0
 ---------------------------------------------------------------------------------
 (1) _iniciarOSC                                           3     3      0      22
                                              2 COMMON     3     3      0
 ---------------------------------------------------------------------------------
 (1) _iniciarLCD                                           2     2      0      22
                                              5 COMMON     2     2      0
                            _comando
 ---------------------------------------------------------------------------------
 (1) _humo                                                 2     2      0    6871
                                              4 BANK0      2     2      0
                            ___awdiv
                            ___awmod
                            _colocar
                           _imprimir
                            _mostrar
 ---------------------------------------------------------------------------------
 (2) _mostrar                                              3     3      0      22
                                              2 COMMON     3     3      0
 ---------------------------------------------------------------------------------
 (2) ___awmod                                              7     3      4    1360
                                              2 COMMON     7     3      4
 ---------------------------------------------------------------------------------
 (2) ___awdiv                                              9     5      4    1705
                                              2 COMMON     5     1      4
                                              0 BANK0      4     4      0
 ---------------------------------------------------------------------------------
 (1) _celda                                                2     2      0    3784
                                              0 BANK0      2     2      0
                            _colocar
                           _imprimir
 ---------------------------------------------------------------------------------
 (3) _imprimir                                             5     5      0     816
                                              2 COMMON     5     5      0
 ---------------------------------------------------------------------------------
 (2) _colocar                                              4     3      1    2968
                                              5 COMMON     4     3      1
                            _comando
 ---------------------------------------------------------------------------------
 (1) _borrarv                                              0     0      0      22
                            _comando
 ---------------------------------------------------------------------------------
 (3) _comando                                              3     3      0      22
                                              2 COMMON     3     3      0
 ---------------------------------------------------------------------------------
 (1) _UARTenvINT                                           2     0      2     174
                                              2 COMMON     2     0      2
 ---------------------------------------------------------------------------------
 (1) _MSB                                                  2     2      0      22
                                              2 COMMON     2     2      0
 ---------------------------------------------------------------------------------
 (1) _LSB                                                  1     1      0      22
                                              2 COMMON     1     1      0
 ---------------------------------------------------------------------------------
 (1) _I2C_Master_Init                                      8     4      4     542
                                              8 BANK0      8     4      4
                            ___lldiv
 ---------------------------------------------------------------------------------
 (2) ___lldiv                                             14     6      8     421
                                              2 COMMON     6     6      0
                                              0 BANK0      8     0      8
 ---------------------------------------------------------------------------------
 Estimated maximum stack depth 3
 ---------------------------------------------------------------------------------
 (Depth) Function   	        Calls       Base Space   Used Autos Params    Refs
 ---------------------------------------------------------------------------------
 (4) _isr                                                  2     2      0       0
                                              0 COMMON     2     2      0
 ---------------------------------------------------------------------------------
 Estimated maximum stack depth 4
 ---------------------------------------------------------------------------------

 Call Graph Graphs:

 _main (ROOT)
   _I2C_Master_Init
     ___lldiv
   _I2C_Master_Read
     _I2C_Master_Wait
   _I2C_Master_Start
     _I2C_Master_Wait
   _I2C_Master_Stop
     _I2C_Master_Wait
   _I2C_Master_Write
     _I2C_Master_Wait
   _LSB
   _MSB
   _UARTenvINT
   _borrarv
     _comando
   _celda
     _colocar
       _comando
     _imprimir
   _colocar
     _comando
   _humo
     ___awdiv
     ___awmod
     _colocar
       _comando
     _imprimir
     _mostrar
   _imprimir
   _iniciarLCD
     _comando
   _iniciarOSC
   _iniciarUART
   _initTimer1
   _luces
     ___awdiv
     ___awmod
     _colocar
       _comando
     _imprimir
     _mostrar
   _mostrar
   _read_RTC
     _I2C_Master_Read
       _I2C_Master_Wait
     _I2C_Master_RepeatedStart
       _I2C_Master_Wait
     _I2C_Master_Start
       _I2C_Master_Wait
     _I2C_Master_Stop
       _I2C_Master_Wait
     _I2C_Master_Write
       _I2C_Master_Wait
   _setup
   _shift
   _temperatura
     ___awdiv
     ___awmod
     ___fldiv
       ___flmul (ARG)
         __Umul8_16
         ___xxtofl (ARG)
       ___xxtofl (ARG)
     ___flmul
       __Umul8_16
       ___xxtofl (ARG)
     ___fltol
       ___fldiv (ARG)
         ___flmul (ARG)
           __Umul8_16
           ___xxtofl (ARG)
         ___xxtofl (ARG)
       ___flmul (ARG)
         __Umul8_16
         ___xxtofl (ARG)
       ___xxtofl (ARG)
     ___xxtofl
     _colocar
       _comando
     _mostrar
   _ultrasonico
     ___awdiv
     ___awmod
     _colocar
       _comando
     _imprimir
     _mostrar
   _write_RTC
     _I2C_Master_Start
       _I2C_Master_Wait
     _I2C_Master_Stop
       _I2C_Master_Wait
     _I2C_Master_Write
       _I2C_Master_Wait

 _isr (ROOT)

 Address spaces:
Name               Size   Autos  Total    Cost      Usage
BANK3               60      3       3       9        3.1%
BITBANK3            60      0       0       8        0.0%
SFR3                 0      0       0       4        0.0%
BITSFR3              0      0       0       4        0.0%
BANK2               60      0       0      11        0.0%
BITBANK2            60      0       0      10        0.0%
SFR2                 0      0       0       5        0.0%
BITSFR2              0      0       0       5        0.0%
BANK1               50      0      4E       7       97.5%
BITBANK1            50      0       0       6        0.0%
SFR1                 0      0       0       2        0.0%
BITSFR1              0      0       0       2        0.0%
BANK0               50     4C      4F       5       98.8%
BITBANK0            50      0       0       4        0.0%
SFR0                 0      0       0       1        0.0%
BITSFR0              0      0       0       1        0.0%
COMMON               E      9       C       1       85.7%
BITCOMMON            E      0       0       0        0.0%
CODE                 0      0       0       0        0.0%
DATA                 0      0      AC      12        0.0%
ABS                  0      0      AC       3        0.0%
NULL                 0      0       0       0        0.0%
STACK                0      0       0       2        0.0%
EEDATA             100      0       0       0        0.0%


Microchip Technology PIC Macro Assembler V2.10 build 88905656 
Symbol Table                                                                                   Mon May 11 00:54:11 2020

                     ___fldiv@aexp 005D                       ___fldiv@bexp 005C  
                                _a 1006                                  _b 00A0  
                                _i 00BA                                  _t 00C2  
                                _w 00CA                                  _y 00D6  
                                _z 00CE                                  pc 0002  
                     ___fldiv@sign 0055                        __CFG_CP$OFF 0000  
                               l82 1621                                 l91 15ED  
                               l85 162D                                 l94 15FF  
                               l79 17FF                                 l88 15F6  
                               l97 1609                       ___awdiv@sign 0021  
                               _t1 00C0                                 _t2 00BE  
                               _t3 00BC                                 _v1 00D9  
                               _w1 00C8                                 _w2 00C6  
                               _w3 00C4                                 _y1 00D4  
                               _y2 00D2                                 _y3 00D0  
                               _z1 00CC                                 _ap 00AC  
                               _hr 00AE                                 fsr 0004  
              __Umul8_16@word_mpld 0022                                l100 1754  
                              l101 1757                                l102 175C  
                              l111 1651                                l120 1780  
                              l105 168B                                l121 1761  
                              l123 178D                                l108 0897  
                              l117 1705                                l126 169F  
                              l134 09AB                                l143 09AC  
                              l152 1614                                l129 163E  
                              l146 16E1                                l243 0D27  
                              l412 0A78                                l236 0E14  
                              l149 160A                                l253 0796  
                              l262 1664                                l238 0E22  
                              l270 058A                                l248 0B91  
                              l281 094B                                l290 16C8  
                              l259 0A10                                l284 1620  
                              l542 08F0                                l278 0843  
                              l287 15DC                                l529 07FF  
                              l562 0AF4                                l803 0BB6  
                              l572 0AF4                                l741 0F71  
                              l725 0E7F                                l805 0C4D  
                              l822 171C                                l727 0FFF  
                              l824 172E                                l816 0C17  
                              l569 0ADF                                l817 0C23  
                              l809 0BFB                                l747 0FE3  
                              l771 02FB                                l749 0FF3  
                              l765 038F                                l777 0383  
                              _LSB 15D8                       __CFG_CPD$OFF 0000  
                              _MSB 1615                                _Luz 007B  
                              _dat 00B6                                _isr 178E  
                              fsr0 0004                                indf 0000  
                     ___awmod@sign 0078                       ___flmul@aexp 0038  
                     ___flmul@bexp 003D                        colocar@temp 0078  
                     ___flmul@sign 0037                       ___flmul@temp 0042  
                     ___flmul@prod 003E                       __CFG_LVP$OFF 0000  
                             ?_LSB 0070                               ?_MSB 0070  
                             LSB@x 0072                               MSB@x 0073  
                     ___fltol@exp1 0077                               l2200 0EF6  
                             l3000 0AA4                               l2202 0EFF  
                             l2210 0F24                               l2130 0E2A  
                             l3002 0AA5                               l2060 08A2  
                             l2220 0F41                               l2212 0F2A  
                             l2204 0F11                               l2140 0E3F  
                             l2132 0E30                               l3100 01EF  
                             l3004 0AAD                               l2070 08B6  
                             l2062 08A4                               l2054 0898  
                             l2230 0F56                               l2222 0F42  
                             l2214 0F32                               l2206 0F12  
                             l2150 0E57                               l2142 0E47  
                             l2134 0E34                               l3110 02A7  
                             l3102 021C                               l3030 0036  
                             l3022 0AD4                               l3014 0ABB  
                             l3006 0AAF                               l2080 08D5  
                             l2072 08BD                               l2064 08A8  
                             l2056 0899                               l2240 0F7B  
                             l2232 0F5A                               l2224 0F4B  
                             l2216 0F34                               l2208 0F20  
                             l2160 0E6C                               l2152 0E5D  
                             l2144 0E48                               l2136 0E35  
                             l2128 0E23                               l3120 02CC  
                             l3112 02B0                               l3104 022C  
                             l3040 004B                               l3032 003C  
                             l3024 0AE4                               l3008 0AB3  
                             l3016 0ACD                               l3200 0C25  
                             l2082 08DC                               l2074 08C1  
                             l2066 08AD                               l2058 089D  
                             l2250 0FB9                               l2242 0F89  
                             l2234 0F6E                               l2218 0F3D  
                             l2226 0F51                               l2170 0E93  
                             l2162 0E74                               l2154 0E61  
                             l2138 0E3A                               l2146 0E4A  
                             l3130 02E4                               l3122 02D5  
                             l3114 02BE                               l3106 0259  
                             l3050 0068                               l3042 0053  
                             l3034 0040                               l3026 0AE9  
                             l3202 0C3B                               l3220 17FD  
                             l3212 17C6                               l2076 08C5  
                             l2068 08B3                               l2084 08E2  
                             l2500 094D                               l3300 0706  
                             l2260 0FE9                               l2252 0FC7  
                             l2244 0F8D                               l2228 0F55  
                             l2172 0E97                               l2164 0E75  
                             l2156 0E62                               l2148 0E52  
                             l3140 0313                               l3132 02F8  
                             l3116 02C7                               l3124 02DB  
                             l3108 027F                               l3060 007F  
                             l3052 006C                               l3044 0055  
                             l3036 0041                               l3028 002F  
                             l3204 0C40                               l3222 17FE  
                             l3214 17CA                               l2086 08E7  
                             l2078 08CF                               l2510 0968  
                             l2502 094E                               l3310 074E  
                             l3302 0721                               l2262 0FED  
                             l2254 0FD6                               l2246 0FA6  
                             l2238 0F76                               l2190 0ED8  
                             l2182 0EAE                               l2158 0E67  
                             l2166 0E77                               l3150 034E  
                             l3142 0317                               l3126 02DF  
                             l3118 02CB                               l3062 0081  
                             l3054 006D                               l3046 005D  
                             l3038 0046                               l3206 0C44  
                             l3230 0DAE                               l3216 17CD  
                             l2088 08EC                               l2512 096F  
                             l2504 0953                               l3320 0774  
                             l3312 0754                               l3304 072D  
                             l2264 0FEF                               l2256 0FDA  
                             l2248 0FAC                               l2192 0EDA  
                             l2184 0EC0                               l2168 0E87  
                             l2176 0EA0                               l3160 037B  
                             l3152 035D                               l3144 0330  
                             l3136 0300                               l3128 02E0  
                             l3080 00F2                               l3072 009C  
                             l3064 0089                               l3056 0072  
                             l3048 0062                               l3208 0C45  
                             l3240 0DFB                               l3232 0DC1  
                             l3224 0D28                               l3400 0436  
                             l3218 17FC                               l3330 09BE  
                             l3250 0CAC                               l2514 0976  
                             l2506 095A                               l2522 0989  
                             l2530 16D6                               l3322 0786  
                             l3314 0762                               l3306 073C  
                             l2258 0FE2                               l2194 0EDF  
                             l2186 0EC8                               l2178 0EA5  
                             l3162 037C                               l3154 0367  
                             l3138 0305                               l3146 0336  
                             l3090 016F                               l3082 011E  
                             l3074 00AC                               l3066 008E  
                             l3058 0077                               l3170 0B9A  
                             l3242 0E0A                               l3234 0DD4  
                             l3226 0D80                               l3410 045E  
                             l3402 0442                               l2540 1610  
                             l1900 1679                               l3340 09E8  
                             l3332 09C4                               l3260 0CEF  
                             l3252 0CBB                               l2516 097D  
                             l2508 0961                               l2532 16DA  
                             l3324 0789                               l3308 0742  
                             l3316 0766                               l2196 0EF1  
                             l2188 0ED0                               l3164 0387  
                             l3156 0369                               l3148 0343  
                             l3092 018C                               l3084 013A  
                             l3076 00B9                               l3068 0093  
                             l3180 0BC7                               l3172 0B9E  
                             l3244 0E12                               l3236 0DE0  
                             l3228 0D96                               l3500 05EF  
                             l3420 047B                               l3412 0464  
                             l3404 0448                               l1902 167C  
                             l3342 09EE                               l3334 09C7  
                             l3326 09AD                               l3270 0D17  
                             l3262 0CFB                               l3254 0CD2  
                             l2470 084D                               l2518 0982  
                             l2534 16DB                               l3318 076E  
                             l3350 0840                               l2198 0EF5  
                             l3158 0377                               l3094 019C  
                             l3086 0156                               l3078 00D6  
                             l3190 0BF2                               l3182 0BCC  
                             l3174 0BAE                               l3246 0E15  
                             l3238 0DEF                               l3510 0623  
                             l3502 05FB                               l3430 04A6  
                             l3422 0489                               l3414 0469  
                             l3406 0450                               l1904 167E  
                             l3344 09F1                               l3328 09B4  
                             l3336 09D8                               l3272 0D1A  
                             l3264 0D01                               l3256 0CDA  
                             l3248 0C4E                               l2480 0879  
                             l2472 0856                               l2536 16DE  
                             l2528 16C9                               l3096 01B9  
                             l3088 015F                               l3192 0C02  
                             l3184 0BD9                               l3176 0BBE  
                             l3168 0B95                               l3280 0B53  
                             l3520 0664                               l3512 062B  
                             l3504 0603                               l3440 04D3  
                             l3432 04B6                               l3424 048E  
                             l3416 046D                               l3408 0456  
                             l3360 03A0                               l2538 160A  
                             l1906 1688                               l2490 163F  
                             l3338 09DE                               l3346 0A01  
                             l3266 0D05                               l3258 0CE9  
                             l2482 087F                               l2474 0865  
                             l2466 0844                               l1922 15EE  
                             l1930 15F7                               l3098 01D2  
                             l3194 0C0D                               l3186 0BE0  
                             l3290 0B7B                               l3282 0B59  
                             l3274 0AF5                               l3522 0678  
                             l3514 0637                               l3506 060F  
                             l3450 04FE                               l3442 04E1  
                             l3434 04BB                               l3426 0498  
                             l3418 0472                               l3370 03C6  
                             l3362 03A5                               l3354 0390  
                             l3268 0D11                               l2484 0885  
                             l2476 086B                               l2468 0847  
                             l1940 1734                               l1924 15F3  
                             l1932 15FC                               l3348 0803  
                             l2492 162E                               l3196 0C11  
                             l3188 0BE4                               l3292 0B81  
                             l3284 0B65                               l3276 0B2D  
                             l3524 0682                               l3516 063F  
                             l3508 0617                               l3460 0529  
                             l3452 050C                               l3444 04E6  
                             l3436 04C5                               l3428 049D  
                             l3380 03E8                               l3372 03CC  
                             l3364 03B4                               l3356 0396  
                             l2486 088B                               l2478 0875  
                             l3550 0991                               l1950 1758  
                             l1942 173C                               l1926 15E5  
                             l1934 1600                               l2670 165C  
                             l2494 1631                               l2910 1709  
                             l3198 0C1B                               l3294 0B84  
                             l3286 0B6B                               l3278 0B3C  
                             l3526 068A                               l3518 065A  
                             l3470 0552                               l3462 0539  
                             l3454 0511                               l3446 04F0  
                             l3438 04CA                               l3390 0410  
                             l3382 03F0                               l3374 03D4  
                             l3366 03B9                               l3358 039B  
                             l1960 16F4                               l2488 0891  
                             l3296 0695                               l1944 1745  
                             l1928 15EA                               l1936 1605  
                             l2672 165D                               l2496 1633  
                             l2920 172A                               l2912 170B  
                             l3288 0B6F                               l3480 056E  
                             l3472 0557                               l3464 053E  
                             l3456 051B                               l3448 04F5  
                             l3392 0416                               l3384 03F6  
                             l3376 03DA                               l3368 03BE  
                             l2930 0A33                               l2690 15D9  
                             l1962 16FA                               l1954 16E3  
                             l1970 176D                               l3298 06F7  
                             l1946 174A                               l1938 172F  
                             l2666 1652                               l2498 163B  
                             l2914 1712                               l2674 08F1  
                             l3490 05B5                               l3482 057E  
                             l3474 055C                               l3466 0548  
                             l3458 0520                               l3394 0422  
                             l3386 03FE                               l3378 03E2  
                             l2940 0A61                               l2932 0A37  
                             l2924 0A11                               l1964 16FF  
                             l1956 16E8                               l1972 176E  
                             l1980 1690                               l2676 16B4  
                             l1948 1750                               l2668 165B  
                             l2916 1716                               l3492 05BB  
                             l3484 0585                               l3476 0561  
                             l3468 054D                               l3396 0428  
                             l3388 0404                               l2942 0A6A  
                             l2934 0A40                               l2926 0A23  
                             l2686 1616                               l1958 16ED  
                             l1974 1777                               l1966 175E  
                             l2950 079A                               l1982 1692  
                             l2678 16C2                               l2918 1725  
                             l3494 05C8                               l3478 056A  
                             l3398 0430                               l2936 0A52  
                             l2928 0A26                               l2944 0A70  
                             l1976 177A                               l1968 1764  
                             l2960 07AE                               l2952 079E  
                             l1984 169C                               l1896 1621  
                             l3496 05D5                               l3488 058D  
                             l2938 0A60                               l2970 07C4  
                             l2962 07B2                               l2954 07A3  
                             l1978 168D                               l1898 1627  
                             l3498 05E2                               l2980 07E4  
                             l2972 07C8                               l2964 07B4  
                             l2956 07A5                               l2948 0797  
                             l2982 07EB                               l2974 07CC  
                             l2966 07BA                               l2958 07A9  
                             l2976 07DD                               l2968 07BD  
                             l2984 07F1                               l2992 0A79  
                             l2986 07F6                               l2978 07E3  
                             l2994 0A86                               l2988 07FB  
                             l2998 0A8F                               ?_isr 0070  
                             STR_1 1017                               STR_2 1010  
                             STR_3 1017                               STR_4 1010  
                             STR_5 1013                               STR_6 103E  
                             STR_7 1014                               STR_8 1034  
                             STR_9 1015                               u2000 0F11  
                             u2001 0F10                               u2010 0F2A  
                             u2011 0F29                               u2100 0F7B  
                             u2020 0F32                               u2101 0F7A  
                             u2021 0F31                               u2005 0F0D  
                             u2110 0F8D                               u2111 0F8C  
                             u2120 0F9C                               u2040 0F41  
                             u2041 0F40                               u3010 07F1  
                             u2130 0FB9                               u3011 07F0  
                             u2131 0FB8                               u2035 0F36  
                             u1500 178D                               u3020 07F6  
                             u1420 1627                               u2140 0FD6  
                             u2060 0F55                               u1501 178C  
                             u3021 07F5                               u3005 07E5  
                             u1421 1626                               u2141 0FD5  
                             u2125 0F97                               u2061 0F54  
                             u1430 162D                               u2150 0FED  
                             u2070 0F5A                               u3110 0AE4  
                             u3030 0A86                               u1431 162C  
                             u2151 0FEC                               u2135 0FB5  
                             u2071 0F59                               u2055 0F44  
                             u3111 0AE3                               u3031 0A85  
                             u2080 0F6E                               u3200 0093  
                             u3120 0AE9                               u3040 0A9D  
                             u2145 0FD2                               u2081 0F6D  
                             u3201 0092                               u3121 0AE8  
                             u3105 0AD6                               u2090 0F75  
                             u3130 0040                               u3050 0AB3  
                             u2091 0F74                               u3211 00E4  
                             u3131 003F                               u3051 0AB2  
                             u1700 08B3                               u3212 00EB  
                             u3140 0046                               u3060 0ABA  
                             u1701 08B2                               u3301 020E  
                             u3221 0100                               u3213 00F2  
                             u3141 0045                               u3061 0AB9  
                             u3045 0A98                               u1470 1750  
                             u3302 0215                               u3222 0107  
                             u3150 004B                               u1471 174F  
                             u3311 023B                               u3303 021C  
                             u3231 012C                               u3223 010E  
                             u3151 004A                               u1480 16E8  
                             u1720 08C5                               u3400 02DF  
                             u3320 0265                               u3312 0242  
                             u3232 0133                               u3160 006C  
                             u3080 0ACC                               u1481 16E7  
                             u1721 08C4                               u3401 02DE  
                             u3313 0249                               u3241 0148  
                             u3233 013A                               u3161 006B  
                             u3081 0ACB                               u1490 16FA  
                             u1730 08CF                               u3410 02E4  
                             u3242 014F                               u3170 0072  
                             u3090 0AD3                               u1491 16F9  
                             u1731 08CE                               u1715 08B7  
                             u3411 02E3                               u3331 0271  
                             u3243 0156                               u3171 0071  
                             u3091 0AD2                               u3075 0ABC  
                             u1900 0E61                               u3420 02F8  
                             u3340 028D                               u3332 0278  
                             u3180 0077                               u3500 0B9A  
                             u1901 0E60                               u3421 02F7  
                             u3333 027F                               u3325 0260  
                             u3261 017E                               u3181 0076  
                             u3501 0B99                               u1750 08E2  
                             u1910 0E67                               u3430 02FF  
                             u3262 0185                               u3190 008E  
                             u3510 0B9E                               u1751 08E1  
                             u1735 08CB                               u1911 0E66  
                             u3431 02FE                               u3351 0299  
                             u3271 01AB                               u3263 018C  
                             u3255 0158                               u3191 008D  
                             u3511 0B9D                               u1760 08E7  
                             u1680 089D                               u1920 0E6C  
                             u3440 0305                               u3352 02A0  
                             u3272 01B2                               u3600 0C1B  
                             u3520 0BBE                               u1761 08E6  
                             u1745 08D6                               u1681 089C  
                             u1921 0E6B                               u3441 0304  
                             u3353 02A7                               u3345 0288  
                             u3273 01B9                               u3601 0C1A  
                             u3521 0BBD                               u1690 08A8  
                             u1930 0E87                               u3450 0317  
                             u3610 0C30                               u1691 08A7  
                             u1931 0E86                               u3451 0316  
                             u3291 01E1                               u2900 0A52  
                             u3700 09DE                               u1940 0EA5  
                             u3460 0326                               u3380 02CB  
                             u3292 01E8                               u3620 0C40  
                             u3540 0BDF                               u2901 0A51  
                             u3701 09DD                               u1941 0EA4  
                             u3381 02CA                               u3365 02A9  
                             u3293 01EF                               u3285 01BB  
                             u3621 0C3F                               u3541 0BDE  
                             u1950 0EDF                               u1870 0E34  
                             u2830 1716                               u3470 0343  
                             u3630 0C44                               u3710 056A  
                             u1951 0EDE                               u1871 0E33  
                             u2831 1715                               u3471 0342  
                             u3375 02C0                               u3631 0C43  
                             u3615 0C2B                               u3535 0BD1  
                             u3711 0569                               u2920 0A70  
                             u3640 17DD                               u2680 1610  
                             u1880 0E3A                               u3480 035D  
                             u3560 0C01                               u3720 0585  
                             u2921 0A6F                               u2905 0A4E  
                             u2681 160F                               u1881 0E39  
                             u3481 035C                               u3465 0321  
                             u3561 0C00                               u3721 0584  
                             u2930 079E                               u1890 0E3F  
                             u2850 172A                               u3490 037B  
                             u3650 0E12                               u3730 0691  
                             u2915 0A62                               u2755 1619  
                             u2931 079D                               u1891 0E3E  
                             u2851 1729                               u3491 037A  
                             u3475 033F                               u3395 02CE  
                             u3555 0BF3                               u3651 0E11  
                             u3731 0690                               u2860 0A23  
                             u2940 07A9                               u3660 0CEF  
                             u1980 0EF5                               u3580 0C11  
                             u2861 0A22                               u3645 17D8  
                             u2941 07A8                               u3661 0CEE  
                             u1981 0EF4                               u1965 0EE1  
                             u2845 171D                               u3485 0359  
                             u3581 0C10                               u2950 07BA  
                             u3590 0C17                               u3670 0B59  
                             u2951 07B9                               u1975 0EEA  
                             u3591 0C16                               u3575 0C06  
                             u3671 0B58                               u3807 0645  
                             u2880 0A37                               u3680 0742  
                             u2881 0A36                               u3681 0741  
                             u3817 0660                               u3690 09B4  
                             u2970 07CC                               u2875 0A28  
                             u3907 1683                               u3691 09B3  
                             u2971 07CB                               u1995 0EF8  
                             u3827 067E                               u3747 0494  
                             u2965 07BE                               u3837 1636  
                             u3757 04C1                               u2990 07DD  
                             u2895 0A39                               u2991 07DC  
                             u3847 0851                               u3767 04EC  
                             u2985 07CD                               u3857 0860  
                             u3777 0517                               u2995 07D9  
                             u3867 086D                               u3787 0544  
                             u3877 0877                               u3797 0576  
                             u3887 1697                               u3897 1772  
                             _Humo 0079                       __CFG_WRT$OFF 0000  
                             _Temp 006E                               _data 00B8  
                             _date 00DA   __end_of_I2C_Master_RepeatedStart 15EE  
                             _main 0390                               _hour 00B0  
                             _humo 0C4E                               _time 00E3  
                             btemp 007E                       ?_iniciarUART 0070  
                             start 000C                      __CFG_IESO$OFF 0000  
                  ___fldiv@new_exp 0056                        _ultrasonico 0AF5  
                            ??_LSB 0072                              ??_MSB 0072  
                            ??_isr 0070                   ?_I2C_Master_Init 0028  
                 ?_I2C_Master_Read 0072                   ?_I2C_Master_Wait 0070  
                 ?_I2C_Master_Stop 0070                      ___fltol@sign1 0076  
                            ?_main 0070                    __end_of___fldiv 1000  
                  __end_of___awdiv 0800                              ?_humo 0070  
                            STR_10 1049                              STR_11 1015  
                            STR_20 1039                              STR_12 1047  
                            STR_21 1041                              STR_13 102F  
                            STR_22 103B                              STR_14 1038  
                            STR_15 1044                              STR_16 1024  
                            STR_17 102A                      __CFG_WDTE$OFF 0000  
                            STR_18 103C                              STR_19 101E  
                  __end_of___awmod 08F1                    __end_of___flmul 0390  
                  __end_of___fltol 0AF5                              _ANSEL 0188  
                  __end_of___lldiv 0A79                    ___awdiv@divisor 0072  
                            i1l233 17BF                    ___awdiv@counter 0020  
                            _TMR1H 000F                              _TMR1L 000E  
                            _SPBRG 0099                              _PORTA 0005  
                            _PORTB 0006                              _PORTC 0007  
                            _PORTD 0008                              _TRISA 0085  
                            _TRISB 0086                              _TRISC 0087  
                            _TXREG 0019                     __CFG_FCMEN$OFF 0000  
                  __end_of_comando 168C                    __end_of_colocar 1706  
                  __end_of_borrarv 1652                              _celda 09AD  
                            _calor 006C                              _enter 00EC  
                      ?_UARTenvINT 0072                      imprimir@texto 0076  
                            _luces 0695                              _shift 162E  
                            _setup 1652                     __CFG_BOREN$OFF 0000  
                            pclath 000A                    __end_of_mostrar 16A0  
                            status 0003                              wtemp0 007E  
                   __CFG_MCLRE$OFF 0000                    __initialization 000F  
                     __end_of_main 0695                       __end_of_humo 0D28  
                           ??_main 0190                             ??_humo 0024  
                ?_I2C_Master_Start 0070                  ?_I2C_Master_Write 0072  
                           ?_celda 0070                 ??_I2C_Master_Start 0072  
               ??_I2C_Master_Write 0074                             ?_luces 0070  
                 ___awdiv@dividend 0074                             ?_shift 0070  
                           ?_setup 0070                             _ANSELH 0189  
                           i1l2700 17A3                             i1l2710 17B9  
                           i1l2702 17A5                             i1l2712 17BE  
                           i1l2704 17AB                             i1l2706 17AE  
                           i1l2708 17B6                             i1l2694 178E  
                           i1l2696 1794                             i1l2698 179C  
                           u276_20 1794                             u276_21 1793  
                           u277_20 17A3                             u277_21 17A2  
                           u278_20 17AB                             u278_21 17AA  
                           u279_20 17B6                             u279_21 17B5  
                           _SPBRGH 009A                             _SSPADD 0093  
                           _SSPCON 0014                             _SSPBUF 0013  
                 __end_of___xxtofl 0C4E                     __CFG_PWRTE$OFF 0000  
         _I2C_Master_RepeatedStart 15E5                          ??___fldiv 004C  
                        ??___awdiv 0076                          ??___awmod 0076  
                        ??___flmul 0032                          ??___fltol 0062  
                        ??___lldiv 0072                             _flanco 00AA  
              __size_of_UARTenvINT 000B                     iniciarOSC@frec 0074  
                 __end_of_read_RTC 0844                             _grados 006D  
                 ___awdiv@quotient 0022                             _minute 00B2  
                  ___awmod@divisor 0072                   __end_of_imprimir 178E  
                           _sensor 00B4                    ___awmod@counter 0077  
                        ??_comando 0072                          ??_colocar 0076  
                     ?_temperatura 0070                          ??_borrarv 0075  
               __size_of__Umul8_16 0029                             saved_w 007E  
                        ??_mostrar 0072                       ___xxtofl@arg 0026  
                     ___xxtofl@exp 0025                       ___xxtofl@val 0072  
          __end_of__initialization 002B                         ___fltol@f1 005E  
             __size_of_iniciarUART 0019                     __pcstackCOMMON 0070  
                     __pidataBANK1 16A0                      __end_of_celda 0A11  
                    __end_of_luces 0797                      __end_of_shift 163F  
                    __end_of_setup 1665                            ??_celda 0020  
                          ??_luces 0024                            ??_shift 0072  
                          ??_setup 0072                         __pbssBANK0 006C  
                       __pbssBANK1 00A0                       ?_ultrasonico 0070  
                __end_of__Umul8_16 172F                         __pmaintext 0390  
                       __pintentry 0004                          ?___xxtofl 0072  
                     ??_UARTenvINT 0074                            _SSPCON2 0091  
                          _SSPSTAT 0094                         __stringtab 1000  
                        ?_read_RTC 0070                          ?_imprimir 0070  
               __size_of_write_RTC 005B                         _iniciarLCD 0844  
                       _iniciarOSC 094C                            ___fldiv 0E23  
                       _initTimer1 16B4                            ___awdiv 0797  
                          ___awmod 0898                            ___flmul 002F  
                          ___fltol 0A79                            ___lldiv 0A11  
               __end_of_UARTenvINT 1615                            __ptext1 08F1  
                          __ptext2 0AF5                            __ptext3 0D28  
                          __ptext4 0B92                            __ptext5 0A79  
                          __ptext6 002F                            __ptext7 1706  
                          __ptext8 0E23                            __ptext9 162E  
                          _comando 1678                            _colocar 16E2  
                          _borrarv 163F                       __size_of_LSB 0005  
                     __size_of_MSB 000C                          _T1CONbits 0010  
                     __size_of_isr 0038                         ??___xxtofl 0020  
                 ___awmod@dividend 0074               __size_of_temperatura 00FB  
         __size_of_I2C_Master_Init 003A           __size_of_I2C_Master_Read 002E  
         __size_of_I2C_Master_Wait 000D           __size_of_I2C_Master_Stop 0009  
                          _mostrar 168C                            clrloop0 15DE  
             end_of_initialization 002B         ??_I2C_Master_RepeatedStart 0072  
                       ??_read_RTC 0020                         ??_imprimir 0072  
        __size_of_I2C_Master_Start 0009          __size_of_I2C_Master_Write 000A  
                      UARTenvINT@x 0072                    ___lldiv@divisor 0020  
                  ___lldiv@counter 0077                          _RCSTAbits 0018  
                 I2C_Master_Init@c 0028                   I2C_Master_Read@a 0072  
                        _PORTAbits 0005                          _PORTDbits 0008  
                __end_of_write_RTC 094C                      ___xxtofl@sign 0024  
                        _TRISCbits 0087                          _TRISDbits 0088  
                      ___fldiv@grs 0058                        ___fldiv@rem 0051  
                      ___flmul@grs 0039                          _TXSTAbits 0098  
                      ?_iniciarLCD 0070                        ?_iniciarOSC 0070  
             __size_of_ultrasonico 009D                        ?_initTimer1 0070  
                      _BAUDCTLbits 0187                          _Distancia 007A  
              start_initialization 000F                        __end_of_LSB 15DD  
                      __end_of_MSB 1621                        __end_of_isr 17C6  
                ??_I2C_Master_Init 002C                  ??_I2C_Master_Read 0074  
                ??_I2C_Master_Wait 0072                  ??_I2C_Master_Stop 0072  
                    ??_iniciarUART 0072           __CFG_FOSC$INTRC_NOCLKOUT 0000  
                       init_fetch0 1665                          __Umul8_16 1706  
                      __pdataBANK1 00DA                          ___fldiv@a 0044  
                        ___fldiv@b 0048                          ___flmul@a 002E  
                        ___flmul@b 002A                        __pbssCOMMON 0079  
                        ___latbits 0002                      __pcstackBANK0 0020  
                    __pcstackBANK3 0190                __size_of_iniciarLCD 0054  
              __size_of_iniciarOSC 0061                  __size_of___xxtofl 00BC  
                        __end_of_a 1010                __size_of_initTimer1 0015  
                 _I2C_Master_Start 15EE                   _I2C_Master_Write 1600  
                __size_of_read_RTC 0042                  __size_of_imprimir 0031  
                         ?___fldiv 0044                           ?___awdiv 0072  
                         ?___awmod 0072                           ?___flmul 002A  
                         ?___fltol 005E                __end_of_iniciarUART 16E2  
                         ?___lldiv 0020                         ?__Umul8_16 0072  
                        __pstrings 1000                           ?_comando 0070  
                         ?_colocar 0075                          _i_stepper 00D8  
                         ?_borrarv 0070                           ?_mostrar 0070  
                   __size_of_celda 0064                     __size_of_luces 0102  
                   __size_of_shift 0011                     __size_of_setup 0013  
                interrupt_function 0004                          clear_ram0 15DD  
                         _PIE1bits 008C                           _PIR1bits 000C  
                      __stringbase 1005                      ??_temperatura 0067  
                        _write_RTC 08F1                I2C_Master_Read@temp 0076  
                      _iniciarUART 16C9                       ??_iniciarLCD 0075  
                     ??_iniciarOSC 0072                       ??_initTimer1 0072  
                      ??__Umul8_16 0074  __size_of_I2C_Master_RepeatedStart 0009  
                 __size_of___fldiv 01DD                   __size_of___awdiv 0069  
                 __size_of___awmod 0059                   __size_of___flmul 0361  
        ?_I2C_Master_RepeatedStart 0070                   __size_of___fltol 007C  
                 __size_of___lldiv 0068                 __end_of__stringtab 1006  
                        imprimir@i 0074                   __size_of_comando 0014  
                 __size_of_colocar 0024                   __size_of_borrarv 0013  
                  _I2C_Master_Init 17C6                    _I2C_Master_Read 172F  
                         ___xxtofl 0B92                    _I2C_Master_Wait 1621  
                  _I2C_Master_Stop 15F7                 __end_of_iniciarLCD 0898  
                         __ptext10 1652                           __ptext11 0802  
                         __ptext20 16C9                           __ptext12 1600  
                         __ptext21 094C                           __ptext13 15F7  
                         __ptext30 163F                           __ptext22 0844  
                         __ptext14 15EE                           __ptext31 1678  
                         __ptext23 0C4E                           __ptext15 15E5  
                         __ptext32 160A                           __ptext24 168C  
                         __ptext16 172F                           __ptext33 1615  
                         __ptext25 0898                           __ptext17 1621  
                         __ptext34 15D8                           __ptext26 0797  
                         __ptext18 0695                           __ptext35 17C6  
                         __ptext27 09AD                           __ptext19 16B4  
                         __ptext36 0A11                           __ptext28 175D  
                         __ptext37 178E                           __ptext29 16E2  
               __end_of_iniciarOSC 09AD                         ?_write_RTC 0070  
              __end_of_temperatura 0E23                  __CFG_BOR4V$BOR40V 0000  
                 __size_of_mostrar 0014                 __end_of_initTimer1 16C9  
                         _read_RTC 0802                      __size_of_main 0305  
                    __size_of_humo 00DA                           _imprimir 175D  
                    ??_ultrasonico 0024                           comando@x 0074  
                         colocar@x 0077                           colocar@y 0075  
         __end_of_I2C_Master_Start 15F7           __end_of_I2C_Master_Write 160A  
                       _INTCONbits 000B                           init_ram0 1669  
                         intlevel1 0000                   ___lldiv@dividend 0024  
                        stringcode 1000                         _OSCCONbits 008F  
                         mostrar@t 0074            __end_of_I2C_Master_Init 1800  
          __end_of_I2C_Master_Read 175D            __end_of_I2C_Master_Wait 162E  
              __end_of_ultrasonico 0B92            __end_of_I2C_Master_Stop 1600  
           __Umul8_16@multiplicand 0072                        _temperatura 0D28  
                  read_RTC@address 0078                   ___lldiv@quotient 0073  
                I2C_Master_Write@d 0072                           stringdir 1000  
                         stringtab 1000                        _SSPCON2bits 0091  
                      ??_write_RTC 0074                         _UARTenvINT 160A  
             __Umul8_16@multiplier 0024                  __Umul8_16@product 0020  
