

Microchip MPLAB XC8 Assembler V2.10 build 88905656 
                                                                                               Sun Mar 15 03:30:52 2020

Microchip MPLAB XC8 C Compiler v2.10 (Free license) build 20190730164152 Og1 
     1                           	processor	16F887
     2                           	opt	pw 120
     3                           	opt	flic
     4                           	psect	strings,global,class=STRING,delta=2
     5                           	psect	cinit,global,class=CODE,merge=1,delta=2
     6                           	psect	bssBANK0,global,class=BANK0,space=1,delta=1
     7                           	psect	bssBANK1,global,class=BANK1,space=1,delta=1
     8                           	psect	clrtext,global,class=CODE,delta=2
     9                           	psect	cstackCOMMON,global,class=COMMON,space=1,delta=1
    10                           	psect	cstackBANK0,global,class=BANK0,space=1,delta=1
    11                           	psect	maintext,global,class=CODE,split=1,delta=2
    12                           	psect	text1,local,class=CODE,merge=1,delta=2
    13                           	psect	text2,local,class=CODE,merge=1,delta=2
    14                           	psect	text3,local,class=CODE,merge=1,delta=2,group=1
    15                           	psect	text4,local,class=CODE,merge=1,delta=2
    16                           	psect	text5,local,class=CODE,merge=1,delta=2
    17                           	psect	text6,local,class=CODE,merge=1,delta=2
    18                           	psect	text7,local,class=CODE,merge=1,delta=2
    19                           	psect	text8,local,class=CODE,merge=1,delta=2
    20                           	psect	text9,local,class=CODE,merge=1,delta=2,group=1
    21                           	psect	text10,local,class=CODE,merge=1,delta=2,group=1
    22                           	psect	text11,local,class=CODE,merge=1,delta=2,group=1
    23                           	psect	text12,local,class=CODE,merge=1,delta=2,group=1
    24                           	psect	text13,local,class=CODE,merge=1,delta=2,group=1
    25                           	psect	text14,local,class=CODE,merge=1,delta=2
    26                           	psect	text15,local,class=CODE,merge=1,delta=2
    27                           	psect	text16,local,class=CODE,merge=1,delta=2
    28                           	psect	text17,local,class=CODE,merge=1,delta=2
    29                           	psect	text18,local,class=CODE,merge=1,delta=2
    30                           	psect	text19,local,class=CODE,merge=1,delta=2
    31                           	psect	text20,local,class=CODE,merge=1,delta=2
    32                           	psect	text21,local,class=CODE,merge=1,delta=2
    33                           	psect	text22,local,class=CODE,merge=1,delta=2
    34                           	psect	text23,local,class=CODE,merge=1,delta=2,group=1
    35                           	dabs	1,0x7E,2
    36  0000                     
    37                           ; Version 2.10
    38                           ; Generated 31/07/2019 GMT
    39                           ; 
    40                           ; Copyright © 2019, Microchip Technology Inc. and its subsidiaries ("Microchip")
    41                           ; All rights reserved.
    42                           ; 
    43                           ; This software is developed by Microchip Technology Inc. and its subsidiaries ("Microch
      +                          ip").
    44                           ; 
    45                           ; Redistribution and use in source and binary forms, with or without modification, are
    46                           ; permitted provided that the following conditions are met:
    47                           ; 
    48                           ;     1. Redistributions of source code must retain the above copyright notice, this lis
      +                          t of
    49                           ;        conditions and the following disclaimer.
    50                           ; 
    51                           ;     2. Redistributions in binary form must reproduce the above copyright notice, this 
      +                          list
    52                           ;        of conditions and the following disclaimer in the documentation and/or other
    53                           ;        materials provided with the distribution.
    54                           ; 
    55                           ;     3. Microchip's name may not be used to endorse or promote products derived from th
      +                          is
    56                           ;        software without specific prior written permission.
    57                           ; 
    58                           ; THIS SOFTWARE IS PROVIDED BY MICROCHIP "AS IS" AND ANY EXPRESS OR IMPLIED WARRANTIES,
    59                           ; INCLUDING, BUT NOT LIMITED TO, THE IMPLIED WARRANTIES OF MERCHANTABILITY AND FITNESS F
      +                          OR
    60                           ; PURPOSE ARE DISCLAIMED.  IN NO EVENT SHALL MICROCHIP BE LIABLE FOR ANY DIRECT, INDIREC
      +                          T,
    61                           ; INCIDENTAL, SPECIAL, EXEMPLARY, OR CONSEQUENTIAL DAMAGES (INCLUDING BUT NOT LIMITED TO
    62                           ; PROCUREMENT OF SUBSTITUTE GOODS OR SERVICES; LOSS OF USE, DATA OR PROFITS; OR BUSINESS
    63                           ; INTERRUPTION) HOWSOEVER CAUSED AND ON ANY THEORY OF LIABILITY, WHETHER IN CONTRACT, ST
      +                          RICT
    64                           ; LIABILITY, OR TORT (INCLUDING NEGLIGENCE OR OTHERWISE) ARISING IN ANY WAY OUT OF THE U
      +                          SE OF
    65                           ; THIS SOFTWARE, EVEN IF ADVISED OF THE POSSIBILITY OF SUCH DAMAGE.
    66                           ; 
    67                           ; 
    68                           ; Code-generator required, PIC16F887 Definitions
    69                           ; 
    70                           ; SFR Addresses
    71  0000                     	;# 
    72  0001                     	;# 
    73  0002                     	;# 
    74  0003                     	;# 
    75  0004                     	;# 
    76  0005                     	;# 
    77  0006                     	;# 
    78  0007                     	;# 
    79  0008                     	;# 
    80  0009                     	;# 
    81  000A                     	;# 
    82  000B                     	;# 
    83  000C                     	;# 
    84  000D                     	;# 
    85  000E                     	;# 
    86  000E                     	;# 
    87  000F                     	;# 
    88  0010                     	;# 
    89  0011                     	;# 
    90  0012                     	;# 
    91  0013                     	;# 
    92  0014                     	;# 
    93  0015                     	;# 
    94  0015                     	;# 
    95  0016                     	;# 
    96  0017                     	;# 
    97  0018                     	;# 
    98  0019                     	;# 
    99  001A                     	;# 
   100  001B                     	;# 
   101  001B                     	;# 
   102  001C                     	;# 
   103  001D                     	;# 
   104  001E                     	;# 
   105  001F                     	;# 
   106  0081                     	;# 
   107  0085                     	;# 
   108  0086                     	;# 
   109  0087                     	;# 
   110  0088                     	;# 
   111  0089                     	;# 
   112  008C                     	;# 
   113  008D                     	;# 
   114  008E                     	;# 
   115  008F                     	;# 
   116  0090                     	;# 
   117  0091                     	;# 
   118  0092                     	;# 
   119  0093                     	;# 
   120  0093                     	;# 
   121  0093                     	;# 
   122  0094                     	;# 
   123  0095                     	;# 
   124  0096                     	;# 
   125  0097                     	;# 
   126  0098                     	;# 
   127  0099                     	;# 
   128  009A                     	;# 
   129  009B                     	;# 
   130  009C                     	;# 
   131  009D                     	;# 
   132  009E                     	;# 
   133  009F                     	;# 
   134  0105                     	;# 
   135  0107                     	;# 
   136  0108                     	;# 
   137  0109                     	;# 
   138  010C                     	;# 
   139  010C                     	;# 
   140  010D                     	;# 
   141  010E                     	;# 
   142  010F                     	;# 
   143  0185                     	;# 
   144  0187                     	;# 
   145  0188                     	;# 
   146  0189                     	;# 
   147  018C                     	;# 
   148  018D                     	;# 
   149  0000                     	;# 
   150  0001                     	;# 
   151  0002                     	;# 
   152  0003                     	;# 
   153  0004                     	;# 
   154  0005                     	;# 
   155  0006                     	;# 
   156  0007                     	;# 
   157  0008                     	;# 
   158  0009                     	;# 
   159  000A                     	;# 
   160  000B                     	;# 
   161  000C                     	;# 
   162  000D                     	;# 
   163  000E                     	;# 
   164  000E                     	;# 
   165  000F                     	;# 
   166  0010                     	;# 
   167  0011                     	;# 
   168  0012                     	;# 
   169  0013                     	;# 
   170  0014                     	;# 
   171  0015                     	;# 
   172  0015                     	;# 
   173  0016                     	;# 
   174  0017                     	;# 
   175  0018                     	;# 
   176  0019                     	;# 
   177  001A                     	;# 
   178  001B                     	;# 
   179  001B                     	;# 
   180  001C                     	;# 
   181  001D                     	;# 
   182  001E                     	;# 
   183  001F                     	;# 
   184  0081                     	;# 
   185  0085                     	;# 
   186  0086                     	;# 
   187  0087                     	;# 
   188  0088                     	;# 
   189  0089                     	;# 
   190  008C                     	;# 
   191  008D                     	;# 
   192  008E                     	;# 
   193  008F                     	;# 
   194  0090                     	;# 
   195  0091                     	;# 
   196  0092                     	;# 
   197  0093                     	;# 
   198  0093                     	;# 
   199  0093                     	;# 
   200  0094                     	;# 
   201  0095                     	;# 
   202  0096                     	;# 
   203  0097                     	;# 
   204  0098                     	;# 
   205  0099                     	;# 
   206  009A                     	;# 
   207  009B                     	;# 
   208  009C                     	;# 
   209  009D                     	;# 
   210  009E                     	;# 
   211  009F                     	;# 
   212  0105                     	;# 
   213  0107                     	;# 
   214  0108                     	;# 
   215  0109                     	;# 
   216  010C                     	;# 
   217  010C                     	;# 
   218  010D                     	;# 
   219  010E                     	;# 
   220  010F                     	;# 
   221  0185                     	;# 
   222  0187                     	;# 
   223  0188                     	;# 
   224  0189                     	;# 
   225  018C                     	;# 
   226  018D                     	;# 
   227                           
   228                           	psect	strings
   229  0800                     __pstrings:	
   230  0800                     stringtab:	
   231  0800                     __stringtab:	
   232  0800                     stringcode:	
   233                           ;	String table - string pointers are 1 byte each
   234                           
   235  0800                     stringdir:	
   236  0800  3008               	movlw	high stringdir
   237  0801  008A               	movwf	10
   238  0802  0804               	movf	4,w
   239  0803  0A84               	incf	4,f
   240  0804  0782               	addwf	2,f
   241  0805                     __stringbase:	
   242  0805  3400               	retlw	0
   243  0806                     __end_of__stringtab:	
   244  0806                     _a:	
   245  0806  3430               	retlw	48
   246  0807  3431               	retlw	49
   247  0808  3432               	retlw	50
   248  0809  3433               	retlw	51
   249  080A  3434               	retlw	52
   250  080B  3435               	retlw	53
   251  080C  3436               	retlw	54
   252  080D  3437               	retlw	55
   253  080E  3438               	retlw	56
   254  080F  3439               	retlw	57
   255  0810                     __end_of_a:	
   256  0007                     _PORTC	set	7
   257  0005                     _PORTA	set	5
   258  0005                     _PORTAbits	set	5
   259  0006                     _PORTB	set	6
   260  0008                     _PORTDbits	set	8
   261  0013                     _SSPBUF	set	19
   262  0014                     _SSPCON	set	20
   263  0088                     _TRISDbits	set	136
   264  0086                     _TRISB	set	134
   265  0085                     _TRISAbits	set	133
   266  0085                     _TRISA	set	133
   267  008F                     _OSCCONbits	set	143
   268  0091                     _SSPCON2bits	set	145
   269  0087                     _TRISCbits	set	135
   270  0094                     _SSPSTAT	set	148
   271  0093                     _SSPADD	set	147
   272  0091                     _SSPCON2	set	145
   273  0189                     _ANSELH	set	393
   274  0188                     _ANSEL	set	392
   275  0810                     STR_1:	
   276  0810  3448               	retlw	72	;'H'
   277  0811  3475               	retlw	117	;'u'
   278  0812  346D               	retlw	109	;'m'
   279  0813  346F               	retlw	111	;'o'
   280  0814  3400               	retlw	0
   281  0815                     STR_3:	
   282  0815  3454               	retlw	84	;'T'
   283  0816  3465               	retlw	101	;'e'
   284  0817  346D               	retlw	109	;'m'
   285  0818  3470               	retlw	112	;'p'
   286  0819  3400               	retlw	0
   287  081A                     STR_2:	
   288  081A  344C               	retlw	76	;'L'
   289  081B  3475               	retlw	117	;'u'
   290  081C  347A               	retlw	122	;'z'
   291  081D  3400               	retlw	0
   292                           
   293                           ; #config settings
   294  0000                     
   295                           	psect	cinit
   296  07EF                     start_initialization:	
   297  07EF                     __initialization:	
   298                           
   299                           ; Clear objects allocated to BANK0
   300  07EF  1383               	bcf	3,7	;select IRP bank0
   301  07F0  3020               	movlw	low __pbssBANK0
   302  07F1  0084               	movwf	4
   303  07F2  304B               	movlw	low (__pbssBANK0+43)
   304  07F3  120A  158A  2592  120A  118A  	fcall	clear_ram0
   305                           
   306                           ; Clear objects allocated to BANK1
   307  07F8  1683               	bsf	3,5	;RP0=1, select bank1
   308  07F9  1303               	bcf	3,6	;RP1=0, select bank1
   309  07FA  01A0               	clrf	__pbssBANK1& (0+127)
   310  07FB  01A1               	clrf	(__pbssBANK1+1)& (0+127)
   311  07FC                     end_of_initialization:	
   312                           ;End of C runtime variable initialization code
   313                           
   314  07FC                     __end_of__initialization:	
   315  07FC  0183               	clrf	3
   316  07FD  120A  118A  2A77   	ljmp	_main	;jump to C main() function
   317                           
   318                           	psect	bssBANK0
   319  0020                     __pbssBANK0:	
   320  0020                     _Tempe:	
   321  0020                     	ds	4
   322  0024                     _estado2:	
   323  0024                     	ds	2
   324  0026                     _estado1:	
   325  0026                     	ds	2
   326  0028                     _z4:	
   327  0028                     	ds	2
   328  002A                     _z3:	
   329  002A                     	ds	2
   330  002C                     _z2:	
   331  002C                     	ds	2
   332  002E                     _z1:	
   333  002E                     	ds	2
   334  0030                     _z:	
   335  0030                     	ds	2
   336  0032                     _y3:	
   337  0032                     	ds	2
   338  0034                     _y2:	
   339  0034                     	ds	2
   340  0036                     _y1:	
   341  0036                     	ds	2
   342  0038                     _y:	
   343  0038                     	ds	2
   344  003A                     _x3:	
   345  003A                     	ds	2
   346  003C                     _x2:	
   347  003C                     	ds	2
   348  003E                     _x1:	
   349  003E                     	ds	2
   350  0040                     _x:	
   351  0040                     	ds	2
   352  0042                     _Tiempo:	
   353  0042                     	ds	2
   354  0044                     _Luz:	
   355  0044                     	ds	2
   356  0046                     _Humo:	
   357  0046                     	ds	2
   358  0048                     _LM35:	
   359  0048                     	ds	1
   360  0049                     _Fotor:	
   361  0049                     	ds	1
   362  004A                     _MQ2:	
   363  004A                     	ds	1
   364                           
   365                           	psect	bssBANK1
   366  00A0                     __pbssBANK1:	
   367  00A0                     _posicion:	
   368  00A0                     	ds	2
   369                           
   370                           	psect	clrtext
   371  0D92                     clear_ram0:	
   372                           ;	Called with FSR containing the base address, and
   373                           ;	W with the last address+1
   374                           
   375  0D92  0064               	clrwdt	;clear the watchdog before getting into this loop
   376  0D93                     clrloop0:	
   377  0D93  0180               	clrf	0	;clear RAM location pointed to by FSR
   378  0D94  0A84               	incf	4,f	;increment pointer
   379  0D95  0604               	xorwf	4,w	;XOR with final address
   380  0D96  1903               	btfsc	3,2	;have we reached the end yet?
   381  0D97  3400               	retlw	0	;all done for this memory range, return
   382  0D98  0604               	xorwf	4,w	;XOR again to restore value
   383  0D99  2D93               	goto	clrloop0	;do the next byte
   384                           
   385                           	psect	cstackCOMMON
   386  0070                     __pcstackCOMMON:	
   387  0070                     ?___flge:	
   388  0070                     ?_I2C_Master_Wait:	
   389                           ; 1 bit 
   390                           
   391  0070                     ??_I2C_Master_Wait:	
   392                           ; 1 bytes @ 0x0
   393                           
   394  0070                     ?_I2C_Master_Start:	
   395                           ; 1 bytes @ 0x0
   396                           
   397  0070                     ??_I2C_Master_Start:	
   398                           ; 1 bytes @ 0x0
   399                           
   400  0070                     ?_I2C_Master_Stop:	
   401                           ; 1 bytes @ 0x0
   402                           
   403  0070                     ??_I2C_Master_Stop:	
   404                           ; 1 bytes @ 0x0
   405                           
   406  0070                     ?_I2C_Master_Write:	
   407                           ; 1 bytes @ 0x0
   408                           
   409  0070                     ?_comando:	
   410                           ; 1 bytes @ 0x0
   411                           
   412  0070                     ??_comando:	
   413                           ; 1 bytes @ 0x0
   414                           
   415  0070                     ?_iniciarLCD:	
   416                           ; 1 bytes @ 0x0
   417                           
   418  0070                     ?_borrarv:	
   419                           ; 1 bytes @ 0x0
   420                           
   421  0070                     ?_imprimir:	
   422                           ; 1 bytes @ 0x0
   423                           
   424  0070                     ??_imprimir:	
   425                           ; 1 bytes @ 0x0
   426                           
   427  0070                     ?_mostrar:	
   428                           ; 1 bytes @ 0x0
   429                           
   430  0070                     ??_mostrar:	
   431                           ; 1 bytes @ 0x0
   432                           
   433  0070                     ?_iniciarOSC:	
   434                           ; 1 bytes @ 0x0
   435                           
   436  0070                     ??_iniciarOSC:	
   437                           ; 1 bytes @ 0x0
   438                           
   439  0070                     ?_conversion:	
   440                           ; 1 bytes @ 0x0
   441                           
   442  0070                     ?_on_off:	
   443                           ; 1 bytes @ 0x0
   444                           
   445  0070                     ?_setup:	
   446                           ; 1 bytes @ 0x0
   447                           
   448  0070                     ??_setup:	
   449                           ; 1 bytes @ 0x0
   450                           
   451  0070                     ?_main:	
   452                           ; 1 bytes @ 0x0
   453                           
   454  0070                     ?__Umul8_16:	
   455                           ; 1 bytes @ 0x0
   456                           
   457  0070                     ?_I2C_Master_Read:	
   458                           ; 2 bytes @ 0x0
   459                           
   460  0070                     ?___awdiv:	
   461                           ; 2 bytes @ 0x0
   462                           
   463  0070                     ?___awmod:	
   464                           ; 2 bytes @ 0x0
   465                           
   466  0070                     ?___lldiv:	
   467                           ; 2 bytes @ 0x0
   468                           
   469  0070                     __Umul8_16@multiplicand:	
   470                           ; 4 bytes @ 0x0
   471                           
   472  0070                     I2C_Master_Write@d:	
   473                           ; 1 bytes @ 0x0
   474                           
   475  0070                     I2C_Master_Read@a:	
   476                           ; 2 bytes @ 0x0
   477                           
   478  0070                     ___awdiv@divisor:	
   479                           ; 2 bytes @ 0x0
   480                           
   481  0070                     ___awmod@divisor:	
   482                           ; 2 bytes @ 0x0
   483                           
   484  0070                     ___lldiv@divisor:	
   485                           ; 2 bytes @ 0x0
   486                           
   487  0070                     ___flge@ff1:	
   488                           ; 4 bytes @ 0x0
   489                           
   490                           
   491                           ; 4 bytes @ 0x0
   492  0070                     	ds	2
   493  0072                     ??__Umul8_16:	
   494  0072                     ??_I2C_Master_Write:	
   495                           ; 1 bytes @ 0x2
   496                           
   497  0072                     ??_I2C_Master_Read:	
   498                           ; 1 bytes @ 0x2
   499                           
   500  0072                     comando@x:	
   501                           ; 1 bytes @ 0x2
   502                           
   503  0072                     mostrar@t:	
   504                           ; 1 bytes @ 0x2
   505                           
   506  0072                     iniciarOSC@frec:	
   507                           ; 1 bytes @ 0x2
   508                           
   509  0072                     imprimir@i:	
   510                           ; 1 bytes @ 0x2
   511                           
   512  0072                     ___awdiv@dividend:	
   513                           ; 2 bytes @ 0x2
   514                           
   515  0072                     ___awmod@dividend:	
   516                           ; 2 bytes @ 0x2
   517                           
   518                           
   519                           ; 2 bytes @ 0x2
   520  0072                     	ds	1
   521  0073                     ??_iniciarLCD:	
   522  0073                     ??_borrarv:	
   523                           ; 1 bytes @ 0x3
   524                           
   525  0073                     ?_colocar:	
   526                           ; 1 bytes @ 0x3
   527                           
   528  0073                     colocar@y:	
   529                           ; 1 bytes @ 0x3
   530                           
   531                           
   532                           ; 1 bytes @ 0x3
   533  0073                     	ds	1
   534  0074                     ??_colocar:	
   535  0074                     ??___awdiv:	
   536                           ; 1 bytes @ 0x4
   537                           
   538  0074                     ??___awmod:	
   539                           ; 1 bytes @ 0x4
   540                           
   541  0074                     imprimir@texto:	
   542                           ; 1 bytes @ 0x4
   543                           
   544  0074                     I2C_Master_Read@temp:	
   545                           ; 1 bytes @ 0x4
   546                           
   547  0074                     __Umul8_16@product:	
   548                           ; 2 bytes @ 0x4
   549                           
   550  0074                     ___lldiv@dividend:	
   551                           ; 2 bytes @ 0x4
   552                           
   553  0074                     ___flge@ff2:	
   554                           ; 4 bytes @ 0x4
   555                           
   556                           
   557                           ; 4 bytes @ 0x4
   558  0074                     	ds	1
   559  0075                     colocar@x:	
   560  0075                     ___awdiv@counter:	
   561                           ; 1 bytes @ 0x5
   562                           
   563  0075                     ___awmod@counter:	
   564                           ; 1 bytes @ 0x5
   565                           
   566                           
   567                           ; 1 bytes @ 0x5
   568  0075                     	ds	1
   569  0076                     colocar@temp:	
   570  0076                     ___awdiv@sign:	
   571                           ; 1 bytes @ 0x6
   572                           
   573  0076                     ___awmod@sign:	
   574                           ; 1 bytes @ 0x6
   575                           
   576  0076                     __Umul8_16@word_mpld:	
   577                           ; 1 bytes @ 0x6
   578                           
   579                           
   580                           ; 2 bytes @ 0x6
   581  0076                     	ds	1
   582  0077                     ___awdiv@quotient:	
   583                           
   584                           ; 2 bytes @ 0x7
   585  0077                     	ds	1
   586  0078                     ??___lldiv:	
   587  0078                     ??___flge:	
   588                           ; 1 bytes @ 0x8
   589                           
   590  0078                     __Umul8_16@multiplier:	
   591                           ; 1 bytes @ 0x8
   592                           
   593                           
   594                           ; 1 bytes @ 0x8
   595  0078                     	ds	1
   596  0079                     ??___flmul:	
   597  0079                     ___lldiv@quotient:	
   598                           ; 1 bytes @ 0x9
   599                           
   600                           
   601                           ; 4 bytes @ 0x9
   602  0079                     	ds	3
   603  007C                     ??_on_off:	
   604                           
   605                           ; 1 bytes @ 0xC
   606  007C                     	ds	1
   607  007D                     ___lldiv@counter:	
   608                           
   609                           ; 1 bytes @ 0xD
   610  007D                     	ds	1
   611                           
   612                           	psect	cstackBANK0
   613  004B                     __pcstackBANK0:	
   614  004B                     ?_I2C_Master_Init:	
   615  004B                     ?___flmul:	
   616                           ; 1 bytes @ 0x0
   617                           
   618  004B                     I2C_Master_Init@c:	
   619                           ; 4 bytes @ 0x0
   620                           
   621  004B                     ___flmul@b:	
   622                           ; 4 bytes @ 0x0
   623                           
   624                           
   625                           ; 4 bytes @ 0x0
   626  004B                     	ds	4
   627  004F                     ??_I2C_Master_Init:	
   628  004F                     ___flmul@a:	
   629                           ; 1 bytes @ 0x4
   630                           
   631                           
   632                           ; 4 bytes @ 0x4
   633  004F                     	ds	4
   634  0053                     ___flmul@sign:	
   635                           
   636                           ; 1 bytes @ 0x8
   637  0053                     	ds	1
   638  0054                     ___flmul@grs:	
   639                           
   640                           ; 4 bytes @ 0x9
   641  0054                     	ds	4
   642  0058                     ___flmul@aexp:	
   643                           
   644                           ; 1 bytes @ 0xD
   645  0058                     	ds	1
   646  0059                     ___flmul@bexp:	
   647                           
   648                           ; 1 bytes @ 0xE
   649  0059                     	ds	1
   650  005A                     ___flmul@prod:	
   651                           
   652                           ; 4 bytes @ 0xF
   653  005A                     	ds	4
   654  005E                     ___flmul@temp:	
   655                           
   656                           ; 2 bytes @ 0x13
   657  005E                     	ds	2
   658  0060                     ?___fltol:	
   659  0060                     ___fltol@f1:	
   660                           ; 4 bytes @ 0x15
   661                           
   662                           
   663                           ; 4 bytes @ 0x15
   664  0060                     	ds	4
   665  0064                     ??___fltol:	
   666                           
   667                           ; 1 bytes @ 0x19
   668  0064                     	ds	5
   669  0069                     ___fltol@sign1:	
   670                           
   671                           ; 1 bytes @ 0x1E
   672  0069                     	ds	1
   673  006A                     ___fltol@exp1:	
   674                           
   675                           ; 1 bytes @ 0x1F
   676  006A                     	ds	1
   677  006B                     ??_conversion:	
   678                           
   679                           ; 1 bytes @ 0x20
   680  006B                     	ds	2
   681  006D                     ??_main:	
   682                           
   683                           ; 1 bytes @ 0x22
   684  006D                     	ds	3
   685                           
   686                           	psect	maintext
   687  0277                     __pmaintext:	
   688 ;;
   689 ;;Main: autosize = 0, tempsize = 3, incstack = 0, save=0
   690 ;;
   691 ;; *************** function _main *****************
   692 ;; Defined at:
   693 ;;		line 200 in file "Carcelero.c"
   694 ;; Parameters:    Size  Location     Type
   695 ;;		None
   696 ;; Auto vars:     Size  Location     Type
   697 ;;		None
   698 ;; Return value:  Size  Location     Type
   699 ;;                  1    wreg      void 
   700 ;; Registers used:
   701 ;;		wreg, fsr0l, fsr0h, status,2, status,0, btemp+1, pclath, cstack
   702 ;; Tracked objects:
   703 ;;		On entry : B00/0
   704 ;;		On exit  : 0/0
   705 ;;		Unchanged: 0/0
   706 ;; Data sizes:     COMMON   BANK0   BANK1   BANK3   BANK2
   707 ;;      Params:         0       0       0       0       0
   708 ;;      Locals:         0       0       0       0       0
   709 ;;      Temps:          0       3       0       0       0
   710 ;;      Totals:         0       3       0       0       0
   711 ;;Total ram usage:        3 bytes
   712 ;; Hardware stack levels required when called:    3
   713 ;; This function calls:
   714 ;;		_I2C_Master_Init
   715 ;;		_I2C_Master_Read
   716 ;;		_I2C_Master_Start
   717 ;;		_I2C_Master_Stop
   718 ;;		_I2C_Master_Write
   719 ;;		_borrarv
   720 ;;		_colocar
   721 ;;		_conversion
   722 ;;		_imprimir
   723 ;;		_iniciarLCD
   724 ;;		_iniciarOSC
   725 ;;		_mostrar
   726 ;;		_on_off
   727 ;;		_setup
   728 ;; This function is called by:
   729 ;;		Startup code after reset
   730 ;; This function uses a non-reentrant model
   731 ;;
   732                           
   733                           
   734                           ;psect for function _main
   735  0277                     _main:	
   736  0277                     l2142:	
   737                           ;incstack = 0
   738                           ; Regs used in _main: [wreg-fsr0h+status,2+status,0+btemp+1+pclath+cstack]
   739                           
   740                           
   741                           ;Carcelero.c: 202:     iniciarOSC(6);
   742  0277  3006               	movlw	6
   743  0278  120A  158A  279F  120A  118A  	fcall	_iniciarOSC
   744  027D                     l2144:	
   745                           
   746                           ;Carcelero.c: 204:     setup();
   747  027D  120A  158A  25C3  120A  118A  	fcall	_setup
   748  0282                     l2146:	
   749                           
   750                           ;Carcelero.c: 206:     I2C_Master_Init(100000);
   751  0282  3000               	movlw	0
   752  0283  1283               	bcf	3,5	;RP0=0, select bank0
   753  0284  1303               	bcf	3,6	;RP1=0, select bank0
   754  0285  00CE               	movwf	I2C_Master_Init@c+3
   755  0286  3001               	movlw	1
   756  0287  00CD               	movwf	I2C_Master_Init@c+2
   757  0288  3086               	movlw	134
   758  0289  00CC               	movwf	I2C_Master_Init@c+1
   759  028A  30A0               	movlw	160
   760  028B  00CB               	movwf	I2C_Master_Init@c
   761  028C  120A  158A  26BA  120A  118A  	fcall	_I2C_Master_Init
   762  0291                     l2148:	
   763                           
   764                           ;Carcelero.c: 208:     iniciarLCD();
   765  0291  120A  158A  26F2  120A  118A  	fcall	_iniciarLCD
   766  0296                     l2150:	
   767                           
   768                           ;Carcelero.c: 210:     borrarv();
   769  0296  120A  158A  25D5  120A  118A  	fcall	_borrarv
   770  029B                     l2152:	
   771                           
   772                           ;Carcelero.c: 212:     _delay((unsigned long)((2000)*(4000000/4000.0)));
   773  029B  300B               	movlw	11
   774  029C  1283               	bcf	3,5	;RP0=0, select bank0
   775  029D  1303               	bcf	3,6	;RP1=0, select bank0
   776  029E  00EF               	movwf	??_main+2
   777  029F  3026               	movlw	38
   778  02A0  00EE               	movwf	??_main+1
   779  02A1  305D               	movlw	93
   780  02A2  00ED               	movwf	??_main
   781  02A3                     u2957:	
   782  02A3  0BED               	decfsz	??_main,f
   783  02A4  2AA3               	goto	u2957
   784  02A5  0BEE               	decfsz	??_main+1,f
   785  02A6  2AA3               	goto	u2957
   786  02A7  0BEF               	decfsz	??_main+2,f
   787  02A8  2AA3               	goto	u2957
   788  02A9                     l2154:	
   789                           
   790                           ;Carcelero.c: 214:     colocar(1,1);
   791  02A9  01F3               	clrf	colocar@y
   792  02AA  0AF3               	incf	colocar@y,f
   793  02AB  3001               	movlw	1
   794  02AC  120A  158A  2610  120A  118A  	fcall	_colocar
   795  02B1                     l2156:	
   796                           
   797                           ;Carcelero.c: 215:     imprimir("Humo");
   798  02B1  300B               	movlw	(low ((STR_1-__stringbase)| (0+32768)))& (0+255)
   799  02B2  120A  158A  2689  120A  118A  	fcall	_imprimir
   800                           
   801                           ;Carcelero.c: 217:     colocar(6,1);
   802  02B7  01F3               	clrf	colocar@y
   803  02B8  0AF3               	incf	colocar@y,f
   804  02B9  3006               	movlw	6
   805  02BA  120A  158A  2610  120A  118A  	fcall	_colocar
   806  02BF                     l2158:	
   807                           
   808                           ;Carcelero.c: 218:     imprimir("Luz");
   809  02BF  3015               	movlw	(low ((STR_2-__stringbase)| (0+32768)))& (0+255)
   810  02C0  120A  158A  2689  120A  118A  	fcall	_imprimir
   811  02C5                     l2160:	
   812                           
   813                           ;Carcelero.c: 220:     colocar(10,1);
   814  02C5  01F3               	clrf	colocar@y
   815  02C6  0AF3               	incf	colocar@y,f
   816  02C7  300A               	movlw	10
   817  02C8  120A  158A  2610  120A  118A  	fcall	_colocar
   818                           
   819                           ;Carcelero.c: 221:     imprimir("Temp");
   820  02CD  3010               	movlw	(low ((STR_3-__stringbase)| (0+32768)))& (0+255)
   821  02CE  120A  158A  2689  120A  118A  	fcall	_imprimir
   822  02D3                     l2162:	
   823                           
   824                           ;Carcelero.c: 224:     {;Carcelero.c: 234:         I2C_Master_Start();
   825  02D3  120A  158A  259A  120A  118A  	fcall	_I2C_Master_Start
   826  02D8                     l2164:	
   827                           
   828                           ;Carcelero.c: 235:         I2C_Master_Write(0x21);
   829  02D8  3021               	movlw	33
   830  02D9  00F0               	movwf	I2C_Master_Write@d
   831  02DA  3000               	movlw	0
   832  02DB  00F1               	movwf	I2C_Master_Write@d+1
   833  02DC  120A  158A  25AC  120A  118A  	fcall	_I2C_Master_Write
   834  02E1                     l2166:	
   835                           
   836                           ;Carcelero.c: 236:         Fotor = I2C_Master_Read(0);
   837  02E1  3000               	movlw	0
   838  02E2  00F0               	movwf	I2C_Master_Read@a
   839  02E3  00F1               	movwf	I2C_Master_Read@a+1
   840  02E4  120A  158A  265B  120A  118A  	fcall	_I2C_Master_Read
   841  02E9  0870               	movf	?_I2C_Master_Read,w
   842  02EA  1283               	bcf	3,5	;RP0=0, select bank0
   843  02EB  1303               	bcf	3,6	;RP1=0, select bank0
   844  02EC  00ED               	movwf	??_main
   845  02ED  086D               	movf	??_main,w
   846  02EE  00C9               	movwf	_Fotor
   847  02EF                     l2168:	
   848                           
   849                           ;Carcelero.c: 237:         I2C_Master_Stop();
   850  02EF  120A  158A  25A3  120A  118A  	fcall	_I2C_Master_Stop
   851  02F4                     l2170:	
   852                           
   853                           ;Carcelero.c: 238:         _delay((unsigned long)((200)*(4000000/4000.0)));
   854  02F4  3002               	movlw	2
   855  02F5  1283               	bcf	3,5	;RP0=0, select bank0
   856  02F6  1303               	bcf	3,6	;RP1=0, select bank0
   857  02F7  00EF               	movwf	??_main+2
   858  02F8  3004               	movlw	4
   859  02F9  00EE               	movwf	??_main+1
   860  02FA  30B9               	movlw	185
   861  02FB  00ED               	movwf	??_main
   862  02FC                     u2967:	
   863  02FC  0BED               	decfsz	??_main,f
   864  02FD  2AFC               	goto	u2967
   865  02FE  0BEE               	decfsz	??_main+1,f
   866  02FF  2AFC               	goto	u2967
   867  0300  0BEF               	decfsz	??_main+2,f
   868  0301  2AFC               	goto	u2967
   869  0302  2B03               	nop2
   870  0303                     l2172:	
   871                           
   872                           ;Carcelero.c: 279:         conversion();
   873  0303  120A  118A  236C  120A  118A  	fcall	_conversion
   874  0308                     l2174:	
   875                           
   876                           ;Carcelero.c: 289:         colocar(6,2);
   877  0308  3002               	movlw	2
   878  0309  1283               	bcf	3,5	;RP0=0, select bank0
   879  030A  1303               	bcf	3,6	;RP1=0, select bank0
   880  030B  00ED               	movwf	??_main
   881  030C  086D               	movf	??_main,w
   882  030D  00F3               	movwf	colocar@y
   883  030E  3006               	movlw	6
   884  030F  120A  158A  2610  120A  118A  	fcall	_colocar
   885  0314                     l2176:	
   886                           
   887                           ;Carcelero.c: 290:         mostrar(a[y]);
   888  0314  1283               	bcf	3,5	;RP0=0, select bank0
   889  0315  1303               	bcf	3,6	;RP1=0, select bank0
   890  0316  0838               	movf	_y,w
   891  0317  3E01               	addlw	low ((_a-__stringbase)| (0+32768))
   892  0318  0084               	movwf	4
   893  0319  120A  158A  2000  120A  118A  	fcall	stringdir
   894  031E  120A  158A  25FC  120A  118A  	fcall	_mostrar
   895  0323                     l2178:	
   896                           
   897                           ;Carcelero.c: 291:         colocar(7,2);
   898  0323  3002               	movlw	2
   899  0324  1283               	bcf	3,5	;RP0=0, select bank0
   900  0325  1303               	bcf	3,6	;RP1=0, select bank0
   901  0326  00ED               	movwf	??_main
   902  0327  086D               	movf	??_main,w
   903  0328  00F3               	movwf	colocar@y
   904  0329  3007               	movlw	7
   905  032A  120A  158A  2610  120A  118A  	fcall	_colocar
   906  032F                     l2180:	
   907                           
   908                           ;Carcelero.c: 292:         mostrar(a[y2]);
   909  032F  1283               	bcf	3,5	;RP0=0, select bank0
   910  0330  1303               	bcf	3,6	;RP1=0, select bank0
   911  0331  0834               	movf	_y2,w
   912  0332  3E01               	addlw	low ((_a-__stringbase)| (0+32768))
   913  0333  0084               	movwf	4
   914  0334  120A  158A  2000  120A  118A  	fcall	stringdir
   915  0339  120A  158A  25FC  120A  118A  	fcall	_mostrar
   916  033E                     l2182:	
   917                           
   918                           ;Carcelero.c: 293:         colocar(8,2);
   919  033E  3002               	movlw	2
   920  033F  1283               	bcf	3,5	;RP0=0, select bank0
   921  0340  1303               	bcf	3,6	;RP1=0, select bank0
   922  0341  00ED               	movwf	??_main
   923  0342  086D               	movf	??_main,w
   924  0343  00F3               	movwf	colocar@y
   925  0344  3008               	movlw	8
   926  0345  120A  158A  2610  120A  118A  	fcall	_colocar
   927  034A                     l2184:	
   928                           
   929                           ;Carcelero.c: 294:         mostrar(a[y3]);
   930  034A  1283               	bcf	3,5	;RP0=0, select bank0
   931  034B  1303               	bcf	3,6	;RP1=0, select bank0
   932  034C  0832               	movf	_y3,w
   933  034D  3E01               	addlw	low ((_a-__stringbase)| (0+32768))
   934  034E  0084               	movwf	4
   935  034F  120A  158A  2000  120A  118A  	fcall	stringdir
   936  0354  120A  158A  25FC  120A  118A  	fcall	_mostrar
   937  0359                     l2186:	
   938                           
   939                           ;Carcelero.c: 295:         _delay((unsigned long)((2)*(4000000/4000.0)));
   940  0359  3003               	movlw	3
   941  035A  1283               	bcf	3,5	;RP0=0, select bank0
   942  035B  1303               	bcf	3,6	;RP1=0, select bank0
   943  035C  00EE               	movwf	??_main+1
   944  035D  3097               	movlw	151
   945  035E  00ED               	movwf	??_main
   946  035F                     u2977:	
   947  035F  0BED               	decfsz	??_main,f
   948  0360  2B5F               	goto	u2977
   949  0361  0BEE               	decfsz	??_main+1,f
   950  0362  2B5F               	goto	u2977
   951  0363                     l2188:	
   952                           
   953                           ;Carcelero.c: 297:         on_off();
   954  0363  120A  118A  214D  120A  118A  	fcall	_on_off
   955  0368  2AD3               	goto	l2162
   956  0369  120A  118A  2800   	ljmp	start
   957  036C                     __end_of_main:	
   958                           
   959                           	psect	text1
   960  0DC3                     __ptext1:	
   961 ;; *************** function _setup *****************
   962 ;; Defined at:
   963 ;;		line 181 in file "Carcelero.c"
   964 ;; Parameters:    Size  Location     Type
   965 ;;		None
   966 ;; Auto vars:     Size  Location     Type
   967 ;;		None
   968 ;; Return value:  Size  Location     Type
   969 ;;                  1    wreg      void 
   970 ;; Registers used:
   971 ;;		status,2
   972 ;; Tracked objects:
   973 ;;		On entry : 0/0
   974 ;;		On exit  : 0/0
   975 ;;		Unchanged: 0/0
   976 ;; Data sizes:     COMMON   BANK0   BANK1   BANK3   BANK2
   977 ;;      Params:         0       0       0       0       0
   978 ;;      Locals:         0       0       0       0       0
   979 ;;      Temps:          0       0       0       0       0
   980 ;;      Totals:         0       0       0       0       0
   981 ;;Total ram usage:        0 bytes
   982 ;; Hardware stack levels used:    1
   983 ;; This function calls:
   984 ;;		Nothing
   985 ;; This function is called by:
   986 ;;		_main
   987 ;; This function uses a non-reentrant model
   988 ;;
   989                           
   990                           
   991                           ;psect for function _setup
   992  0DC3                     _setup:	
   993  0DC3                     l2104:	
   994                           ;incstack = 0
   995                           ; Regs used in _setup: [status,2]
   996                           
   997                           
   998                           ;Carcelero.c: 183:     ANSEL = 0;
   999  0DC3  1683               	bsf	3,5	;RP0=1, select bank3
  1000  0DC4  1703               	bsf	3,6	;RP1=1, select bank3
  1001  0DC5  0188               	clrf	8	;volatile
  1002                           
  1003                           ;Carcelero.c: 184:     ANSELH = 0;
  1004  0DC6  0189               	clrf	9	;volatile
  1005                           
  1006                           ;Carcelero.c: 186:     TRISA = 0;
  1007  0DC7  1683               	bsf	3,5	;RP0=1, select bank1
  1008  0DC8  1303               	bcf	3,6	;RP1=0, select bank1
  1009  0DC9  0185               	clrf	5	;volatile
  1010  0DCA                     l2106:	
  1011                           
  1012                           ;Carcelero.c: 187:     TRISAbits.TRISA0 = 1;
  1013  0DCA  1405               	bsf	5,0	;volatile
  1014  0DCB                     l2108:	
  1015                           
  1016                           ;Carcelero.c: 188:     TRISAbits.TRISA1 = 1;
  1017  0DCB  1485               	bsf	5,1	;volatile
  1018                           
  1019                           ;Carcelero.c: 190:     TRISB = 0;
  1020  0DCC  0186               	clrf	6	;volatile
  1021  0DCD                     l2110:	
  1022                           
  1023                           ;Carcelero.c: 192:     TRISDbits.TRISD6 = 0;
  1024  0DCD  1308               	bcf	8,6	;volatile
  1025  0DCE                     l2112:	
  1026                           
  1027                           ;Carcelero.c: 193:     TRISDbits.TRISD7 = 0;
  1028  0DCE  1388               	bcf	8,7	;volatile
  1029                           
  1030                           ;Carcelero.c: 195:     PORTA = 0;
  1031  0DCF  1283               	bcf	3,5	;RP0=0, select bank0
  1032  0DD0  1303               	bcf	3,6	;RP1=0, select bank0
  1033  0DD1  0185               	clrf	5	;volatile
  1034                           
  1035                           ;Carcelero.c: 196:     PORTB = 0;
  1036  0DD2  0186               	clrf	6	;volatile
  1037                           
  1038                           ;Carcelero.c: 197:     PORTC = 0;
  1039  0DD3  0187               	clrf	7	;volatile
  1040  0DD4                     l176:	
  1041  0DD4  0008               	return
  1042  0DD5                     __end_of_setup:	
  1043                           
  1044                           	psect	text2
  1045  014D                     __ptext2:	
  1046 ;; *************** function _on_off *****************
  1047 ;; Defined at:
  1048 ;;		line 93 in file "Carcelero.c"
  1049 ;; Parameters:    Size  Location     Type
  1050 ;;		None
  1051 ;; Auto vars:     Size  Location     Type
  1052 ;;		None
  1053 ;; Return value:  Size  Location     Type
  1054 ;;                  1    wreg      void 
  1055 ;; Registers used:
  1056 ;;		wreg, status,2, status,0, btemp+1, pclath, cstack
  1057 ;; Tracked objects:
  1058 ;;		On entry : 0/0
  1059 ;;		On exit  : 0/0
  1060 ;;		Unchanged: 0/0
  1061 ;; Data sizes:     COMMON   BANK0   BANK1   BANK3   BANK2
  1062 ;;      Params:         0       0       0       0       0
  1063 ;;      Locals:         0       0       0       0       0
  1064 ;;      Temps:          0       0       0       0       0
  1065 ;;      Totals:         0       0       0       0       0
  1066 ;;Total ram usage:        0 bytes
  1067 ;; Hardware stack levels used:    1
  1068 ;; Hardware stack levels required when called:    1
  1069 ;; This function calls:
  1070 ;;		___flge
  1071 ;; This function is called by:
  1072 ;;		_main
  1073 ;; This function uses a non-reentrant model
  1074 ;;
  1075                           
  1076                           
  1077                           ;psect for function _on_off
  1078  014D                     _on_off:	
  1079  014D                     l2080:	
  1080                           ;incstack = 0
  1081                           ; Regs used in _on_off: [wreg+status,2+status,0+btemp+1+pclath+cstack]
  1082                           
  1083                           
  1084                           ;Carcelero.c: 95:     if (Humo > 100)
  1085  014D  1283               	bcf	3,5	;RP0=0, select bank0
  1086  014E  1303               	bcf	3,6	;RP1=0, select bank0
  1087  014F  0847               	movf	_Humo+1,w
  1088  0150  3A80               	xorlw	128
  1089  0151  00FF               	movwf	btemp+1
  1090  0152  3080               	movlw	128
  1091  0153  027F               	subwf	btemp+1,w
  1092  0154  1D03               	skipz
  1093  0155  2958               	goto	u2385
  1094  0156  3065               	movlw	101
  1095  0157  0246               	subwf	_Humo,w
  1096  0158                     u2385:	
  1097  0158  1C03               	skipc
  1098  0159  295B               	goto	u2381
  1099  015A  295C               	goto	u2380
  1100  015B                     u2381:	
  1101  015B  2960               	goto	l2084
  1102  015C                     u2380:	
  1103  015C                     l2082:	
  1104                           
  1105                           ;Carcelero.c: 96:     {;Carcelero.c: 102:         PORTAbits.RA3 = 1;
  1106  015C  1283               	bcf	3,5	;RP0=0, select bank0
  1107  015D  1303               	bcf	3,6	;RP1=0, select bank0
  1108  015E  1585               	bsf	5,3	;volatile
  1109                           
  1110                           ;Carcelero.c: 103:     }
  1111  015F  2972               	goto	l2088
  1112  0160                     l2084:	
  1113  0160  1283               	bcf	3,5	;RP0=0, select bank0
  1114  0161  1303               	bcf	3,6	;RP1=0, select bank0
  1115  0162  0847               	movf	_Humo+1,w
  1116  0163  3A80               	xorlw	128
  1117  0164  00FF               	movwf	btemp+1
  1118  0165  3080               	movlw	128
  1119  0166  027F               	subwf	btemp+1,w
  1120  0167  1D03               	skipz
  1121  0168  296B               	goto	u2395
  1122  0169  3064               	movlw	100
  1123  016A  0246               	subwf	_Humo,w
  1124  016B                     u2395:	
  1125  016B  1803               	skipnc
  1126  016C  296E               	goto	u2391
  1127  016D  296F               	goto	u2390
  1128  016E                     u2391:	
  1129  016E  2972               	goto	l2088
  1130  016F                     u2390:	
  1131  016F                     l2086:	
  1132                           
  1133                           ;Carcelero.c: 105:     {;Carcelero.c: 111:         PORTAbits.RA3 = 0;
  1134  016F  1283               	bcf	3,5	;RP0=0, select bank0
  1135  0170  1303               	bcf	3,6	;RP1=0, select bank0
  1136  0171  1185               	bcf	5,3	;volatile
  1137  0172                     l2088:	
  1138                           
  1139                           ;Carcelero.c: 115:     if (Luz > 50)
  1140  0172  1283               	bcf	3,5	;RP0=0, select bank0
  1141  0173  1303               	bcf	3,6	;RP1=0, select bank0
  1142  0174  0845               	movf	_Luz+1,w
  1143  0175  3A80               	xorlw	128
  1144  0176  00FF               	movwf	btemp+1
  1145  0177  3080               	movlw	128
  1146  0178  027F               	subwf	btemp+1,w
  1147  0179  1D03               	skipz
  1148  017A  297D               	goto	u2405
  1149  017B  3033               	movlw	51
  1150  017C  0244               	subwf	_Luz,w
  1151  017D                     u2405:	
  1152  017D  1C03               	skipc
  1153  017E  2980               	goto	u2401
  1154  017F  2981               	goto	u2400
  1155  0180                     u2401:	
  1156  0180  2985               	goto	l2092
  1157  0181                     u2400:	
  1158  0181                     l2090:	
  1159                           
  1160                           ;Carcelero.c: 116:     {;Carcelero.c: 122:         PORTAbits.RA4 = 0;
  1161  0181  1283               	bcf	3,5	;RP0=0, select bank0
  1162  0182  1303               	bcf	3,6	;RP1=0, select bank0
  1163  0183  1205               	bcf	5,4	;volatile
  1164                           
  1165                           ;Carcelero.c: 123:     }
  1166  0184  2997               	goto	l2096
  1167  0185                     l2092:	
  1168  0185  1283               	bcf	3,5	;RP0=0, select bank0
  1169  0186  1303               	bcf	3,6	;RP1=0, select bank0
  1170  0187  0845               	movf	_Luz+1,w
  1171  0188  3A80               	xorlw	128
  1172  0189  00FF               	movwf	btemp+1
  1173  018A  3080               	movlw	128
  1174  018B  027F               	subwf	btemp+1,w
  1175  018C  1D03               	skipz
  1176  018D  2990               	goto	u2415
  1177  018E  3032               	movlw	50
  1178  018F  0244               	subwf	_Luz,w
  1179  0190                     u2415:	
  1180  0190  1803               	skipnc
  1181  0191  2993               	goto	u2411
  1182  0192  2994               	goto	u2410
  1183  0193                     u2411:	
  1184  0193  2997               	goto	l2096
  1185  0194                     u2410:	
  1186  0194                     l2094:	
  1187                           
  1188                           ;Carcelero.c: 125:     {;Carcelero.c: 131:         PORTAbits.RA4 = 1;
  1189  0194  1283               	bcf	3,5	;RP0=0, select bank0
  1190  0195  1303               	bcf	3,6	;RP1=0, select bank0
  1191  0196  1605               	bsf	5,4	;volatile
  1192  0197                     l2096:	
  1193                           
  1194                           ;Carcelero.c: 134:     if (Tempe > 30)
  1195  0197  3041               	movlw	65
  1196  0198  00F3               	movwf	___flge@ff1+3
  1197  0199  30F0               	movlw	240
  1198  019A  00F2               	movwf	___flge@ff1+2
  1199  019B  3000               	movlw	0
  1200  019C  00F1               	movwf	___flge@ff1+1
  1201  019D  3000               	movlw	0
  1202  019E  00F0               	movwf	___flge@ff1
  1203  019F  1283               	bcf	3,5	;RP0=0, select bank0
  1204  01A0  1303               	bcf	3,6	;RP1=0, select bank0
  1205  01A1  0823               	movf	_Tempe+3,w
  1206  01A2  00F7               	movwf	___flge@ff2+3
  1207  01A3  0822               	movf	_Tempe+2,w
  1208  01A4  00F6               	movwf	___flge@ff2+2
  1209  01A5  0821               	movf	_Tempe+1,w
  1210  01A6  00F5               	movwf	___flge@ff2+1
  1211  01A7  0820               	movf	_Tempe,w
  1212  01A8  00F4               	movwf	___flge@ff2
  1213  01A9  120A  118A  21D5  120A  118A  	fcall	___flge
  1214  01AE  1803               	btfsc	3,0
  1215  01AF  29B1               	goto	u2421
  1216  01B0  29B2               	goto	u2420
  1217  01B1                     u2421:	
  1218  01B1  29B6               	goto	l2100
  1219  01B2                     u2420:	
  1220  01B2                     l2098:	
  1221                           
  1222                           ;Carcelero.c: 135:     {;Carcelero.c: 141:         PORTAbits.RA2 = 1;
  1223  01B2  1283               	bcf	3,5	;RP0=0, select bank0
  1224  01B3  1303               	bcf	3,6	;RP1=0, select bank0
  1225  01B4  1505               	bsf	5,2	;volatile
  1226                           
  1227                           ;Carcelero.c: 142:     }
  1228  01B5  29D4               	goto	l164
  1229  01B6                     l2100:	
  1230  01B6  1283               	bcf	3,5	;RP0=0, select bank0
  1231  01B7  1303               	bcf	3,6	;RP1=0, select bank0
  1232  01B8  0823               	movf	_Tempe+3,w
  1233  01B9  00F3               	movwf	___flge@ff1+3
  1234  01BA  0822               	movf	_Tempe+2,w
  1235  01BB  00F2               	movwf	___flge@ff1+2
  1236  01BC  0821               	movf	_Tempe+1,w
  1237  01BD  00F1               	movwf	___flge@ff1+1
  1238  01BE  0820               	movf	_Tempe,w
  1239  01BF  00F0               	movwf	___flge@ff1
  1240  01C0  3041               	movlw	65
  1241  01C1  00F7               	movwf	___flge@ff2+3
  1242  01C2  30F0               	movlw	240
  1243  01C3  00F6               	movwf	___flge@ff2+2
  1244  01C4  3000               	movlw	0
  1245  01C5  00F5               	movwf	___flge@ff2+1
  1246  01C6  3000               	movlw	0
  1247  01C7  00F4               	movwf	___flge@ff2
  1248  01C8  120A  118A  21D5  120A  118A  	fcall	___flge
  1249  01CD  1803               	btfsc	3,0
  1250  01CE  29D0               	goto	u2431
  1251  01CF  29D1               	goto	u2430
  1252  01D0                     u2431:	
  1253  01D0  29D4               	goto	l164
  1254  01D1                     u2430:	
  1255  01D1                     l2102:	
  1256                           
  1257                           ;Carcelero.c: 144:     {;Carcelero.c: 150:         PORTAbits.RA2 = 1;
  1258  01D1  1283               	bcf	3,5	;RP0=0, select bank0
  1259  01D2  1303               	bcf	3,6	;RP1=0, select bank0
  1260  01D3  1505               	bsf	5,2	;volatile
  1261  01D4                     l164:	
  1262  01D4  0008               	return
  1263  01D5                     __end_of_on_off:	
  1264                           
  1265                           	psect	text3
  1266  01D5                     __ptext3:	
  1267 ;; *************** function ___flge *****************
  1268 ;; Defined at:
  1269 ;;		line 4 in file "C:\Program Files (x86)\Microchip\xc8\v2.10\pic\sources\c90\common\flge.c"
  1270 ;; Parameters:    Size  Location     Type
  1271 ;;  ff1             4    0[COMMON] void 
  1272 ;;  ff2             4    4[COMMON] void 
  1273 ;; Auto vars:     Size  Location     Type
  1274 ;;		None
  1275 ;; Return value:  Size  Location     Type
  1276 ;;		None               void
  1277 ;; Registers used:
  1278 ;;		wreg, status,2, status,0
  1279 ;; Tracked objects:
  1280 ;;		On entry : 0/0
  1281 ;;		On exit  : 0/0
  1282 ;;		Unchanged: 0/0
  1283 ;; Data sizes:     COMMON   BANK0   BANK1   BANK3   BANK2
  1284 ;;      Params:         8       0       0       0       0
  1285 ;;      Locals:         0       0       0       0       0
  1286 ;;      Temps:          4       0       0       0       0
  1287 ;;      Totals:        12       0       0       0       0
  1288 ;;Total ram usage:       12 bytes
  1289 ;; Hardware stack levels used:    1
  1290 ;; This function calls:
  1291 ;;		Nothing
  1292 ;; This function is called by:
  1293 ;;		_on_off
  1294 ;; This function uses a non-reentrant model
  1295 ;;
  1296                           
  1297                           
  1298                           ;psect for function ___flge
  1299  01D5                     ___flge:	
  1300  01D5                     l1726:	
  1301                           ;incstack = 0
  1302                           ; Regs used in ___flge: [wreg+status,2+status,0]
  1303                           
  1304  01D5  3000               	movlw	0
  1305  01D6  0570               	andwf	___flge@ff1,w
  1306  01D7  00F8               	movwf	??___flge
  1307  01D8  3000               	movlw	0
  1308  01D9  0571               	andwf	___flge@ff1+1,w
  1309  01DA  00F9               	movwf	??___flge+1
  1310  01DB  3080               	movlw	128
  1311  01DC  0572               	andwf	___flge@ff1+2,w
  1312  01DD  00FA               	movwf	??___flge+2
  1313  01DE  307F               	movlw	127
  1314  01DF  0573               	andwf	___flge@ff1+3,w
  1315  01E0  00FB               	movwf	??___flge+3
  1316  01E1  087B               	movf	??___flge+3,w
  1317  01E2  047A               	iorwf	??___flge+2,w
  1318  01E3  0479               	iorwf	??___flge+1,w
  1319  01E4  0478               	iorwf	??___flge,w
  1320  01E5  1D03               	skipz
  1321  01E6  29E8               	goto	u1791
  1322  01E7  29E9               	goto	u1790
  1323  01E8                     u1791:	
  1324  01E8  29F1               	goto	l444
  1325  01E9                     u1790:	
  1326  01E9                     l1728:	
  1327  01E9  3000               	movlw	0
  1328  01EA  00F3               	movwf	___flge@ff1+3
  1329  01EB  3000               	movlw	0
  1330  01EC  00F2               	movwf	___flge@ff1+2
  1331  01ED  3000               	movlw	0
  1332  01EE  00F1               	movwf	___flge@ff1+1
  1333  01EF  3000               	movlw	0
  1334  01F0  00F0               	movwf	___flge@ff1
  1335  01F1                     l444:	
  1336  01F1  3000               	movlw	0
  1337  01F2  0574               	andwf	___flge@ff2,w
  1338  01F3  00F8               	movwf	??___flge
  1339  01F4  3000               	movlw	0
  1340  01F5  0575               	andwf	___flge@ff2+1,w
  1341  01F6  00F9               	movwf	??___flge+1
  1342  01F7  3080               	movlw	128
  1343  01F8  0576               	andwf	___flge@ff2+2,w
  1344  01F9  00FA               	movwf	??___flge+2
  1345  01FA  307F               	movlw	127
  1346  01FB  0577               	andwf	___flge@ff2+3,w
  1347  01FC  00FB               	movwf	??___flge+3
  1348  01FD  087B               	movf	??___flge+3,w
  1349  01FE  047A               	iorwf	??___flge+2,w
  1350  01FF  0479               	iorwf	??___flge+1,w
  1351  0200  0478               	iorwf	??___flge,w
  1352  0201  1D03               	skipz
  1353  0202  2A04               	goto	u1801
  1354  0203  2A05               	goto	u1800
  1355  0204                     u1801:	
  1356  0204  2A0D               	goto	l1732
  1357  0205                     u1800:	
  1358  0205                     l1730:	
  1359  0205  3000               	movlw	0
  1360  0206  00F7               	movwf	___flge@ff2+3
  1361  0207  3000               	movlw	0
  1362  0208  00F6               	movwf	___flge@ff2+2
  1363  0209  3000               	movlw	0
  1364  020A  00F5               	movwf	___flge@ff2+1
  1365  020B  3000               	movlw	0
  1366  020C  00F4               	movwf	___flge@ff2
  1367  020D                     l1732:	
  1368  020D  1FF3               	btfss	___flge@ff1+3,7
  1369  020E  2A10               	goto	u1811
  1370  020F  2A11               	goto	u1810
  1371  0210                     u1811:	
  1372  0210  2A35               	goto	l1736
  1373  0211                     u1810:	
  1374  0211                     l1734:	
  1375  0211  3000               	movlw	0
  1376  0212  00F8               	movwf	??___flge
  1377  0213  3000               	movlw	0
  1378  0214  00F9               	movwf	??___flge+1
  1379  0215  3000               	movlw	0
  1380  0216  00FA               	movwf	??___flge+2
  1381  0217  3080               	movlw	128
  1382  0218  00FB               	movwf	??___flge+3
  1383  0219  0870               	movf	___flge@ff1,w
  1384  021A  02F8               	subwf	??___flge,f
  1385  021B  0871               	movf	___flge@ff1+1,w
  1386  021C  1C03               	skipc
  1387  021D  0F71               	incfsz	___flge@ff1+1,w
  1388  021E  2A20               	goto	u1821
  1389  021F  2A21               	goto	u1822
  1390  0220                     u1821:	
  1391  0220  02F9               	subwf	??___flge+1,f
  1392  0221                     u1822:	
  1393  0221  0872               	movf	___flge@ff1+2,w
  1394  0222  1C03               	skipc
  1395  0223  0F72               	incfsz	___flge@ff1+2,w
  1396  0224  2A26               	goto	u1823
  1397  0225  2A27               	goto	u1824
  1398  0226                     u1823:	
  1399  0226  02FA               	subwf	??___flge+2,f
  1400  0227                     u1824:	
  1401  0227  0873               	movf	___flge@ff1+3,w
  1402  0228  1C03               	skipc
  1403  0229  0F73               	incfsz	___flge@ff1+3,w
  1404  022A  2A2C               	goto	u1825
  1405  022B  2A2D               	goto	u1826
  1406  022C                     u1825:	
  1407  022C  02FB               	subwf	??___flge+3,f
  1408  022D                     u1826:	
  1409  022D  087B               	movf	??___flge+3,w
  1410  022E  00F3               	movwf	___flge@ff1+3
  1411  022F  087A               	movf	??___flge+2,w
  1412  0230  00F2               	movwf	___flge@ff1+2
  1413  0231  0879               	movf	??___flge+1,w
  1414  0232  00F1               	movwf	___flge@ff1+1
  1415  0233  0878               	movf	??___flge,w
  1416  0234  00F0               	movwf	___flge@ff1
  1417  0235                     l1736:	
  1418  0235  1FF7               	btfss	___flge@ff2+3,7
  1419  0236  2A38               	goto	u1831
  1420  0237  2A39               	goto	u1830
  1421  0238                     u1831:	
  1422  0238  2A5D               	goto	l447
  1423  0239                     u1830:	
  1424  0239                     l1738:	
  1425  0239  3000               	movlw	0
  1426  023A  00F8               	movwf	??___flge
  1427  023B  3000               	movlw	0
  1428  023C  00F9               	movwf	??___flge+1
  1429  023D  3000               	movlw	0
  1430  023E  00FA               	movwf	??___flge+2
  1431  023F  3080               	movlw	128
  1432  0240  00FB               	movwf	??___flge+3
  1433  0241  0874               	movf	___flge@ff2,w
  1434  0242  02F8               	subwf	??___flge,f
  1435  0243  0875               	movf	___flge@ff2+1,w
  1436  0244  1C03               	skipc
  1437  0245  0F75               	incfsz	___flge@ff2+1,w
  1438  0246  2A48               	goto	u1841
  1439  0247  2A49               	goto	u1842
  1440  0248                     u1841:	
  1441  0248  02F9               	subwf	??___flge+1,f
  1442  0249                     u1842:	
  1443  0249  0876               	movf	___flge@ff2+2,w
  1444  024A  1C03               	skipc
  1445  024B  0F76               	incfsz	___flge@ff2+2,w
  1446  024C  2A4E               	goto	u1843
  1447  024D  2A4F               	goto	u1844
  1448  024E                     u1843:	
  1449  024E  02FA               	subwf	??___flge+2,f
  1450  024F                     u1844:	
  1451  024F  0877               	movf	___flge@ff2+3,w
  1452  0250  1C03               	skipc
  1453  0251  0F77               	incfsz	___flge@ff2+3,w
  1454  0252  2A54               	goto	u1845
  1455  0253  2A55               	goto	u1846
  1456  0254                     u1845:	
  1457  0254  02FB               	subwf	??___flge+3,f
  1458  0255                     u1846:	
  1459  0255  087B               	movf	??___flge+3,w
  1460  0256  00F7               	movwf	___flge@ff2+3
  1461  0257  087A               	movf	??___flge+2,w
  1462  0258  00F6               	movwf	___flge@ff2+2
  1463  0259  0879               	movf	??___flge+1,w
  1464  025A  00F5               	movwf	___flge@ff2+1
  1465  025B  0878               	movf	??___flge,w
  1466  025C  00F4               	movwf	___flge@ff2
  1467  025D                     l447:	
  1468  025D  3080               	movlw	128
  1469  025E  06F3               	xorwf	___flge@ff1+3,f
  1470  025F  3080               	movlw	128
  1471  0260  06F7               	xorwf	___flge@ff2+3,f
  1472  0261  0877               	movf	___flge@ff2+3,w
  1473  0262  0273               	subwf	___flge@ff1+3,w
  1474  0263  1D03               	skipz
  1475  0264  2A6F               	goto	u1855
  1476  0265  0876               	movf	___flge@ff2+2,w
  1477  0266  0272               	subwf	___flge@ff1+2,w
  1478  0267  1D03               	skipz
  1479  0268  2A6F               	goto	u1855
  1480  0269  0875               	movf	___flge@ff2+1,w
  1481  026A  0271               	subwf	___flge@ff1+1,w
  1482  026B  1D03               	skipz
  1483  026C  2A6F               	goto	u1855
  1484  026D  0874               	movf	___flge@ff2,w
  1485  026E  0270               	subwf	___flge@ff1,w
  1486  026F                     u1855:	
  1487  026F  1803               	skipnc
  1488  0270  2A72               	goto	u1851
  1489  0271  2A73               	goto	u1850
  1490  0272                     u1851:	
  1491  0272  2A75               	goto	l1742
  1492  0273                     u1850:	
  1493  0273                     l1740:	
  1494  0273  1003               	clrc
  1495  0274  2A76               	goto	l448
  1496  0275                     l1742:	
  1497  0275  1403               	setc
  1498  0276                     l448:	
  1499  0276  0008               	return
  1500  0277                     __end_of___flge:	
  1501                           
  1502                           	psect	text4
  1503  0DFC                     __ptext4:	
  1504 ;; *************** function _mostrar *****************
  1505 ;; Defined at:
  1506 ;;		line 90 in file "./LCD.h"
  1507 ;; Parameters:    Size  Location     Type
  1508 ;;  t               1    wreg     const unsigned char 
  1509 ;; Auto vars:     Size  Location     Type
  1510 ;;  t               1    2[COMMON] const unsigned char 
  1511 ;; Return value:  Size  Location     Type
  1512 ;;                  1    wreg      void 
  1513 ;; Registers used:
  1514 ;;		wreg
  1515 ;; Tracked objects:
  1516 ;;		On entry : 0/0
  1517 ;;		On exit  : 0/0
  1518 ;;		Unchanged: 0/0
  1519 ;; Data sizes:     COMMON   BANK0   BANK1   BANK3   BANK2
  1520 ;;      Params:         0       0       0       0       0
  1521 ;;      Locals:         1       0       0       0       0
  1522 ;;      Temps:          2       0       0       0       0
  1523 ;;      Totals:         3       0       0       0       0
  1524 ;;Total ram usage:        3 bytes
  1525 ;; Hardware stack levels used:    1
  1526 ;; This function calls:
  1527 ;;		Nothing
  1528 ;; This function is called by:
  1529 ;;		_main
  1530 ;; This function uses a non-reentrant model
  1531 ;;
  1532                           
  1533                           
  1534                           ;psect for function _mostrar
  1535  0DFC                     _mostrar:	
  1536                           
  1537                           ;incstack = 0
  1538                           ; Regs used in _mostrar: [wreg]
  1539                           ;mostrar@t stored from wreg
  1540  0DFC  00F2               	movwf	mostrar@t
  1541  0DFD                     l2012:	
  1542                           
  1543                           ;./LCD.h: 90: void mostrar(const char t);./LCD.h: 91: {;./LCD.h: 92:     PORTDbits.RD6 =
      +                           1;
  1544  0DFD  1283               	bcf	3,5	;RP0=0, select bank0
  1545  0DFE  1303               	bcf	3,6	;RP1=0, select bank0
  1546  0DFF  1708               	bsf	8,6	;volatile
  1547  0E00                     l2014:	
  1548                           
  1549                           ;./LCD.h: 93:     PORTB = t;
  1550  0E00  0872               	movf	mostrar@t,w
  1551  0E01  0086               	movwf	6	;volatile
  1552  0E02                     l2016:	
  1553                           
  1554                           ;./LCD.h: 94:     PORTDbits.RD7 = 1;
  1555  0E02  1788               	bsf	8,7	;volatile
  1556                           
  1557                           ;./LCD.h: 95:     _delay((unsigned long)((2)*(4000000/4000.0)));
  1558  0E03  3003               	movlw	3
  1559  0E04  00F1               	movwf	??_mostrar+1
  1560  0E05  3097               	movlw	151
  1561  0E06  00F0               	movwf	??_mostrar
  1562  0E07                     u2987:	
  1563  0E07  0BF0               	decfsz	??_mostrar,f
  1564  0E08  2E07               	goto	u2987
  1565  0E09  0BF1               	decfsz	??_mostrar+1,f
  1566  0E0A  2E07               	goto	u2987
  1567  0E0B  2E0C               	nop2
  1568  0E0C                     l2018:	
  1569                           
  1570                           ;./LCD.h: 96:     PORTDbits.RD7 = 0;
  1571  0E0C  1283               	bcf	3,5	;RP0=0, select bank0
  1572  0E0D  1303               	bcf	3,6	;RP1=0, select bank0
  1573  0E0E  1388               	bcf	8,7	;volatile
  1574  0E0F                     l87:	
  1575  0E0F  0008               	return
  1576  0E10                     __end_of_mostrar:	
  1577                           
  1578                           	psect	text5
  1579  0F9F                     __ptext5:	
  1580 ;; *************** function _iniciarOSC *****************
  1581 ;; Defined at:
  1582 ;;		line 5 in file "./Oscilador.h"
  1583 ;; Parameters:    Size  Location     Type
  1584 ;;  frec            1    wreg     unsigned char 
  1585 ;; Auto vars:     Size  Location     Type
  1586 ;;  frec            1    2[COMMON] unsigned char 
  1587 ;; Return value:  Size  Location     Type
  1588 ;;                  1    wreg      void 
  1589 ;; Registers used:
  1590 ;;		wreg, fsr0l, fsr0h, status,2, status,0
  1591 ;; Tracked objects:
  1592 ;;		On entry : 0/0
  1593 ;;		On exit  : 0/0
  1594 ;;		Unchanged: 0/0
  1595 ;; Data sizes:     COMMON   BANK0   BANK1   BANK3   BANK2
  1596 ;;      Params:         0       0       0       0       0
  1597 ;;      Locals:         1       0       0       0       0
  1598 ;;      Temps:          2       0       0       0       0
  1599 ;;      Totals:         3       0       0       0       0
  1600 ;;Total ram usage:        3 bytes
  1601 ;; Hardware stack levels used:    1
  1602 ;; This function calls:
  1603 ;;		Nothing
  1604 ;; This function is called by:
  1605 ;;		_main
  1606 ;; This function uses a non-reentrant model
  1607 ;;
  1608                           
  1609                           
  1610                           ;psect for function _iniciarOSC
  1611  0F9F                     _iniciarOSC:	
  1612                           
  1613                           ;incstack = 0
  1614                           ; Regs used in _iniciarOSC: [wreg-fsr0h+status,2+status,0]
  1615                           ;iniciarOSC@frec stored from wreg
  1616  0F9F  00F2               	movwf	iniciarOSC@frec
  1617  0FA0                     l2020:	
  1618                           
  1619                           ;./Oscilador.h: 5: void iniciarOSC(uint8_t frec);./Oscilador.h: 6: {;./Oscilador.h: 7:  
      +                             switch(frec)
  1620  0FA0  2FDC               	goto	l2042
  1621  0FA1                     l2022:	
  1622                           
  1623                           ;./Oscilador.h: 10:             OSCCONbits.IRCF = 0b000;
  1624  0FA1  308F               	movlw	-113
  1625  0FA2  1683               	bsf	3,5	;RP0=1, select bank1
  1626  0FA3  1303               	bcf	3,6	;RP1=0, select bank1
  1627  0FA4  058F               	andwf	15,f	;volatile
  1628                           
  1629                           ;./Oscilador.h: 11:             break;
  1630  0FA5  2FFE               	goto	l92
  1631  0FA6                     l2024:	
  1632                           
  1633                           ;./Oscilador.h: 14:             OSCCONbits.IRCF = 0b001;
  1634  0FA6  1683               	bsf	3,5	;RP0=1, select bank1
  1635  0FA7  1303               	bcf	3,6	;RP1=0, select bank1
  1636  0FA8  080F               	movf	15,w	;volatile
  1637  0FA9  398F               	andlw	-113
  1638  0FAA  3810               	iorlw	16
  1639  0FAB  008F               	movwf	15	;volatile
  1640                           
  1641                           ;./Oscilador.h: 15:             break;
  1642  0FAC  2FFE               	goto	l92
  1643  0FAD                     l2026:	
  1644                           
  1645                           ;./Oscilador.h: 18:             OSCCONbits.IRCF = 0b010;
  1646  0FAD  1683               	bsf	3,5	;RP0=1, select bank1
  1647  0FAE  1303               	bcf	3,6	;RP1=0, select bank1
  1648  0FAF  080F               	movf	15,w	;volatile
  1649  0FB0  398F               	andlw	-113
  1650  0FB1  3820               	iorlw	32
  1651  0FB2  008F               	movwf	15	;volatile
  1652                           
  1653                           ;./Oscilador.h: 19:             break;
  1654  0FB3  2FFE               	goto	l92
  1655  0FB4                     l2028:	
  1656                           
  1657                           ;./Oscilador.h: 22:             OSCCONbits.IRCF = 0b001;
  1658  0FB4  1683               	bsf	3,5	;RP0=1, select bank1
  1659  0FB5  1303               	bcf	3,6	;RP1=0, select bank1
  1660  0FB6  080F               	movf	15,w	;volatile
  1661  0FB7  398F               	andlw	-113
  1662  0FB8  3810               	iorlw	16
  1663  0FB9  008F               	movwf	15	;volatile
  1664                           
  1665                           ;./Oscilador.h: 23:             break;
  1666  0FBA  2FFE               	goto	l92
  1667  0FBB                     l2030:	
  1668                           
  1669                           ;./Oscilador.h: 26:             OSCCONbits.IRCF = 0b100;
  1670  0FBB  1683               	bsf	3,5	;RP0=1, select bank1
  1671  0FBC  1303               	bcf	3,6	;RP1=0, select bank1
  1672  0FBD  080F               	movf	15,w	;volatile
  1673  0FBE  398F               	andlw	-113
  1674  0FBF  3840               	iorlw	64
  1675  0FC0  008F               	movwf	15	;volatile
  1676                           
  1677                           ;./Oscilador.h: 27:             break;
  1678  0FC1  2FFE               	goto	l92
  1679  0FC2                     l2032:	
  1680                           
  1681                           ;./Oscilador.h: 30:             OSCCONbits.IRCF = 0b101;
  1682  0FC2  1683               	bsf	3,5	;RP0=1, select bank1
  1683  0FC3  1303               	bcf	3,6	;RP1=0, select bank1
  1684  0FC4  080F               	movf	15,w	;volatile
  1685  0FC5  398F               	andlw	-113
  1686  0FC6  3850               	iorlw	80
  1687  0FC7  008F               	movwf	15	;volatile
  1688                           
  1689                           ;./Oscilador.h: 31:             break;
  1690  0FC8  2FFE               	goto	l92
  1691  0FC9                     l2034:	
  1692                           
  1693                           ;./Oscilador.h: 34:             OSCCONbits.IRCF = 0b110;
  1694  0FC9  1683               	bsf	3,5	;RP0=1, select bank1
  1695  0FCA  1303               	bcf	3,6	;RP1=0, select bank1
  1696  0FCB  080F               	movf	15,w	;volatile
  1697  0FCC  398F               	andlw	-113
  1698  0FCD  3860               	iorlw	96
  1699  0FCE  008F               	movwf	15	;volatile
  1700                           
  1701                           ;./Oscilador.h: 35:             break;
  1702  0FCF  2FFE               	goto	l92
  1703  0FD0                     l2036:	
  1704                           
  1705                           ;./Oscilador.h: 38:             OSCCONbits.IRCF = 0b111;
  1706  0FD0  3070               	movlw	112
  1707  0FD1  1683               	bsf	3,5	;RP0=1, select bank1
  1708  0FD2  1303               	bcf	3,6	;RP1=0, select bank1
  1709  0FD3  048F               	iorwf	15,f	;volatile
  1710                           
  1711                           ;./Oscilador.h: 39:             break;
  1712  0FD4  2FFE               	goto	l92
  1713  0FD5                     l2038:	
  1714                           
  1715                           ;./Oscilador.h: 42:             OSCCONbits.IRCF = 0b110;
  1716  0FD5  1683               	bsf	3,5	;RP0=1, select bank1
  1717  0FD6  1303               	bcf	3,6	;RP1=0, select bank1
  1718  0FD7  080F               	movf	15,w	;volatile
  1719  0FD8  398F               	andlw	-113
  1720  0FD9  3860               	iorlw	96
  1721  0FDA  008F               	movwf	15	;volatile
  1722                           
  1723                           ;./Oscilador.h: 43:             break;
  1724  0FDB  2FFE               	goto	l92
  1725  0FDC                     l2042:	
  1726  0FDC  0872               	movf	iniciarOSC@frec,w
  1727  0FDD  00F0               	movwf	??_iniciarOSC
  1728  0FDE  01F1               	clrf	??_iniciarOSC+1
  1729                           
  1730                           ; Switch on 2 bytes has been partitioned into a top level switch of size 1, and 1 sub-sw
      +                          itches
  1731                           ; Switch size 1, requested type "simple"
  1732                           ; Number of cases is 1, Range of values is 0 to 0
  1733                           ; switch strategies available:
  1734                           ; Name         Instructions Cycles
  1735                           ; simple_byte            4     3 (average)
  1736                           ; direct_byte           11     8 (fixed)
  1737                           ; jumptable            260     6 (fixed)
  1738                           ;	Chosen strategy is simple_byte
  1739  0FDF  0871               	movf	??_iniciarOSC+1,w
  1740  0FE0  3A00               	xorlw	0	; case 0
  1741  0FE1  1903               	skipnz
  1742  0FE2  2FE4               	goto	l2396
  1743  0FE3  2FD5               	goto	l2038
  1744  0FE4                     l2396:	
  1745                           
  1746                           ; Switch size 1, requested type "simple"
  1747                           ; Number of cases is 8, Range of values is 0 to 7
  1748                           ; switch strategies available:
  1749                           ; Name         Instructions Cycles
  1750                           ; simple_byte           25    13 (average)
  1751                           ; direct_byte           32     8 (fixed)
  1752                           ; jumptable            260     6 (fixed)
  1753                           ;	Chosen strategy is simple_byte
  1754  0FE4  0870               	movf	??_iniciarOSC,w
  1755  0FE5  3A00               	xorlw	0	; case 0
  1756  0FE6  1903               	skipnz
  1757  0FE7  2FA1               	goto	l2022
  1758  0FE8  3A01               	xorlw	1	; case 1
  1759  0FE9  1903               	skipnz
  1760  0FEA  2FA6               	goto	l2024
  1761  0FEB  3A03               	xorlw	3	; case 2
  1762  0FEC  1903               	skipnz
  1763  0FED  2FAD               	goto	l2026
  1764  0FEE  3A01               	xorlw	1	; case 3
  1765  0FEF  1903               	skipnz
  1766  0FF0  2FB4               	goto	l2028
  1767  0FF1  3A07               	xorlw	7	; case 4
  1768  0FF2  1903               	skipnz
  1769  0FF3  2FBB               	goto	l2030
  1770  0FF4  3A01               	xorlw	1	; case 5
  1771  0FF5  1903               	skipnz
  1772  0FF6  2FC2               	goto	l2032
  1773  0FF7  3A03               	xorlw	3	; case 6
  1774  0FF8  1903               	skipnz
  1775  0FF9  2FC9               	goto	l2034
  1776  0FFA  3A01               	xorlw	1	; case 7
  1777  0FFB  1903               	skipnz
  1778  0FFC  2FD0               	goto	l2036
  1779  0FFD  2FD5               	goto	l2038
  1780  0FFE                     l92:	
  1781                           
  1782                           ;./Oscilador.h: 47:     OSCCONbits.SCS = 1;
  1783  0FFE  140F               	bsf	15,0	;volatile
  1784  0FFF                     l101:	
  1785  0FFF  0008               	return
  1786  1000                     __end_of_iniciarOSC:	
  1787                           
  1788                           	psect	text6
  1789  0EF2                     __ptext6:	
  1790 ;; *************** function _iniciarLCD *****************
  1791 ;; Defined at:
  1792 ;;		line 25 in file "./LCD.h"
  1793 ;; Parameters:    Size  Location     Type
  1794 ;;		None
  1795 ;; Auto vars:     Size  Location     Type
  1796 ;;		None
  1797 ;; Return value:  Size  Location     Type
  1798 ;;                  1    wreg      void 
  1799 ;; Registers used:
  1800 ;;		wreg, status,2, status,0, pclath, cstack
  1801 ;; Tracked objects:
  1802 ;;		On entry : 0/0
  1803 ;;		On exit  : 0/0
  1804 ;;		Unchanged: 0/0
  1805 ;; Data sizes:     COMMON   BANK0   BANK1   BANK3   BANK2
  1806 ;;      Params:         0       0       0       0       0
  1807 ;;      Locals:         0       0       0       0       0
  1808 ;;      Temps:          2       0       0       0       0
  1809 ;;      Totals:         2       0       0       0       0
  1810 ;;Total ram usage:        2 bytes
  1811 ;; Hardware stack levels used:    1
  1812 ;; Hardware stack levels required when called:    1
  1813 ;; This function calls:
  1814 ;;		_comando
  1815 ;; This function is called by:
  1816 ;;		_main
  1817 ;; This function uses a non-reentrant model
  1818 ;;
  1819                           
  1820                           
  1821                           ;psect for function _iniciarLCD
  1822  0EF2                     _iniciarLCD:	
  1823  0EF2                     l1962:	
  1824                           ;incstack = 0
  1825                           ; Regs used in _iniciarLCD: [wreg+status,2+status,0+pclath+cstack]
  1826                           
  1827                           
  1828                           ;./LCD.h: 27:     PORTDbits.RD6 = 0;
  1829  0EF2  1283               	bcf	3,5	;RP0=0, select bank0
  1830  0EF3  1303               	bcf	3,6	;RP1=0, select bank0
  1831  0EF4  1308               	bcf	8,6	;volatile
  1832  0EF5                     l1964:	
  1833                           
  1834                           ;./LCD.h: 29:     comando(0);
  1835  0EF5  3000               	movlw	0
  1836  0EF6  120A  158A  25E8  120A  158A  	fcall	_comando
  1837  0EFB                     l1966:	
  1838                           
  1839                           ;./LCD.h: 31:     _delay((unsigned long)((15)*(4000000/4000.0)));
  1840  0EFB  3014               	movlw	20
  1841  0EFC  00F4               	movwf	??_iniciarLCD+1
  1842  0EFD  3079               	movlw	121
  1843  0EFE  00F3               	movwf	??_iniciarLCD
  1844  0EFF                     u2997:	
  1845  0EFF  0BF3               	decfsz	??_iniciarLCD,f
  1846  0F00  2EFF               	goto	u2997
  1847  0F01  0BF4               	decfsz	??_iniciarLCD+1,f
  1848  0F02  2EFF               	goto	u2997
  1849  0F03  2F04               	nop2
  1850  0F04                     l1968:	
  1851                           
  1852                           ;./LCD.h: 33:     comando(0x30);
  1853  0F04  3030               	movlw	48
  1854  0F05  120A  158A  25E8  120A  158A  	fcall	_comando
  1855                           
  1856                           ;./LCD.h: 34:     _delay((unsigned long)((4)*(4000000/4000.0)));
  1857  0F0A  3006               	movlw	6
  1858  0F0B  00F4               	movwf	??_iniciarLCD+1
  1859  0F0C  3030               	movlw	48
  1860  0F0D  00F3               	movwf	??_iniciarLCD
  1861  0F0E                     u3007:	
  1862  0F0E  0BF3               	decfsz	??_iniciarLCD,f
  1863  0F0F  2F0E               	goto	u3007
  1864  0F10  0BF4               	decfsz	??_iniciarLCD+1,f
  1865  0F11  2F0E               	goto	u3007
  1866  0F12  0000               	nop
  1867  0F13                     l1970:	
  1868                           
  1869                           ;./LCD.h: 36:     comando(0x30);
  1870  0F13  3030               	movlw	48
  1871  0F14  120A  158A  25E8  120A  158A  	fcall	_comando
  1872  0F19                     l1972:	
  1873                           
  1874                           ;./LCD.h: 37:     _delay((unsigned long)((160)*(4000000/4000000.0)));
  1875  0F19  3035               	movlw	53
  1876  0F1A  00F3               	movwf	??_iniciarLCD
  1877  0F1B                     u3017:	
  1878  0F1B  0BF3               	decfsz	??_iniciarLCD,f
  1879  0F1C  2F1B               	goto	u3017
  1880                           
  1881                           ;./LCD.h: 39:     comando(0x30);
  1882  0F1D  3030               	movlw	48
  1883  0F1E  120A  158A  25E8  120A  158A  	fcall	_comando
  1884  0F23                     l1974:	
  1885                           
  1886                           ;./LCD.h: 40:     _delay((unsigned long)((160)*(4000000/4000000.0)));
  1887  0F23  3035               	movlw	53
  1888  0F24  00F3               	movwf	??_iniciarLCD
  1889  0F25                     u3027:	
  1890  0F25  0BF3               	decfsz	??_iniciarLCD,f
  1891  0F26  2F25               	goto	u3027
  1892  0F27                     l1976:	
  1893                           
  1894                           ;./LCD.h: 42:     comando(0x38);
  1895  0F27  3038               	movlw	56
  1896  0F28  120A  158A  25E8  120A  158A  	fcall	_comando
  1897  0F2D                     l1978:	
  1898                           
  1899                           ;./LCD.h: 44:     comando(0x10);
  1900  0F2D  3010               	movlw	16
  1901  0F2E  120A  158A  25E8  120A  158A  	fcall	_comando
  1902  0F33                     l1980:	
  1903                           
  1904                           ;./LCD.h: 46:     comando(0x01);
  1905  0F33  3001               	movlw	1
  1906  0F34  120A  158A  25E8  120A  158A  	fcall	_comando
  1907  0F39                     l1982:	
  1908                           
  1909                           ;./LCD.h: 48:     comando(0x06);
  1910  0F39  3006               	movlw	6
  1911  0F3A  120A  158A  25E8  120A  158A  	fcall	_comando
  1912  0F3F                     l1984:	
  1913                           
  1914                           ;./LCD.h: 50:     comando(0x0F);
  1915  0F3F  300F               	movlw	15
  1916  0F40  120A  158A  25E8  120A  158A  	fcall	_comando
  1917  0F45                     l69:	
  1918  0F45  0008               	return
  1919  0F46                     __end_of_iniciarLCD:	
  1920                           
  1921                           	psect	text7
  1922  0E89                     __ptext7:	
  1923 ;; *************** function _imprimir *****************
  1924 ;; Defined at:
  1925 ;;		line 78 in file "./LCD.h"
  1926 ;; Parameters:    Size  Location     Type
  1927 ;;  texto           1    wreg     PTR const unsigned char 
  1928 ;;		 -> STR_3(5), STR_2(4), STR_1(5), 
  1929 ;; Auto vars:     Size  Location     Type
  1930 ;;  texto           1    4[COMMON] PTR const unsigned char 
  1931 ;;		 -> STR_3(5), STR_2(4), STR_1(5), 
  1932 ;;  i               2    2[COMMON] int 
  1933 ;; Return value:  Size  Location     Type
  1934 ;;                  1    wreg      void 
  1935 ;; Registers used:
  1936 ;;		wreg, fsr0l, fsr0h, status,2, status,0, pclath
  1937 ;; Tracked objects:
  1938 ;;		On entry : 0/0
  1939 ;;		On exit  : 0/0
  1940 ;;		Unchanged: 0/0
  1941 ;; Data sizes:     COMMON   BANK0   BANK1   BANK3   BANK2
  1942 ;;      Params:         0       0       0       0       0
  1943 ;;      Locals:         3       0       0       0       0
  1944 ;;      Temps:          2       0       0       0       0
  1945 ;;      Totals:         5       0       0       0       0
  1946 ;;Total ram usage:        5 bytes
  1947 ;; Hardware stack levels used:    2
  1948 ;; This function calls:
  1949 ;;		Nothing
  1950 ;; This function is called by:
  1951 ;;		_main
  1952 ;; This function uses a non-reentrant model
  1953 ;;
  1954                           
  1955                           
  1956                           ;psect for function _imprimir
  1957  0E89                     _imprimir:	
  1958                           
  1959                           ;incstack = 0
  1960                           ; Regs used in _imprimir: [wreg-fsr0h+status,2+status,0+pclath]
  1961                           ;imprimir@texto stored from wreg
  1962  0E89  00F4               	movwf	imprimir@texto
  1963  0E8A                     l2000:	
  1964                           
  1965                           ;./LCD.h: 78: void imprimir(const char *texto);./LCD.h: 79: {;./LCD.h: 80:     for(int i
      +                           = 0; texto[i] != '\0'; i++)
  1966  0E8A  01F2               	clrf	imprimir@i
  1967  0E8B  01F3               	clrf	imprimir@i+1
  1968  0E8C  2EAC               	goto	l81
  1969  0E8D                     l82:	
  1970                           
  1971                           ;./LCD.h: 81:     {;./LCD.h: 82:         PORTDbits.RD6 = 1;
  1972  0E8D  1283               	bcf	3,5	;RP0=0, select bank0
  1973  0E8E  1303               	bcf	3,6	;RP1=0, select bank0
  1974  0E8F  1708               	bsf	8,6	;volatile
  1975  0E90                     l2002:	
  1976                           
  1977                           ;./LCD.h: 83:         PORTB = texto[i];
  1978  0E90  0872               	movf	imprimir@i,w
  1979  0E91  0774               	addwf	imprimir@texto,w
  1980  0E92  0084               	movwf	4
  1981  0E93  120A  158A  2000  120A  158A  	fcall	stringdir
  1982  0E98  0086               	movwf	6	;volatile
  1983  0E99                     l2004:	
  1984                           
  1985                           ;./LCD.h: 84:         PORTDbits.RD7 = 1;
  1986  0E99  1788               	bsf	8,7	;volatile
  1987  0E9A                     l2006:	
  1988                           
  1989                           ;./LCD.h: 85:         _delay((unsigned long)((2)*(4000000/4000.0)));
  1990  0E9A  3003               	movlw	3
  1991  0E9B  00F1               	movwf	??_imprimir+1
  1992  0E9C  3097               	movlw	151
  1993  0E9D  00F0               	movwf	??_imprimir
  1994  0E9E                     u3037:	
  1995  0E9E  0BF0               	decfsz	??_imprimir,f
  1996  0E9F  2E9E               	goto	u3037
  1997  0EA0  0BF1               	decfsz	??_imprimir+1,f
  1998  0EA1  2E9E               	goto	u3037
  1999  0EA2  2EA3               	nop2
  2000  0EA3                     l2008:	
  2001                           
  2002                           ;./LCD.h: 86:         PORTDbits.RD7 = 0;
  2003  0EA3  1283               	bcf	3,5	;RP0=0, select bank0
  2004  0EA4  1303               	bcf	3,6	;RP1=0, select bank0
  2005  0EA5  1388               	bcf	8,7	;volatile
  2006  0EA6                     l2010:	
  2007                           
  2008                           ;./LCD.h: 87:     }
  2009  0EA6  3001               	movlw	1
  2010  0EA7  07F2               	addwf	imprimir@i,f
  2011  0EA8  1803               	skipnc
  2012  0EA9  0AF3               	incf	imprimir@i+1,f
  2013  0EAA  3000               	movlw	0
  2014  0EAB  07F3               	addwf	imprimir@i+1,f
  2015  0EAC                     l81:	
  2016  0EAC  0872               	movf	imprimir@i,w
  2017  0EAD  0774               	addwf	imprimir@texto,w
  2018  0EAE  0084               	movwf	4
  2019  0EAF  120A  158A  2000  120A  158A  	fcall	stringdir
  2020  0EB4  3A00               	xorlw	0
  2021  0EB5  1D03               	skipz
  2022  0EB6  2EB8               	goto	u2371
  2023  0EB7  2EB9               	goto	u2370
  2024  0EB8                     u2371:	
  2025  0EB8  2E8D               	goto	l82
  2026  0EB9                     u2370:	
  2027  0EB9                     l84:	
  2028  0EB9  0008               	return
  2029  0EBA                     __end_of_imprimir:	
  2030                           
  2031                           	psect	text8
  2032  036C                     __ptext8:	
  2033 ;; *************** function _conversion *****************
  2034 ;; Defined at:
  2035 ;;		line 63 in file "Carcelero.c"
  2036 ;; Parameters:    Size  Location     Type
  2037 ;;		None
  2038 ;; Auto vars:     Size  Location     Type
  2039 ;;		None
  2040 ;; Return value:  Size  Location     Type
  2041 ;;                  1    wreg      void 
  2042 ;; Registers used:
  2043 ;;		wreg, status,2, status,0, btemp+1, pclath, cstack
  2044 ;; Tracked objects:
  2045 ;;		On entry : 0/0
  2046 ;;		On exit  : 0/0
  2047 ;;		Unchanged: 0/0
  2048 ;; Data sizes:     COMMON   BANK0   BANK1   BANK3   BANK2
  2049 ;;      Params:         0       0       0       0       0
  2050 ;;      Locals:         0       0       0       0       0
  2051 ;;      Temps:          0       2       0       0       0
  2052 ;;      Totals:         0       2       0       0       0
  2053 ;;Total ram usage:        2 bytes
  2054 ;; Hardware stack levels used:    1
  2055 ;; Hardware stack levels required when called:    2
  2056 ;; This function calls:
  2057 ;;		___awdiv
  2058 ;;		___awmod
  2059 ;;		___flmul
  2060 ;;		___fltol
  2061 ;; This function is called by:
  2062 ;;		_main
  2063 ;; This function uses a non-reentrant model
  2064 ;;
  2065                           
  2066                           
  2067                           ;psect for function _conversion
  2068  036C                     _conversion:	
  2069  036C                     l2048:	
  2070                           ;incstack = 0
  2071                           ; Regs used in _conversion: [wreg+status,2+status,0+btemp+1+pclath+cstack]
  2072                           
  2073                           
  2074                           ;Carcelero.c: 65:     Humo = (MQ2*1);
  2075  036C  1283               	bcf	3,5	;RP0=0, select bank0
  2076  036D  1303               	bcf	3,6	;RP1=0, select bank0
  2077  036E  01C6               	clrf	_Humo
  2078  036F  01C7               	clrf	_Humo+1
  2079  0370                     l2050:	
  2080                           
  2081                           ;Carcelero.c: 66:     x = Humo/100;
  2082  0370  3064               	movlw	100
  2083  0371  00F0               	movwf	___awdiv@divisor
  2084  0372  3000               	movlw	0
  2085  0373  00F1               	movwf	___awdiv@divisor+1
  2086  0374  0847               	movf	_Humo+1,w
  2087  0375  00F3               	movwf	___awdiv@dividend+1
  2088  0376  0846               	movf	_Humo,w
  2089  0377  00F2               	movwf	___awdiv@dividend
  2090  0378  120A  118A  206A  120A  118A  	fcall	___awdiv
  2091  037D  0871               	movf	?___awdiv+1,w
  2092  037E  1283               	bcf	3,5	;RP0=0, select bank0
  2093  037F  1303               	bcf	3,6	;RP1=0, select bank0
  2094  0380  00C1               	movwf	_x+1
  2095  0381  0870               	movf	?___awdiv,w
  2096  0382  00C0               	movwf	_x
  2097  0383                     l2052:	
  2098                           
  2099                           ;Carcelero.c: 67:     x1 = Humo%100;
  2100  0383  3064               	movlw	100
  2101  0384  00F0               	movwf	___awmod@divisor
  2102  0385  3000               	movlw	0
  2103  0386  00F1               	movwf	___awmod@divisor+1
  2104  0387  0847               	movf	_Humo+1,w
  2105  0388  00F3               	movwf	___awmod@dividend+1
  2106  0389  0846               	movf	_Humo,w
  2107  038A  00F2               	movwf	___awmod@dividend
  2108  038B  120A  158A  2746  120A  118A  	fcall	___awmod
  2109  0390  0871               	movf	?___awmod+1,w
  2110  0391  1283               	bcf	3,5	;RP0=0, select bank0
  2111  0392  1303               	bcf	3,6	;RP1=0, select bank0
  2112  0393  00BF               	movwf	_x1+1
  2113  0394  0870               	movf	?___awmod,w
  2114  0395  00BE               	movwf	_x1
  2115  0396                     l2054:	
  2116                           
  2117                           ;Carcelero.c: 68:     x2 = x1/10;
  2118  0396  300A               	movlw	10
  2119  0397  00F0               	movwf	___awdiv@divisor
  2120  0398  3000               	movlw	0
  2121  0399  00F1               	movwf	___awdiv@divisor+1
  2122  039A  083F               	movf	_x1+1,w
  2123  039B  00F3               	movwf	___awdiv@dividend+1
  2124  039C  083E               	movf	_x1,w
  2125  039D  00F2               	movwf	___awdiv@dividend
  2126  039E  120A  118A  206A  120A  118A  	fcall	___awdiv
  2127  03A3  0871               	movf	?___awdiv+1,w
  2128  03A4  1283               	bcf	3,5	;RP0=0, select bank0
  2129  03A5  1303               	bcf	3,6	;RP1=0, select bank0
  2130  03A6  00BD               	movwf	_x2+1
  2131  03A7  0870               	movf	?___awdiv,w
  2132  03A8  00BC               	movwf	_x2
  2133  03A9                     l2056:	
  2134                           
  2135                           ;Carcelero.c: 69:     x3 = x1%10;
  2136  03A9  300A               	movlw	10
  2137  03AA  00F0               	movwf	___awmod@divisor
  2138  03AB  3000               	movlw	0
  2139  03AC  00F1               	movwf	___awmod@divisor+1
  2140  03AD  083F               	movf	_x1+1,w
  2141  03AE  00F3               	movwf	___awmod@dividend+1
  2142  03AF  083E               	movf	_x1,w
  2143  03B0  00F2               	movwf	___awmod@dividend
  2144  03B1  120A  158A  2746  120A  118A  	fcall	___awmod
  2145  03B6  0871               	movf	?___awmod+1,w
  2146  03B7  1283               	bcf	3,5	;RP0=0, select bank0
  2147  03B8  1303               	bcf	3,6	;RP1=0, select bank0
  2148  03B9  00BB               	movwf	_x3+1
  2149  03BA  0870               	movf	?___awmod,w
  2150  03BB  00BA               	movwf	_x3
  2151  03BC                     l2058:	
  2152                           
  2153                           ;Carcelero.c: 71:     Luz = (Fotor*1);
  2154  03BC  0849               	movf	_Fotor,w
  2155  03BD  00EB               	movwf	??_conversion
  2156  03BE  01EC               	clrf	??_conversion+1
  2157  03BF  086B               	movf	??_conversion,w
  2158  03C0  00C4               	movwf	_Luz
  2159  03C1  086C               	movf	??_conversion+1,w
  2160  03C2  00C5               	movwf	_Luz+1
  2161  03C3                     l2060:	
  2162                           
  2163                           ;Carcelero.c: 72:     y = Luz/100;
  2164  03C3  3064               	movlw	100
  2165  03C4  00F0               	movwf	___awdiv@divisor
  2166  03C5  3000               	movlw	0
  2167  03C6  00F1               	movwf	___awdiv@divisor+1
  2168  03C7  0845               	movf	_Luz+1,w
  2169  03C8  00F3               	movwf	___awdiv@dividend+1
  2170  03C9  0844               	movf	_Luz,w
  2171  03CA  00F2               	movwf	___awdiv@dividend
  2172  03CB  120A  118A  206A  120A  118A  	fcall	___awdiv
  2173  03D0  0871               	movf	?___awdiv+1,w
  2174  03D1  1283               	bcf	3,5	;RP0=0, select bank0
  2175  03D2  1303               	bcf	3,6	;RP1=0, select bank0
  2176  03D3  00B9               	movwf	_y+1
  2177  03D4  0870               	movf	?___awdiv,w
  2178  03D5  00B8               	movwf	_y
  2179  03D6                     l2062:	
  2180                           
  2181                           ;Carcelero.c: 73:     y1 = Luz%100;
  2182  03D6  3064               	movlw	100
  2183  03D7  00F0               	movwf	___awmod@divisor
  2184  03D8  3000               	movlw	0
  2185  03D9  00F1               	movwf	___awmod@divisor+1
  2186  03DA  0845               	movf	_Luz+1,w
  2187  03DB  00F3               	movwf	___awmod@dividend+1
  2188  03DC  0844               	movf	_Luz,w
  2189  03DD  00F2               	movwf	___awmod@dividend
  2190  03DE  120A  158A  2746  120A  118A  	fcall	___awmod
  2191  03E3  0871               	movf	?___awmod+1,w
  2192  03E4  1283               	bcf	3,5	;RP0=0, select bank0
  2193  03E5  1303               	bcf	3,6	;RP1=0, select bank0
  2194  03E6  00B7               	movwf	_y1+1
  2195  03E7  0870               	movf	?___awmod,w
  2196  03E8  00B6               	movwf	_y1
  2197  03E9                     l2064:	
  2198                           
  2199                           ;Carcelero.c: 74:     y2 = y1/10;
  2200  03E9  300A               	movlw	10
  2201  03EA  00F0               	movwf	___awdiv@divisor
  2202  03EB  3000               	movlw	0
  2203  03EC  00F1               	movwf	___awdiv@divisor+1
  2204  03ED  0837               	movf	_y1+1,w
  2205  03EE  00F3               	movwf	___awdiv@dividend+1
  2206  03EF  0836               	movf	_y1,w
  2207  03F0  00F2               	movwf	___awdiv@dividend
  2208  03F1  120A  118A  206A  120A  118A  	fcall	___awdiv
  2209  03F6  0871               	movf	?___awdiv+1,w
  2210  03F7  1283               	bcf	3,5	;RP0=0, select bank0
  2211  03F8  1303               	bcf	3,6	;RP1=0, select bank0
  2212  03F9  00B5               	movwf	_y2+1
  2213  03FA  0870               	movf	?___awdiv,w
  2214  03FB  00B4               	movwf	_y2
  2215  03FC                     l2066:	
  2216                           
  2217                           ;Carcelero.c: 75:     y3 = y1%10;
  2218  03FC  300A               	movlw	10
  2219  03FD  00F0               	movwf	___awmod@divisor
  2220  03FE  3000               	movlw	0
  2221  03FF  00F1               	movwf	___awmod@divisor+1
  2222  0400  0837               	movf	_y1+1,w
  2223  0401  00F3               	movwf	___awmod@dividend+1
  2224  0402  0836               	movf	_y1,w
  2225  0403  00F2               	movwf	___awmod@dividend
  2226  0404  120A  158A  2746  120A  118A  	fcall	___awmod
  2227  0409  0871               	movf	?___awmod+1,w
  2228  040A  1283               	bcf	3,5	;RP0=0, select bank0
  2229  040B  1303               	bcf	3,6	;RP1=0, select bank0
  2230  040C  00B3               	movwf	_y3+1
  2231  040D  0870               	movf	?___awmod,w
  2232  040E  00B2               	movwf	_y3
  2233  040F                     l2068:	
  2234                           
  2235                           ;Carcelero.c: 77:     Tempe = (LM35*5.0)/255;
  2236  040F  3000               	movlw	0
  2237  0410  00A3               	movwf	_Tempe+3
  2238  0411  3000               	movlw	0
  2239  0412  00A2               	movwf	_Tempe+2
  2240  0413  3000               	movlw	0
  2241  0414  00A1               	movwf	_Tempe+1
  2242  0415  3000               	movlw	0
  2243  0416  00A0               	movwf	_Tempe
  2244  0417                     l2070:	
  2245                           
  2246                           ;Carcelero.c: 78:     z = Tempe*100;
  2247  0417  0823               	movf	_Tempe+3,w
  2248  0418  00D2               	movwf	___flmul@a+3
  2249  0419  0822               	movf	_Tempe+2,w
  2250  041A  00D1               	movwf	___flmul@a+2
  2251  041B  0821               	movf	_Tempe+1,w
  2252  041C  00D0               	movwf	___flmul@a+1
  2253  041D  0820               	movf	_Tempe,w
  2254  041E  00CF               	movwf	___flmul@a
  2255  041F  3042               	movlw	66
  2256  0420  00CE               	movwf	___flmul@b+3
  2257  0421  30C8               	movlw	200
  2258  0422  00CD               	movwf	___flmul@b+2
  2259  0423  3000               	movlw	0
  2260  0424  00CC               	movwf	___flmul@b+1
  2261  0425  3000               	movlw	0
  2262  0426  00CB               	movwf	___flmul@b
  2263  0427  120A  118A  248E  120A  118A  	fcall	___flmul
  2264  042C  1283               	bcf	3,5	;RP0=0, select bank0
  2265  042D  1303               	bcf	3,6	;RP1=0, select bank0
  2266  042E  084E               	movf	?___flmul+3,w
  2267  042F  00E3               	movwf	___fltol@f1+3
  2268  0430  084D               	movf	?___flmul+2,w
  2269  0431  00E2               	movwf	___fltol@f1+2
  2270  0432  084C               	movf	?___flmul+1,w
  2271  0433  00E1               	movwf	___fltol@f1+1
  2272  0434  084B               	movf	?___flmul,w
  2273  0435  00E0               	movwf	___fltol@f1
  2274  0436  120A  118A  20D1  120A  118A  	fcall	___fltol
  2275  043B  1283               	bcf	3,5	;RP0=0, select bank0
  2276  043C  1303               	bcf	3,6	;RP1=0, select bank0
  2277  043D  0861               	movf	?___fltol+1,w
  2278  043E  00B1               	movwf	_z+1
  2279  043F  0860               	movf	?___fltol,w
  2280  0440  00B0               	movwf	_z
  2281  0441                     l2072:	
  2282                           
  2283                           ;Carcelero.c: 79:     z1 = z/100;
  2284  0441  3064               	movlw	100
  2285  0442  00F0               	movwf	___awdiv@divisor
  2286  0443  3000               	movlw	0
  2287  0444  00F1               	movwf	___awdiv@divisor+1
  2288  0445  0831               	movf	_z+1,w
  2289  0446  00F3               	movwf	___awdiv@dividend+1
  2290  0447  0830               	movf	_z,w
  2291  0448  00F2               	movwf	___awdiv@dividend
  2292  0449  120A  118A  206A  120A  118A  	fcall	___awdiv
  2293  044E  0871               	movf	?___awdiv+1,w
  2294  044F  1283               	bcf	3,5	;RP0=0, select bank0
  2295  0450  1303               	bcf	3,6	;RP1=0, select bank0
  2296  0451  00AF               	movwf	_z1+1
  2297  0452  0870               	movf	?___awdiv,w
  2298  0453  00AE               	movwf	_z1
  2299  0454                     l2074:	
  2300                           
  2301                           ;Carcelero.c: 80:     z2 = z%100;
  2302  0454  3064               	movlw	100
  2303  0455  00F0               	movwf	___awmod@divisor
  2304  0456  3000               	movlw	0
  2305  0457  00F1               	movwf	___awmod@divisor+1
  2306  0458  0831               	movf	_z+1,w
  2307  0459  00F3               	movwf	___awmod@dividend+1
  2308  045A  0830               	movf	_z,w
  2309  045B  00F2               	movwf	___awmod@dividend
  2310  045C  120A  158A  2746  120A  118A  	fcall	___awmod
  2311  0461  0871               	movf	?___awmod+1,w
  2312  0462  1283               	bcf	3,5	;RP0=0, select bank0
  2313  0463  1303               	bcf	3,6	;RP1=0, select bank0
  2314  0464  00AD               	movwf	_z2+1
  2315  0465  0870               	movf	?___awmod,w
  2316  0466  00AC               	movwf	_z2
  2317  0467                     l2076:	
  2318                           
  2319                           ;Carcelero.c: 81:     z3 = z2/10;
  2320  0467  300A               	movlw	10
  2321  0468  00F0               	movwf	___awdiv@divisor
  2322  0469  3000               	movlw	0
  2323  046A  00F1               	movwf	___awdiv@divisor+1
  2324  046B  082D               	movf	_z2+1,w
  2325  046C  00F3               	movwf	___awdiv@dividend+1
  2326  046D  082C               	movf	_z2,w
  2327  046E  00F2               	movwf	___awdiv@dividend
  2328  046F  120A  118A  206A  120A  118A  	fcall	___awdiv
  2329  0474  0871               	movf	?___awdiv+1,w
  2330  0475  1283               	bcf	3,5	;RP0=0, select bank0
  2331  0476  1303               	bcf	3,6	;RP1=0, select bank0
  2332  0477  00AB               	movwf	_z3+1
  2333  0478  0870               	movf	?___awdiv,w
  2334  0479  00AA               	movwf	_z3
  2335  047A                     l2078:	
  2336                           
  2337                           ;Carcelero.c: 82:     z4 = z2%10;
  2338  047A  300A               	movlw	10
  2339  047B  00F0               	movwf	___awmod@divisor
  2340  047C  3000               	movlw	0
  2341  047D  00F1               	movwf	___awmod@divisor+1
  2342  047E  082D               	movf	_z2+1,w
  2343  047F  00F3               	movwf	___awmod@dividend+1
  2344  0480  082C               	movf	_z2,w
  2345  0481  00F2               	movwf	___awmod@dividend
  2346  0482  120A  158A  2746  120A  118A  	fcall	___awmod
  2347  0487  0871               	movf	?___awmod+1,w
  2348  0488  1283               	bcf	3,5	;RP0=0, select bank0
  2349  0489  1303               	bcf	3,6	;RP1=0, select bank0
  2350  048A  00A9               	movwf	_z4+1
  2351  048B  0870               	movf	?___awmod,w
  2352  048C  00A8               	movwf	_z4
  2353  048D                     l152:	
  2354  048D  0008               	return
  2355  048E                     __end_of_conversion:	
  2356                           
  2357                           	psect	text9
  2358  00D1                     __ptext9:	
  2359 ;; *************** function ___fltol *****************
  2360 ;; Defined at:
  2361 ;;		line 43 in file "C:\Program Files (x86)\Microchip\xc8\v2.10\pic\sources\c90\common\fltol.c"
  2362 ;; Parameters:    Size  Location     Type
  2363 ;;  f1              4   21[BANK0 ] void 
  2364 ;; Auto vars:     Size  Location     Type
  2365 ;;  exp1            1   31[BANK0 ] unsigned char 
  2366 ;;  sign1           1   30[BANK0 ] unsigned char 
  2367 ;; Return value:  Size  Location     Type
  2368 ;;                  4   21[BANK0 ] long 
  2369 ;; Registers used:
  2370 ;;		wreg, status,2, status,0
  2371 ;; Tracked objects:
  2372 ;;		On entry : 0/0
  2373 ;;		On exit  : 0/0
  2374 ;;		Unchanged: 0/0
  2375 ;; Data sizes:     COMMON   BANK0   BANK1   BANK3   BANK2
  2376 ;;      Params:         0       4       0       0       0
  2377 ;;      Locals:         0       2       0       0       0
  2378 ;;      Temps:          0       5       0       0       0
  2379 ;;      Totals:         0      11       0       0       0
  2380 ;;Total ram usage:       11 bytes
  2381 ;; Hardware stack levels used:    1
  2382 ;; This function calls:
  2383 ;;		Nothing
  2384 ;; This function is called by:
  2385 ;;		_conversion
  2386 ;; This function uses a non-reentrant model
  2387 ;;
  2388                           
  2389                           
  2390                           ;psect for function ___fltol
  2391  00D1                     ___fltol:	
  2392  00D1                     l1746:	
  2393                           ;incstack = 0
  2394                           ; Regs used in ___fltol: [wreg+status,2+status,0]
  2395                           
  2396  00D1  1003               	clrc
  2397  00D2  1283               	bcf	3,5	;RP0=0, select bank0
  2398  00D3  1303               	bcf	3,6	;RP1=0, select bank0
  2399  00D4  0D62               	rlf	___fltol@f1+2,w
  2400  00D5  0D63               	rlf	___fltol@f1+3,w
  2401  00D6  00E4               	movwf	??___fltol
  2402  00D7  0864               	movf	??___fltol,w
  2403  00D8  00EA               	movwf	___fltol@exp1
  2404  00D9  086A               	movf	___fltol@exp1,w
  2405  00DA  1D03               	btfss	3,2
  2406  00DB  28DD               	goto	u1861
  2407  00DC  28DE               	goto	u1860
  2408  00DD                     u1861:	
  2409  00DD  28E7               	goto	l1752
  2410  00DE                     u1860:	
  2411  00DE                     l1748:	
  2412  00DE  3000               	movlw	0
  2413  00DF  00E3               	movwf	?___fltol+3
  2414  00E0  3000               	movlw	0
  2415  00E1  00E2               	movwf	?___fltol+2
  2416  00E2  3000               	movlw	0
  2417  00E3  00E1               	movwf	?___fltol+1
  2418  00E4  3000               	movlw	0
  2419  00E5  00E0               	movwf	?___fltol
  2420  00E6  294C               	goto	l456
  2421  00E7                     l1752:	
  2422  00E7  0860               	movf	___fltol@f1,w
  2423  00E8  00E4               	movwf	??___fltol
  2424  00E9  0861               	movf	___fltol@f1+1,w
  2425  00EA  00E5               	movwf	??___fltol+1
  2426  00EB  0862               	movf	___fltol@f1+2,w
  2427  00EC  00E6               	movwf	??___fltol+2
  2428  00ED  0863               	movf	___fltol@f1+3,w
  2429  00EE  00E7               	movwf	??___fltol+3
  2430  00EF  301F               	movlw	31
  2431  00F0                     u1875:	
  2432  00F0  1003               	clrc
  2433  00F1  0CE7               	rrf	??___fltol+3,f
  2434  00F2  0CE6               	rrf	??___fltol+2,f
  2435  00F3  0CE5               	rrf	??___fltol+1,f
  2436  00F4  0CE4               	rrf	??___fltol,f
  2437  00F5                     u1870:	
  2438  00F5  3EFF               	addlw	-1
  2439  00F6  1D03               	skipz
  2440  00F7  28F0               	goto	u1875
  2441  00F8  0864               	movf	??___fltol,w
  2442  00F9  00E8               	movwf	??___fltol+4
  2443  00FA  0868               	movf	??___fltol+4,w
  2444  00FB  00E9               	movwf	___fltol@sign1
  2445  00FC                     l1754:	
  2446  00FC  17E2               	bsf	___fltol@f1+2,7
  2447  00FD                     l1756:	
  2448  00FD  30FF               	movlw	255
  2449  00FE  05E0               	andwf	___fltol@f1,f
  2450  00FF  30FF               	movlw	255
  2451  0100  05E1               	andwf	___fltol@f1+1,f
  2452  0101  30FF               	movlw	255
  2453  0102  05E2               	andwf	___fltol@f1+2,f
  2454  0103  3000               	movlw	0
  2455  0104  05E3               	andwf	___fltol@f1+3,f
  2456  0105                     l1758:	
  2457  0105  3096               	movlw	150
  2458  0106  02EA               	subwf	___fltol@exp1,f
  2459  0107                     l1760:	
  2460  0107  1FEA               	btfss	___fltol@exp1,7
  2461  0108  290A               	goto	u1881
  2462  0109  290B               	goto	u1880
  2463  010A                     u1881:	
  2464  010A  2925               	goto	l1770
  2465  010B                     u1880:	
  2466  010B                     l1762:	
  2467  010B  086A               	movf	___fltol@exp1,w
  2468  010C  3A80               	xorlw	128
  2469  010D  3E97               	addlw	151
  2470  010E  1803               	skipnc
  2471  010F  2911               	goto	u1891
  2472  0110  2912               	goto	u1890
  2473  0111                     u1891:	
  2474  0111  2913               	goto	l1768
  2475  0112                     u1890:	
  2476  0112  28DE               	goto	l1748
  2477  0113                     l1768:	
  2478  0113  3001               	movlw	1
  2479  0114                     u1905:	
  2480  0114  1003               	clrc
  2481  0115  0CE3               	rrf	___fltol@f1+3,f
  2482  0116  0CE2               	rrf	___fltol@f1+2,f
  2483  0117  0CE1               	rrf	___fltol@f1+1,f
  2484  0118  0CE0               	rrf	___fltol@f1,f
  2485  0119  3EFF               	addlw	-1
  2486  011A  1D03               	skipz
  2487  011B  2914               	goto	u1905
  2488  011C  3001               	movlw	1
  2489  011D  00E4               	movwf	??___fltol
  2490  011E  0864               	movf	??___fltol,w
  2491  011F  07EA               	addwf	___fltol@exp1,f
  2492  0120  1D03               	btfss	3,2
  2493  0121  2923               	goto	u1911
  2494  0122  2924               	goto	u1910
  2495  0123                     u1911:	
  2496  0123  2913               	goto	l1768
  2497  0124                     u1910:	
  2498  0124  293C               	goto	l1778
  2499  0125                     l1770:	
  2500  0125  3020               	movlw	32
  2501  0126  026A               	subwf	___fltol@exp1,w
  2502  0127  1C03               	skipc
  2503  0128  292A               	goto	u1921
  2504  0129  292B               	goto	u1920
  2505  012A                     u1921:	
  2506  012A  2937               	goto	l463
  2507  012B                     u1920:	
  2508  012B  28DE               	goto	l1748
  2509  012C                     l1776:	
  2510  012C  3001               	movlw	1
  2511  012D  00E4               	movwf	??___fltol
  2512  012E                     u1935:	
  2513  012E  1003               	clrc
  2514  012F  0DE0               	rlf	___fltol@f1,f
  2515  0130  0DE1               	rlf	___fltol@f1+1,f
  2516  0131  0DE2               	rlf	___fltol@f1+2,f
  2517  0132  0DE3               	rlf	___fltol@f1+3,f
  2518  0133  0BE4               	decfsz	??___fltol,f
  2519  0134  292E               	goto	u1935
  2520  0135  3001               	movlw	1
  2521  0136  02EA               	subwf	___fltol@exp1,f
  2522  0137                     l463:	
  2523  0137  086A               	movf	___fltol@exp1,w
  2524  0138  1D03               	btfss	3,2
  2525  0139  293B               	goto	u1941
  2526  013A  293C               	goto	u1940
  2527  013B                     u1941:	
  2528  013B  292C               	goto	l1776
  2529  013C                     u1940:	
  2530  013C                     l1778:	
  2531  013C  0869               	movf	___fltol@sign1,w
  2532  013D  1903               	btfsc	3,2
  2533  013E  2940               	goto	u1951
  2534  013F  2941               	goto	u1950
  2535  0140                     u1951:	
  2536  0140  294C               	goto	l466
  2537  0141                     u1950:	
  2538  0141                     l1780:	
  2539  0141  09E0               	comf	___fltol@f1,f
  2540  0142  09E1               	comf	___fltol@f1+1,f
  2541  0143  09E2               	comf	___fltol@f1+2,f
  2542  0144  09E3               	comf	___fltol@f1+3,f
  2543  0145  0AE0               	incf	___fltol@f1,f
  2544  0146  1903               	skipnz
  2545  0147  0AE1               	incf	___fltol@f1+1,f
  2546  0148  1903               	skipnz
  2547  0149  0AE2               	incf	___fltol@f1+2,f
  2548  014A  1903               	skipnz
  2549  014B  0AE3               	incf	___fltol@f1+3,f
  2550  014C                     l466:	
  2551  014C                     l456:	
  2552  014C  0008               	return
  2553  014D                     __end_of___fltol:	
  2554                           
  2555                           	psect	text10
  2556  048E                     __ptext10:	
  2557 ;; *************** function ___flmul *****************
  2558 ;; Defined at:
  2559 ;;		line 8 in file "C:\Program Files (x86)\Microchip\xc8\v2.10\pic\sources\c90\common\sprcmul.c"
  2560 ;; Parameters:    Size  Location     Type
  2561 ;;  b               4    0[BANK0 ] long 
  2562 ;;  a               4    4[BANK0 ] long 
  2563 ;; Auto vars:     Size  Location     Type
  2564 ;;  prod            4   15[BANK0 ] struct .
  2565 ;;  grs             4    9[BANK0 ] unsigned long 
  2566 ;;  temp            2   19[BANK0 ] struct .
  2567 ;;  bexp            1   14[BANK0 ] unsigned char 
  2568 ;;  aexp            1   13[BANK0 ] unsigned char 
  2569 ;;  sign            1    8[BANK0 ] unsigned char 
  2570 ;; Return value:  Size  Location     Type
  2571 ;;                  4    0[BANK0 ] unsigned char 
  2572 ;; Registers used:
  2573 ;;		wreg, status,2, status,0, btemp+1, pclath, cstack
  2574 ;; Tracked objects:
  2575 ;;		On entry : 0/0
  2576 ;;		On exit  : 0/0
  2577 ;;		Unchanged: 0/0
  2578 ;; Data sizes:     COMMON   BANK0   BANK1   BANK3   BANK2
  2579 ;;      Params:         0       8       0       0       0
  2580 ;;      Locals:         0      13       0       0       0
  2581 ;;      Temps:          5       0       0       0       0
  2582 ;;      Totals:         5      21       0       0       0
  2583 ;;Total ram usage:       26 bytes
  2584 ;; Hardware stack levels used:    1
  2585 ;; Hardware stack levels required when called:    1
  2586 ;; This function calls:
  2587 ;;		__Umul8_16
  2588 ;; This function is called by:
  2589 ;;		_conversion
  2590 ;; This function uses a non-reentrant model
  2591 ;;
  2592                           
  2593                           
  2594                           ;psect for function ___flmul
  2595  048E                     ___flmul:	
  2596  048E                     l1782:	
  2597                           ;incstack = 0
  2598                           ; Regs used in ___flmul: [wreg+status,2+status,0+btemp+1+pclath+cstack]
  2599                           
  2600  048E  1283               	bcf	3,5	;RP0=0, select bank0
  2601  048F  1303               	bcf	3,6	;RP1=0, select bank0
  2602  0490  084E               	movf	___flmul@b+3,w
  2603  0491  3980               	andlw	128
  2604  0492  00F9               	movwf	??___flmul
  2605  0493  0879               	movf	??___flmul,w
  2606  0494  00D3               	movwf	___flmul@sign
  2607  0495                     l1784:	
  2608  0495  084E               	movf	___flmul@b+3,w
  2609  0496  00F9               	movwf	??___flmul
  2610  0497  0779               	addwf	??___flmul,w
  2611  0498  00FA               	movwf	??___flmul+1
  2612  0499  087A               	movf	??___flmul+1,w
  2613  049A  00D9               	movwf	___flmul@bexp
  2614  049B                     l1786:	
  2615  049B  1FCD               	btfss	___flmul@b+2,7
  2616  049C  2C9E               	goto	u1961
  2617  049D  2C9F               	goto	u1960
  2618  049E                     u1961:	
  2619  049E  2CA0               	goto	l1790
  2620  049F                     u1960:	
  2621  049F                     l1788:	
  2622  049F  1459               	bsf	___flmul@bexp,0
  2623  04A0                     l1790:	
  2624  04A0  0859               	movf	___flmul@bexp,w
  2625  04A1  1903               	btfsc	3,2
  2626  04A2  2CA4               	goto	u1971
  2627  04A3  2CA5               	goto	u1970
  2628  04A4                     u1971:	
  2629  04A4  2CB4               	goto	l1798
  2630  04A5                     u1970:	
  2631  04A5                     l1792:	
  2632  04A5  0A59               	incf	___flmul@bexp,w
  2633  04A6  1D03               	btfss	3,2
  2634  04A7  2CA9               	goto	u1981
  2635  04A8  2CAA               	goto	u1980
  2636  04A9                     u1981:	
  2637  04A9  2CB2               	goto	l1796
  2638  04AA                     u1980:	
  2639  04AA                     l1794:	
  2640  04AA  3000               	movlw	0
  2641  04AB  00CE               	movwf	___flmul@b+3
  2642  04AC  3000               	movlw	0
  2643  04AD  00CD               	movwf	___flmul@b+2
  2644  04AE  3000               	movlw	0
  2645  04AF  00CC               	movwf	___flmul@b+1
  2646  04B0  3000               	movlw	0
  2647  04B1  00CB               	movwf	___flmul@b
  2648  04B2                     l1796:	
  2649  04B2  17CD               	bsf	___flmul@b+2,7
  2650  04B3  2CBC               	goto	l1800
  2651  04B4                     l1798:	
  2652  04B4  3000               	movlw	0
  2653  04B5  00CE               	movwf	___flmul@b+3
  2654  04B6  3000               	movlw	0
  2655  04B7  00CD               	movwf	___flmul@b+2
  2656  04B8  3000               	movlw	0
  2657  04B9  00CC               	movwf	___flmul@b+1
  2658  04BA  3000               	movlw	0
  2659  04BB  00CB               	movwf	___flmul@b
  2660  04BC                     l1800:	
  2661  04BC  0852               	movf	___flmul@a+3,w
  2662  04BD  3980               	andlw	128
  2663  04BE  00F9               	movwf	??___flmul
  2664  04BF  0879               	movf	??___flmul,w
  2665  04C0  06D3               	xorwf	___flmul@sign,f
  2666  04C1                     l1802:	
  2667  04C1  0852               	movf	___flmul@a+3,w
  2668  04C2  00F9               	movwf	??___flmul
  2669  04C3  0779               	addwf	??___flmul,w
  2670  04C4  00FA               	movwf	??___flmul+1
  2671  04C5  087A               	movf	??___flmul+1,w
  2672  04C6  00D8               	movwf	___flmul@aexp
  2673  04C7                     l1804:	
  2674  04C7  1FD1               	btfss	___flmul@a+2,7
  2675  04C8  2CCA               	goto	u1991
  2676  04C9  2CCB               	goto	u1990
  2677  04CA                     u1991:	
  2678  04CA  2CCC               	goto	l1808
  2679  04CB                     u1990:	
  2680  04CB                     l1806:	
  2681  04CB  1458               	bsf	___flmul@aexp,0
  2682  04CC                     l1808:	
  2683  04CC  0858               	movf	___flmul@aexp,w
  2684  04CD  1903               	btfsc	3,2
  2685  04CE  2CD0               	goto	u2001
  2686  04CF  2CD1               	goto	u2000
  2687  04D0                     u2001:	
  2688  04D0  2CE0               	goto	l1816
  2689  04D1                     u2000:	
  2690  04D1                     l1810:	
  2691  04D1  0A58               	incf	___flmul@aexp,w
  2692  04D2  1D03               	btfss	3,2
  2693  04D3  2CD5               	goto	u2011
  2694  04D4  2CD6               	goto	u2010
  2695  04D5                     u2011:	
  2696  04D5  2CDE               	goto	l1814
  2697  04D6                     u2010:	
  2698  04D6                     l1812:	
  2699  04D6  3000               	movlw	0
  2700  04D7  00D2               	movwf	___flmul@a+3
  2701  04D8  3000               	movlw	0
  2702  04D9  00D1               	movwf	___flmul@a+2
  2703  04DA  3000               	movlw	0
  2704  04DB  00D0               	movwf	___flmul@a+1
  2705  04DC  3000               	movlw	0
  2706  04DD  00CF               	movwf	___flmul@a
  2707  04DE                     l1814:	
  2708  04DE  17D1               	bsf	___flmul@a+2,7
  2709  04DF  2CE8               	goto	l1818
  2710  04E0                     l1816:	
  2711  04E0  3000               	movlw	0
  2712  04E1  00D2               	movwf	___flmul@a+3
  2713  04E2  3000               	movlw	0
  2714  04E3  00D1               	movwf	___flmul@a+2
  2715  04E4  3000               	movlw	0
  2716  04E5  00D0               	movwf	___flmul@a+1
  2717  04E6  3000               	movlw	0
  2718  04E7  00CF               	movwf	___flmul@a
  2719  04E8                     l1818:	
  2720  04E8  0858               	movf	___flmul@aexp,w
  2721  04E9  1903               	btfsc	3,2
  2722  04EA  2CEC               	goto	u2021
  2723  04EB  2CED               	goto	u2020
  2724  04EC                     u2021:	
  2725  04EC  2CF2               	goto	l1822
  2726  04ED                     u2020:	
  2727  04ED                     l1820:	
  2728  04ED  0859               	movf	___flmul@bexp,w
  2729  04EE  1D03               	btfss	3,2
  2730  04EF  2CF1               	goto	u2031
  2731  04F0  2CF2               	goto	u2030
  2732  04F1                     u2031:	
  2733  04F1  2CFB               	goto	l1826
  2734  04F2                     u2030:	
  2735  04F2                     l1822:	
  2736  04F2  3000               	movlw	0
  2737  04F3  00CE               	movwf	?___flmul+3
  2738  04F4  3000               	movlw	0
  2739  04F5  00CD               	movwf	?___flmul+2
  2740  04F6  3000               	movlw	0
  2741  04F7  00CC               	movwf	?___flmul+1
  2742  04F8  3000               	movlw	0
  2743  04F9  00CB               	movwf	?___flmul
  2744  04FA  2FEE               	goto	l659
  2745  04FB                     l1826:	
  2746  04FB  084B               	movf	___flmul@b,w
  2747  04FC  00F9               	movwf	??___flmul
  2748  04FD  0879               	movf	??___flmul,w
  2749  04FE  00F0               	movwf	__Umul8_16@multiplicand
  2750  04FF  0851               	movf	___flmul@a+2,w
  2751  0500  120A  158A  2634  120A  118A  	fcall	__Umul8_16
  2752  0505  0871               	movf	?__Umul8_16+1,w
  2753  0506  1283               	bcf	3,5	;RP0=0, select bank0
  2754  0507  1303               	bcf	3,6	;RP1=0, select bank0
  2755  0508  00DF               	movwf	___flmul@temp+1
  2756  0509  0870               	movf	?__Umul8_16,w
  2757  050A  00DE               	movwf	___flmul@temp
  2758  050B                     l1828:	
  2759  050B  085E               	movf	___flmul@temp,w
  2760  050C  00F9               	movwf	??___flmul
  2761  050D  01FA               	clrf	??___flmul+1
  2762  050E  01FB               	clrf	??___flmul+2
  2763  050F  01FC               	clrf	??___flmul+3
  2764  0510  087C               	movf	??___flmul+3,w
  2765  0511  00D7               	movwf	___flmul@grs+3
  2766  0512  087B               	movf	??___flmul+2,w
  2767  0513  00D6               	movwf	___flmul@grs+2
  2768  0514  087A               	movf	??___flmul+1,w
  2769  0515  00D5               	movwf	___flmul@grs+1
  2770  0516  0879               	movf	??___flmul,w
  2771  0517  00D4               	movwf	___flmul@grs
  2772  0518                     l1830:	
  2773  0518  085F               	movf	___flmul@temp+1,w
  2774  0519  00F9               	movwf	??___flmul
  2775  051A  01FA               	clrf	??___flmul+1
  2776  051B  01FB               	clrf	??___flmul+2
  2777  051C  01FC               	clrf	??___flmul+3
  2778  051D  087C               	movf	??___flmul+3,w
  2779  051E  00DD               	movwf	___flmul@prod+3
  2780  051F  087B               	movf	??___flmul+2,w
  2781  0520  00DC               	movwf	___flmul@prod+2
  2782  0521  087A               	movf	??___flmul+1,w
  2783  0522  00DB               	movwf	___flmul@prod+1
  2784  0523  0879               	movf	??___flmul,w
  2785  0524  00DA               	movwf	___flmul@prod
  2786  0525  084C               	movf	___flmul@b+1,w
  2787  0526  00F9               	movwf	??___flmul
  2788  0527  0879               	movf	??___flmul,w
  2789  0528  00F0               	movwf	__Umul8_16@multiplicand
  2790  0529  0850               	movf	___flmul@a+1,w
  2791  052A  120A  158A  2634  120A  118A  	fcall	__Umul8_16
  2792  052F  0871               	movf	?__Umul8_16+1,w
  2793  0530  1283               	bcf	3,5	;RP0=0, select bank0
  2794  0531  1303               	bcf	3,6	;RP1=0, select bank0
  2795  0532  00DF               	movwf	___flmul@temp+1
  2796  0533  0870               	movf	?__Umul8_16,w
  2797  0534  00DE               	movwf	___flmul@temp
  2798  0535                     l1832:	
  2799  0535  085E               	movf	___flmul@temp,w
  2800  0536  00F9               	movwf	??___flmul
  2801  0537  01FA               	clrf	??___flmul+1
  2802  0538  01FB               	clrf	??___flmul+2
  2803  0539  01FC               	clrf	??___flmul+3
  2804  053A  0879               	movf	??___flmul,w
  2805  053B  07D4               	addwf	___flmul@grs,f
  2806  053C  087A               	movf	??___flmul+1,w
  2807  053D  1103               	clrz
  2808  053E  1803               	skipnc
  2809  053F  3E01               	addlw	1
  2810  0540  1903               	skipnz
  2811  0541  2D43               	goto	u2041
  2812  0542  07D5               	addwf	___flmul@grs+1,f
  2813  0543                     u2041:	
  2814  0543  087B               	movf	??___flmul+2,w
  2815  0544  1103               	clrz
  2816  0545  1803               	skipnc
  2817  0546  3E01               	addlw	1
  2818  0547  1903               	skipnz
  2819  0548  2D4A               	goto	u2042
  2820  0549  07D6               	addwf	___flmul@grs+2,f
  2821  054A                     u2042:	
  2822  054A  087C               	movf	??___flmul+3,w
  2823  054B  1103               	clrz
  2824  054C  1803               	skipnc
  2825  054D  3E01               	addlw	1
  2826  054E  1903               	skipnz
  2827  054F  2D51               	goto	u2043
  2828  0550  07D7               	addwf	___flmul@grs+3,f
  2829  0551                     u2043:	
  2830  0551                     l1834:	
  2831  0551  085F               	movf	___flmul@temp+1,w
  2832  0552  00F9               	movwf	??___flmul
  2833  0553  01FA               	clrf	??___flmul+1
  2834  0554  01FB               	clrf	??___flmul+2
  2835  0555  01FC               	clrf	??___flmul+3
  2836  0556  0879               	movf	??___flmul,w
  2837  0557  07DA               	addwf	___flmul@prod,f
  2838  0558  087A               	movf	??___flmul+1,w
  2839  0559  1103               	clrz
  2840  055A  1803               	skipnc
  2841  055B  3E01               	addlw	1
  2842  055C  1903               	skipnz
  2843  055D  2D5F               	goto	u2051
  2844  055E  07DB               	addwf	___flmul@prod+1,f
  2845  055F                     u2051:	
  2846  055F  087B               	movf	??___flmul+2,w
  2847  0560  1103               	clrz
  2848  0561  1803               	skipnc
  2849  0562  3E01               	addlw	1
  2850  0563  1903               	skipnz
  2851  0564  2D66               	goto	u2052
  2852  0565  07DC               	addwf	___flmul@prod+2,f
  2853  0566                     u2052:	
  2854  0566  087C               	movf	??___flmul+3,w
  2855  0567  1103               	clrz
  2856  0568  1803               	skipnc
  2857  0569  3E01               	addlw	1
  2858  056A  1903               	skipnz
  2859  056B  2D6D               	goto	u2053
  2860  056C  07DD               	addwf	___flmul@prod+3,f
  2861  056D                     u2053:	
  2862  056D  084D               	movf	___flmul@b+2,w
  2863  056E  00F9               	movwf	??___flmul
  2864  056F  0879               	movf	??___flmul,w
  2865  0570  00F0               	movwf	__Umul8_16@multiplicand
  2866  0571  084F               	movf	___flmul@a,w
  2867  0572  120A  158A  2634  120A  118A  	fcall	__Umul8_16
  2868  0577  0871               	movf	?__Umul8_16+1,w
  2869  0578  1283               	bcf	3,5	;RP0=0, select bank0
  2870  0579  1303               	bcf	3,6	;RP1=0, select bank0
  2871  057A  00DF               	movwf	___flmul@temp+1
  2872  057B  0870               	movf	?__Umul8_16,w
  2873  057C  00DE               	movwf	___flmul@temp
  2874  057D                     l1836:	
  2875  057D  085E               	movf	___flmul@temp,w
  2876  057E  00F9               	movwf	??___flmul
  2877  057F  01FA               	clrf	??___flmul+1
  2878  0580  01FB               	clrf	??___flmul+2
  2879  0581  01FC               	clrf	??___flmul+3
  2880  0582  0879               	movf	??___flmul,w
  2881  0583  07D4               	addwf	___flmul@grs,f
  2882  0584  087A               	movf	??___flmul+1,w
  2883  0585  1103               	clrz
  2884  0586  1803               	skipnc
  2885  0587  3E01               	addlw	1
  2886  0588  1903               	skipnz
  2887  0589  2D8B               	goto	u2061
  2888  058A  07D5               	addwf	___flmul@grs+1,f
  2889  058B                     u2061:	
  2890  058B  087B               	movf	??___flmul+2,w
  2891  058C  1103               	clrz
  2892  058D  1803               	skipnc
  2893  058E  3E01               	addlw	1
  2894  058F  1903               	skipnz
  2895  0590  2D92               	goto	u2062
  2896  0591  07D6               	addwf	___flmul@grs+2,f
  2897  0592                     u2062:	
  2898  0592  087C               	movf	??___flmul+3,w
  2899  0593  1103               	clrz
  2900  0594  1803               	skipnc
  2901  0595  3E01               	addlw	1
  2902  0596  1903               	skipnz
  2903  0597  2D99               	goto	u2063
  2904  0598  07D7               	addwf	___flmul@grs+3,f
  2905  0599                     u2063:	
  2906  0599                     l1838:	
  2907  0599  085F               	movf	___flmul@temp+1,w
  2908  059A  00F9               	movwf	??___flmul
  2909  059B  01FA               	clrf	??___flmul+1
  2910  059C  01FB               	clrf	??___flmul+2
  2911  059D  01FC               	clrf	??___flmul+3
  2912  059E  0879               	movf	??___flmul,w
  2913  059F  07DA               	addwf	___flmul@prod,f
  2914  05A0  087A               	movf	??___flmul+1,w
  2915  05A1  1103               	clrz
  2916  05A2  1803               	skipnc
  2917  05A3  3E01               	addlw	1
  2918  05A4  1903               	skipnz
  2919  05A5  2DA7               	goto	u2071
  2920  05A6  07DB               	addwf	___flmul@prod+1,f
  2921  05A7                     u2071:	
  2922  05A7  087B               	movf	??___flmul+2,w
  2923  05A8  1103               	clrz
  2924  05A9  1803               	skipnc
  2925  05AA  3E01               	addlw	1
  2926  05AB  1903               	skipnz
  2927  05AC  2DAE               	goto	u2072
  2928  05AD  07DC               	addwf	___flmul@prod+2,f
  2929  05AE                     u2072:	
  2930  05AE  087C               	movf	??___flmul+3,w
  2931  05AF  1103               	clrz
  2932  05B0  1803               	skipnc
  2933  05B1  3E01               	addlw	1
  2934  05B2  1903               	skipnz
  2935  05B3  2DB5               	goto	u2073
  2936  05B4  07DD               	addwf	___flmul@prod+3,f
  2937  05B5                     u2073:	
  2938  05B5                     l1840:	
  2939  05B5  3008               	movlw	8
  2940  05B6  00F9               	movwf	??___flmul
  2941  05B7                     u2085:	
  2942  05B7  1003               	clrc
  2943  05B8  0DD4               	rlf	___flmul@grs,f
  2944  05B9  0DD5               	rlf	___flmul@grs+1,f
  2945  05BA  0DD6               	rlf	___flmul@grs+2,f
  2946  05BB  0DD7               	rlf	___flmul@grs+3,f
  2947  05BC  0BF9               	decfsz	??___flmul,f
  2948  05BD  2DB7               	goto	u2085
  2949  05BE                     l1842:	
  2950  05BE  084C               	movf	___flmul@b+1,w
  2951  05BF  00F9               	movwf	??___flmul
  2952  05C0  0879               	movf	??___flmul,w
  2953  05C1  00F0               	movwf	__Umul8_16@multiplicand
  2954  05C2  084F               	movf	___flmul@a,w
  2955  05C3  120A  158A  2634  120A  118A  	fcall	__Umul8_16
  2956  05C8  0871               	movf	?__Umul8_16+1,w
  2957  05C9  1283               	bcf	3,5	;RP0=0, select bank0
  2958  05CA  1303               	bcf	3,6	;RP1=0, select bank0
  2959  05CB  00DF               	movwf	___flmul@temp+1
  2960  05CC  0870               	movf	?__Umul8_16,w
  2961  05CD  00DE               	movwf	___flmul@temp
  2962  05CE                     l1844:	
  2963  05CE  085E               	movf	___flmul@temp,w
  2964  05CF  00F9               	movwf	??___flmul
  2965  05D0  085F               	movf	___flmul@temp+1,w
  2966  05D1  00FA               	movwf	??___flmul+1
  2967  05D2  01FB               	clrf	??___flmul+2
  2968  05D3  01FC               	clrf	??___flmul+3
  2969  05D4  0879               	movf	??___flmul,w
  2970  05D5  07D4               	addwf	___flmul@grs,f
  2971  05D6  087A               	movf	??___flmul+1,w
  2972  05D7  1103               	clrz
  2973  05D8  1803               	skipnc
  2974  05D9  3E01               	addlw	1
  2975  05DA  1903               	skipnz
  2976  05DB  2DDD               	goto	u2091
  2977  05DC  07D5               	addwf	___flmul@grs+1,f
  2978  05DD                     u2091:	
  2979  05DD  087B               	movf	??___flmul+2,w
  2980  05DE  1103               	clrz
  2981  05DF  1803               	skipnc
  2982  05E0  3E01               	addlw	1
  2983  05E1  1903               	skipnz
  2984  05E2  2DE4               	goto	u2092
  2985  05E3  07D6               	addwf	___flmul@grs+2,f
  2986  05E4                     u2092:	
  2987  05E4  087C               	movf	??___flmul+3,w
  2988  05E5  1103               	clrz
  2989  05E6  1803               	skipnc
  2990  05E7  3E01               	addlw	1
  2991  05E8  1903               	skipnz
  2992  05E9  2DEB               	goto	u2093
  2993  05EA  07D7               	addwf	___flmul@grs+3,f
  2994  05EB                     u2093:	
  2995  05EB                     l1846:	
  2996  05EB  084B               	movf	___flmul@b,w
  2997  05EC  00F9               	movwf	??___flmul
  2998  05ED  0879               	movf	??___flmul,w
  2999  05EE  00F0               	movwf	__Umul8_16@multiplicand
  3000  05EF  0850               	movf	___flmul@a+1,w
  3001  05F0  120A  158A  2634  120A  118A  	fcall	__Umul8_16
  3002  05F5  0871               	movf	?__Umul8_16+1,w
  3003  05F6  1283               	bcf	3,5	;RP0=0, select bank0
  3004  05F7  1303               	bcf	3,6	;RP1=0, select bank0
  3005  05F8  00DF               	movwf	___flmul@temp+1
  3006  05F9  0870               	movf	?__Umul8_16,w
  3007  05FA  00DE               	movwf	___flmul@temp
  3008  05FB                     l1848:	
  3009  05FB  085E               	movf	___flmul@temp,w
  3010  05FC  00F9               	movwf	??___flmul
  3011  05FD  085F               	movf	___flmul@temp+1,w
  3012  05FE  00FA               	movwf	??___flmul+1
  3013  05FF  01FB               	clrf	??___flmul+2
  3014  0600  01FC               	clrf	??___flmul+3
  3015  0601  0879               	movf	??___flmul,w
  3016  0602  07D4               	addwf	___flmul@grs,f
  3017  0603  087A               	movf	??___flmul+1,w
  3018  0604  1103               	clrz
  3019  0605  1803               	skipnc
  3020  0606  3E01               	addlw	1
  3021  0607  1903               	skipnz
  3022  0608  2E0A               	goto	u2101
  3023  0609  07D5               	addwf	___flmul@grs+1,f
  3024  060A                     u2101:	
  3025  060A  087B               	movf	??___flmul+2,w
  3026  060B  1103               	clrz
  3027  060C  1803               	skipnc
  3028  060D  3E01               	addlw	1
  3029  060E  1903               	skipnz
  3030  060F  2E11               	goto	u2102
  3031  0610  07D6               	addwf	___flmul@grs+2,f
  3032  0611                     u2102:	
  3033  0611  087C               	movf	??___flmul+3,w
  3034  0612  1103               	clrz
  3035  0613  1803               	skipnc
  3036  0614  3E01               	addlw	1
  3037  0615  1903               	skipnz
  3038  0616  2E18               	goto	u2103
  3039  0617  07D7               	addwf	___flmul@grs+3,f
  3040  0618                     u2103:	
  3041  0618                     l1850:	
  3042  0618  3008               	movlw	8
  3043  0619  00F9               	movwf	??___flmul
  3044  061A                     u2115:	
  3045  061A  1003               	clrc
  3046  061B  0DD4               	rlf	___flmul@grs,f
  3047  061C  0DD5               	rlf	___flmul@grs+1,f
  3048  061D  0DD6               	rlf	___flmul@grs+2,f
  3049  061E  0DD7               	rlf	___flmul@grs+3,f
  3050  061F  0BF9               	decfsz	??___flmul,f
  3051  0620  2E1A               	goto	u2115
  3052  0621  084B               	movf	___flmul@b,w
  3053  0622  00F9               	movwf	??___flmul
  3054  0623  0879               	movf	??___flmul,w
  3055  0624  00F0               	movwf	__Umul8_16@multiplicand
  3056  0625  084F               	movf	___flmul@a,w
  3057  0626  120A  158A  2634  120A  118A  	fcall	__Umul8_16
  3058  062B  0871               	movf	?__Umul8_16+1,w
  3059  062C  1283               	bcf	3,5	;RP0=0, select bank0
  3060  062D  1303               	bcf	3,6	;RP1=0, select bank0
  3061  062E  00DF               	movwf	___flmul@temp+1
  3062  062F  0870               	movf	?__Umul8_16,w
  3063  0630  00DE               	movwf	___flmul@temp
  3064  0631                     l1852:	
  3065  0631  085E               	movf	___flmul@temp,w
  3066  0632  00F9               	movwf	??___flmul
  3067  0633  085F               	movf	___flmul@temp+1,w
  3068  0634  00FA               	movwf	??___flmul+1
  3069  0635  01FB               	clrf	??___flmul+2
  3070  0636  01FC               	clrf	??___flmul+3
  3071  0637  0879               	movf	??___flmul,w
  3072  0638  07D4               	addwf	___flmul@grs,f
  3073  0639  087A               	movf	??___flmul+1,w
  3074  063A  1103               	clrz
  3075  063B  1803               	skipnc
  3076  063C  3E01               	addlw	1
  3077  063D  1903               	skipnz
  3078  063E  2E40               	goto	u2121
  3079  063F  07D5               	addwf	___flmul@grs+1,f
  3080  0640                     u2121:	
  3081  0640  087B               	movf	??___flmul+2,w
  3082  0641  1103               	clrz
  3083  0642  1803               	skipnc
  3084  0643  3E01               	addlw	1
  3085  0644  1903               	skipnz
  3086  0645  2E47               	goto	u2122
  3087  0646  07D6               	addwf	___flmul@grs+2,f
  3088  0647                     u2122:	
  3089  0647  087C               	movf	??___flmul+3,w
  3090  0648  1103               	clrz
  3091  0649  1803               	skipnc
  3092  064A  3E01               	addlw	1
  3093  064B  1903               	skipnz
  3094  064C  2E4E               	goto	u2123
  3095  064D  07D7               	addwf	___flmul@grs+3,f
  3096  064E                     u2123:	
  3097  064E                     l1854:	
  3098  064E  084C               	movf	___flmul@b+1,w
  3099  064F  00F9               	movwf	??___flmul
  3100  0650  0879               	movf	??___flmul,w
  3101  0651  00F0               	movwf	__Umul8_16@multiplicand
  3102  0652  0851               	movf	___flmul@a+2,w
  3103  0653  120A  158A  2634  120A  118A  	fcall	__Umul8_16
  3104  0658  0871               	movf	?__Umul8_16+1,w
  3105  0659  1283               	bcf	3,5	;RP0=0, select bank0
  3106  065A  1303               	bcf	3,6	;RP1=0, select bank0
  3107  065B  00DF               	movwf	___flmul@temp+1
  3108  065C  0870               	movf	?__Umul8_16,w
  3109  065D  00DE               	movwf	___flmul@temp
  3110  065E  085E               	movf	___flmul@temp,w
  3111  065F  00F9               	movwf	??___flmul
  3112  0660  085F               	movf	___flmul@temp+1,w
  3113  0661  00FA               	movwf	??___flmul+1
  3114  0662  01FB               	clrf	??___flmul+2
  3115  0663  01FC               	clrf	??___flmul+3
  3116  0664  0879               	movf	??___flmul,w
  3117  0665  07DA               	addwf	___flmul@prod,f
  3118  0666  087A               	movf	??___flmul+1,w
  3119  0667  1103               	clrz
  3120  0668  1803               	skipnc
  3121  0669  3E01               	addlw	1
  3122  066A  1903               	skipnz
  3123  066B  2E6D               	goto	u2131
  3124  066C  07DB               	addwf	___flmul@prod+1,f
  3125  066D                     u2131:	
  3126  066D  087B               	movf	??___flmul+2,w
  3127  066E  1103               	clrz
  3128  066F  1803               	skipnc
  3129  0670  3E01               	addlw	1
  3130  0671  1903               	skipnz
  3131  0672  2E74               	goto	u2132
  3132  0673  07DC               	addwf	___flmul@prod+2,f
  3133  0674                     u2132:	
  3134  0674  087C               	movf	??___flmul+3,w
  3135  0675  1103               	clrz
  3136  0676  1803               	skipnc
  3137  0677  3E01               	addlw	1
  3138  0678  1903               	skipnz
  3139  0679  2E7B               	goto	u2133
  3140  067A  07DD               	addwf	___flmul@prod+3,f
  3141  067B                     u2133:	
  3142  067B                     l1856:	
  3143  067B  084D               	movf	___flmul@b+2,w
  3144  067C  00F9               	movwf	??___flmul
  3145  067D  0879               	movf	??___flmul,w
  3146  067E  00F0               	movwf	__Umul8_16@multiplicand
  3147  067F  0850               	movf	___flmul@a+1,w
  3148  0680  120A  158A  2634  120A  118A  	fcall	__Umul8_16
  3149  0685  0871               	movf	?__Umul8_16+1,w
  3150  0686  1283               	bcf	3,5	;RP0=0, select bank0
  3151  0687  1303               	bcf	3,6	;RP1=0, select bank0
  3152  0688  00DF               	movwf	___flmul@temp+1
  3153  0689  0870               	movf	?__Umul8_16,w
  3154  068A  00DE               	movwf	___flmul@temp
  3155  068B                     l1858:	
  3156  068B  085E               	movf	___flmul@temp,w
  3157  068C  00F9               	movwf	??___flmul
  3158  068D  085F               	movf	___flmul@temp+1,w
  3159  068E  00FA               	movwf	??___flmul+1
  3160  068F  01FB               	clrf	??___flmul+2
  3161  0690  01FC               	clrf	??___flmul+3
  3162  0691  0879               	movf	??___flmul,w
  3163  0692  07DA               	addwf	___flmul@prod,f
  3164  0693  087A               	movf	??___flmul+1,w
  3165  0694  1103               	clrz
  3166  0695  1803               	skipnc
  3167  0696  3E01               	addlw	1
  3168  0697  1903               	skipnz
  3169  0698  2E9A               	goto	u2141
  3170  0699  07DB               	addwf	___flmul@prod+1,f
  3171  069A                     u2141:	
  3172  069A  087B               	movf	??___flmul+2,w
  3173  069B  1103               	clrz
  3174  069C  1803               	skipnc
  3175  069D  3E01               	addlw	1
  3176  069E  1903               	skipnz
  3177  069F  2EA1               	goto	u2142
  3178  06A0  07DC               	addwf	___flmul@prod+2,f
  3179  06A1                     u2142:	
  3180  06A1  087C               	movf	??___flmul+3,w
  3181  06A2  1103               	clrz
  3182  06A3  1803               	skipnc
  3183  06A4  3E01               	addlw	1
  3184  06A5  1903               	skipnz
  3185  06A6  2EA8               	goto	u2143
  3186  06A7  07DD               	addwf	___flmul@prod+3,f
  3187  06A8                     u2143:	
  3188  06A8  084D               	movf	___flmul@b+2,w
  3189  06A9  00F9               	movwf	??___flmul
  3190  06AA  0879               	movf	??___flmul,w
  3191  06AB  00F0               	movwf	__Umul8_16@multiplicand
  3192  06AC  0851               	movf	___flmul@a+2,w
  3193  06AD  120A  158A  2634  120A  118A  	fcall	__Umul8_16
  3194  06B2  0871               	movf	?__Umul8_16+1,w
  3195  06B3  1283               	bcf	3,5	;RP0=0, select bank0
  3196  06B4  1303               	bcf	3,6	;RP1=0, select bank0
  3197  06B5  00DF               	movwf	___flmul@temp+1
  3198  06B6  0870               	movf	?__Umul8_16,w
  3199  06B7  00DE               	movwf	___flmul@temp
  3200  06B8                     l1860:	
  3201  06B8  085E               	movf	___flmul@temp,w
  3202  06B9  00F9               	movwf	??___flmul
  3203  06BA  085F               	movf	___flmul@temp+1,w
  3204  06BB  00FA               	movwf	??___flmul+1
  3205  06BC  01FB               	clrf	??___flmul+2
  3206  06BD  01FC               	clrf	??___flmul+3
  3207  06BE  3008               	movlw	8
  3208  06BF                     u2155:	
  3209  06BF  1003               	clrc
  3210  06C0  0DF9               	rlf	??___flmul,f
  3211  06C1  0DFA               	rlf	??___flmul+1,f
  3212  06C2  0DFB               	rlf	??___flmul+2,f
  3213  06C3  0DFC               	rlf	??___flmul+3,f
  3214  06C4                     u2150:	
  3215  06C4  3EFF               	addlw	-1
  3216  06C5  1D03               	skipz
  3217  06C6  2EBF               	goto	u2155
  3218  06C7  0879               	movf	??___flmul,w
  3219  06C8  07DA               	addwf	___flmul@prod,f
  3220  06C9  087A               	movf	??___flmul+1,w
  3221  06CA  1103               	clrz
  3222  06CB  1803               	skipnc
  3223  06CC  3E01               	addlw	1
  3224  06CD  1903               	skipnz
  3225  06CE  2ED0               	goto	u2161
  3226  06CF  07DB               	addwf	___flmul@prod+1,f
  3227  06D0                     u2161:	
  3228  06D0  087B               	movf	??___flmul+2,w
  3229  06D1  1103               	clrz
  3230  06D2  1803               	skipnc
  3231  06D3  3E01               	addlw	1
  3232  06D4  1903               	skipnz
  3233  06D5  2ED7               	goto	u2162
  3234  06D6  07DC               	addwf	___flmul@prod+2,f
  3235  06D7                     u2162:	
  3236  06D7  087C               	movf	??___flmul+3,w
  3237  06D8  1103               	clrz
  3238  06D9  1803               	skipnc
  3239  06DA  3E01               	addlw	1
  3240  06DB  1903               	skipnz
  3241  06DC  2EDE               	goto	u2163
  3242  06DD  07DD               	addwf	___flmul@prod+3,f
  3243  06DE                     u2163:	
  3244  06DE                     l1862:	
  3245  06DE  0854               	movf	___flmul@grs,w
  3246  06DF  00F9               	movwf	??___flmul
  3247  06E0  0855               	movf	___flmul@grs+1,w
  3248  06E1  00FA               	movwf	??___flmul+1
  3249  06E2  0856               	movf	___flmul@grs+2,w
  3250  06E3  00FB               	movwf	??___flmul+2
  3251  06E4  0857               	movf	___flmul@grs+3,w
  3252  06E5  00FC               	movwf	??___flmul+3
  3253  06E6  3018               	movlw	24
  3254  06E7                     u2175:	
  3255  06E7  1003               	clrc
  3256  06E8  0CFC               	rrf	??___flmul+3,f
  3257  06E9  0CFB               	rrf	??___flmul+2,f
  3258  06EA  0CFA               	rrf	??___flmul+1,f
  3259  06EB  0CF9               	rrf	??___flmul,f
  3260  06EC                     u2170:	
  3261  06EC  3EFF               	addlw	-1
  3262  06ED  1D03               	skipz
  3263  06EE  2EE7               	goto	u2175
  3264  06EF  0879               	movf	??___flmul,w
  3265  06F0  07DA               	addwf	___flmul@prod,f
  3266  06F1  087A               	movf	??___flmul+1,w
  3267  06F2  1103               	clrz
  3268  06F3  1803               	skipnc
  3269  06F4  3E01               	addlw	1
  3270  06F5  1903               	skipnz
  3271  06F6  2EF8               	goto	u2181
  3272  06F7  07DB               	addwf	___flmul@prod+1,f
  3273  06F8                     u2181:	
  3274  06F8  087B               	movf	??___flmul+2,w
  3275  06F9  1103               	clrz
  3276  06FA  1803               	skipnc
  3277  06FB  3E01               	addlw	1
  3278  06FC  1903               	skipnz
  3279  06FD  2EFF               	goto	u2182
  3280  06FE  07DC               	addwf	___flmul@prod+2,f
  3281  06FF                     u2182:	
  3282  06FF  087C               	movf	??___flmul+3,w
  3283  0700  1103               	clrz
  3284  0701  1803               	skipnc
  3285  0702  3E01               	addlw	1
  3286  0703  1903               	skipnz
  3287  0704  2F06               	goto	u2183
  3288  0705  07DD               	addwf	___flmul@prod+3,f
  3289  0706                     u2183:	
  3290  0706                     l1864:	
  3291  0706  3008               	movlw	8
  3292  0707  00F9               	movwf	??___flmul
  3293  0708                     u2195:	
  3294  0708  1003               	clrc
  3295  0709  0DD4               	rlf	___flmul@grs,f
  3296  070A  0DD5               	rlf	___flmul@grs+1,f
  3297  070B  0DD6               	rlf	___flmul@grs+2,f
  3298  070C  0DD7               	rlf	___flmul@grs+3,f
  3299  070D  0BF9               	decfsz	??___flmul,f
  3300  070E  2F08               	goto	u2195
  3301  070F                     l1866:	
  3302  070F  0859               	movf	___flmul@bexp,w
  3303  0710  0758               	addwf	___flmul@aexp,w
  3304  0711  00F9               	movwf	??___flmul
  3305  0712  01FA               	clrf	??___flmul+1
  3306  0713  0DFA               	rlf	??___flmul+1,f
  3307  0714  0879               	movf	??___flmul,w
  3308  0715  3E82               	addlw	130
  3309  0716  00DE               	movwf	___flmul@temp
  3310  0717  087A               	movf	??___flmul+1,w
  3311  0718  1803               	skipnc
  3312  0719  3E01               	addlw	1
  3313  071A  3EFF               	addlw	255
  3314  071B  00DF               	movwf	___flmul@temp+1
  3315  071C  2F3A               	goto	l1878
  3316  071D                     l1868:	
  3317  071D  3001               	movlw	1
  3318  071E  00F9               	movwf	??___flmul
  3319  071F                     u2205:	
  3320  071F  1003               	clrc
  3321  0720  0DDA               	rlf	___flmul@prod,f
  3322  0721  0DDB               	rlf	___flmul@prod+1,f
  3323  0722  0DDC               	rlf	___flmul@prod+2,f
  3324  0723  0DDD               	rlf	___flmul@prod+3,f
  3325  0724  0BF9               	decfsz	??___flmul,f
  3326  0725  2F1F               	goto	u2205
  3327  0726                     l1870:	
  3328  0726  1FD7               	btfss	___flmul@grs+3,7
  3329  0727  2F29               	goto	u2211
  3330  0728  2F2A               	goto	u2210
  3331  0729                     u2211:	
  3332  0729  2F2B               	goto	l1874
  3333  072A                     u2210:	
  3334  072A                     l1872:	
  3335  072A  145A               	bsf	___flmul@prod,0
  3336  072B                     l1874:	
  3337  072B  3001               	movlw	1
  3338  072C  00F9               	movwf	??___flmul
  3339  072D                     u2225:	
  3340  072D  1003               	clrc
  3341  072E  0DD4               	rlf	___flmul@grs,f
  3342  072F  0DD5               	rlf	___flmul@grs+1,f
  3343  0730  0DD6               	rlf	___flmul@grs+2,f
  3344  0731  0DD7               	rlf	___flmul@grs+3,f
  3345  0732  0BF9               	decfsz	??___flmul,f
  3346  0733  2F2D               	goto	u2225
  3347  0734                     l1876:	
  3348  0734  30FF               	movlw	255
  3349  0735  07DE               	addwf	___flmul@temp,f
  3350  0736  1803               	skipnc
  3351  0737  0ADF               	incf	___flmul@temp+1,f
  3352  0738  30FF               	movlw	255
  3353  0739  07DF               	addwf	___flmul@temp+1,f
  3354  073A                     l1878:	
  3355  073A  1FDC               	btfss	___flmul@prod+2,7
  3356  073B  2F3D               	goto	u2231
  3357  073C  2F3E               	goto	u2230
  3358  073D                     u2231:	
  3359  073D  2F1D               	goto	l1868
  3360  073E                     u2230:	
  3361  073E                     l1880:	
  3362  073E  01D8               	clrf	___flmul@aexp
  3363  073F                     l1882:	
  3364  073F  1FD7               	btfss	___flmul@grs+3,7
  3365  0740  2F42               	goto	u2241
  3366  0741  2F43               	goto	u2240
  3367  0742                     u2241:	
  3368  0742  2F5F               	goto	l1890
  3369  0743                     u2240:	
  3370  0743                     l1884:	
  3371  0743  30FF               	movlw	255
  3372  0744  0554               	andwf	___flmul@grs,w
  3373  0745  00F9               	movwf	??___flmul
  3374  0746  30FF               	movlw	255
  3375  0747  0555               	andwf	___flmul@grs+1,w
  3376  0748  00FA               	movwf	??___flmul+1
  3377  0749  30FF               	movlw	255
  3378  074A  0556               	andwf	___flmul@grs+2,w
  3379  074B  00FB               	movwf	??___flmul+2
  3380  074C  307F               	movlw	127
  3381  074D  0557               	andwf	___flmul@grs+3,w
  3382  074E  00FC               	movwf	??___flmul+3
  3383  074F  087C               	movf	??___flmul+3,w
  3384  0750  047B               	iorwf	??___flmul+2,w
  3385  0751  047A               	iorwf	??___flmul+1,w
  3386  0752  0479               	iorwf	??___flmul,w
  3387  0753  1903               	skipnz
  3388  0754  2F56               	goto	u2251
  3389  0755  2F57               	goto	u2250
  3390  0756                     u2251:	
  3391  0756  2F5A               	goto	l665
  3392  0757                     u2250:	
  3393  0757                     l1886:	
  3394  0757  01D8               	clrf	___flmul@aexp
  3395  0758  0AD8               	incf	___flmul@aexp,f
  3396  0759  2F5F               	goto	l1890
  3397  075A                     l665:	
  3398  075A  1C5A               	btfss	___flmul@prod,0
  3399  075B  2F5D               	goto	u2261
  3400  075C  2F5E               	goto	u2260
  3401  075D                     u2261:	
  3402  075D  2F5F               	goto	l1890
  3403  075E                     u2260:	
  3404  075E  2F57               	goto	l1886
  3405  075F                     l1890:	
  3406  075F  0858               	movf	___flmul@aexp,w
  3407  0760  1903               	btfsc	3,2
  3408  0761  2F63               	goto	u2271
  3409  0762  2F64               	goto	u2270
  3410  0763                     u2271:	
  3411  0763  2F95               	goto	l1900
  3412  0764                     u2270:	
  3413  0764                     l1892:	
  3414  0764  3001               	movlw	1
  3415  0765  07DA               	addwf	___flmul@prod,f
  3416  0766  3000               	movlw	0
  3417  0767  1803               	skipnc
  3418  0768  3001               	movlw	1
  3419  0769  07DB               	addwf	___flmul@prod+1,f
  3420  076A  3000               	movlw	0
  3421  076B  1803               	skipnc
  3422  076C  3001               	movlw	1
  3423  076D  07DC               	addwf	___flmul@prod+2,f
  3424  076E  3000               	movlw	0
  3425  076F  1803               	skipnc
  3426  0770  3001               	movlw	1
  3427  0771  07DD               	addwf	___flmul@prod+3,f
  3428  0772                     l1894:	
  3429  0772  1C5D               	btfss	___flmul@prod+3,0
  3430  0773  2F75               	goto	u2281
  3431  0774  2F76               	goto	u2280
  3432  0775                     u2281:	
  3433  0775  2F95               	goto	l1900
  3434  0776                     u2280:	
  3435  0776                     l1896:	
  3436  0776  085A               	movf	___flmul@prod,w
  3437  0777  00F9               	movwf	??___flmul
  3438  0778  085B               	movf	___flmul@prod+1,w
  3439  0779  00FA               	movwf	??___flmul+1
  3440  077A  085C               	movf	___flmul@prod+2,w
  3441  077B  00FB               	movwf	??___flmul+2
  3442  077C  085D               	movf	___flmul@prod+3,w
  3443  077D  00FC               	movwf	??___flmul+3
  3444  077E  3001               	movlw	1
  3445  077F  00FD               	movwf	??___flmul+4
  3446  0780                     u2295:	
  3447  0780  0D7C               	rlf	??___flmul+3,w
  3448  0781  0CFC               	rrf	??___flmul+3,f
  3449  0782  0CFB               	rrf	??___flmul+2,f
  3450  0783  0CFA               	rrf	??___flmul+1,f
  3451  0784  0CF9               	rrf	??___flmul,f
  3452  0785                     u2290:	
  3453  0785  0BFD               	decfsz	??___flmul+4,f
  3454  0786  2F80               	goto	u2295
  3455  0787  087C               	movf	??___flmul+3,w
  3456  0788  00DD               	movwf	___flmul@prod+3
  3457  0789  087B               	movf	??___flmul+2,w
  3458  078A  00DC               	movwf	___flmul@prod+2
  3459  078B  087A               	movf	??___flmul+1,w
  3460  078C  00DB               	movwf	___flmul@prod+1
  3461  078D  0879               	movf	??___flmul,w
  3462  078E  00DA               	movwf	___flmul@prod
  3463  078F                     l1898:	
  3464  078F  3001               	movlw	1
  3465  0790  07DE               	addwf	___flmul@temp,f
  3466  0791  1803               	skipnc
  3467  0792  0ADF               	incf	___flmul@temp+1,f
  3468  0793  3000               	movlw	0
  3469  0794  07DF               	addwf	___flmul@temp+1,f
  3470  0795                     l1900:	
  3471  0795  085F               	movf	___flmul@temp+1,w
  3472  0796  3A80               	xorlw	128
  3473  0797  00FF               	movwf	btemp+1
  3474  0798  3080               	movlw	128
  3475  0799  027F               	subwf	btemp+1,w
  3476  079A  1D03               	skipz
  3477  079B  2F9E               	goto	u2305
  3478  079C  30FF               	movlw	255
  3479  079D  025E               	subwf	___flmul@temp,w
  3480  079E                     u2305:	
  3481  079E  1C03               	skipc
  3482  079F  2FA1               	goto	u2301
  3483  07A0  2FA2               	goto	u2300
  3484  07A1                     u2301:	
  3485  07A1  2FAD               	goto	l1904
  3486  07A2                     u2300:	
  3487  07A2                     l1902:	
  3488  07A2  307F               	movlw	127
  3489  07A3  1283               	bcf	3,5	;RP0=0, select bank0
  3490  07A4  1303               	bcf	3,6	;RP1=0, select bank0
  3491  07A5  00DD               	movwf	___flmul@prod+3
  3492  07A6  3080               	movlw	128
  3493  07A7  00DC               	movwf	___flmul@prod+2
  3494  07A8  3000               	movlw	0
  3495  07A9  00DB               	movwf	___flmul@prod+1
  3496  07AA  3000               	movlw	0
  3497  07AB  00DA               	movwf	___flmul@prod
  3498  07AC  2FE2               	goto	l671
  3499  07AD                     l1904:	
  3500  07AD  1283               	bcf	3,5	;RP0=0, select bank0
  3501  07AE  1303               	bcf	3,6	;RP1=0, select bank0
  3502  07AF  085F               	movf	___flmul@temp+1,w
  3503  07B0  3A80               	xorlw	128
  3504  07B1  00FF               	movwf	btemp+1
  3505  07B2  3080               	movlw	128
  3506  07B3  027F               	subwf	btemp+1,w
  3507  07B4  1D03               	skipz
  3508  07B5  2FB8               	goto	u2315
  3509  07B6  3001               	movlw	1
  3510  07B7  025E               	subwf	___flmul@temp,w
  3511  07B8                     u2315:	
  3512  07B8  1803               	skipnc
  3513  07B9  2FBB               	goto	u2311
  3514  07BA  2FBC               	goto	u2310
  3515  07BB                     u2311:	
  3516  07BB  2FC8               	goto	l1910
  3517  07BC                     u2310:	
  3518  07BC                     l1906:	
  3519  07BC  3000               	movlw	0
  3520  07BD  1283               	bcf	3,5	;RP0=0, select bank0
  3521  07BE  1303               	bcf	3,6	;RP1=0, select bank0
  3522  07BF  00DD               	movwf	___flmul@prod+3
  3523  07C0  3000               	movlw	0
  3524  07C1  00DC               	movwf	___flmul@prod+2
  3525  07C2  3000               	movlw	0
  3526  07C3  00DB               	movwf	___flmul@prod+1
  3527  07C4  3000               	movlw	0
  3528  07C5  00DA               	movwf	___flmul@prod
  3529  07C6                     l1908:	
  3530  07C6  01D3               	clrf	___flmul@sign
  3531  07C7  2FE2               	goto	l671
  3532  07C8                     l1910:	
  3533  07C8  1283               	bcf	3,5	;RP0=0, select bank0
  3534  07C9  1303               	bcf	3,6	;RP1=0, select bank0
  3535  07CA  085E               	movf	___flmul@temp,w
  3536  07CB  00F9               	movwf	??___flmul
  3537  07CC  0879               	movf	??___flmul,w
  3538  07CD  00D9               	movwf	___flmul@bexp
  3539  07CE  30FF               	movlw	255
  3540  07CF  05DA               	andwf	___flmul@prod,f
  3541  07D0  30FF               	movlw	255
  3542  07D1  05DB               	andwf	___flmul@prod+1,f
  3543  07D2  307F               	movlw	127
  3544  07D3  05DC               	andwf	___flmul@prod+2,f
  3545  07D4  3000               	movlw	0
  3546  07D5  05DD               	andwf	___flmul@prod+3,f
  3547  07D6                     l1912:	
  3548  07D6  1C59               	btfss	___flmul@bexp,0
  3549  07D7  2FD9               	goto	u2321
  3550  07D8  2FDA               	goto	u2320
  3551  07D9                     u2321:	
  3552  07D9  2FDB               	goto	l1916
  3553  07DA                     u2320:	
  3554  07DA                     l1914:	
  3555  07DA  17DC               	bsf	___flmul@prod+2,7
  3556  07DB                     l1916:	
  3557  07DB  0859               	movf	___flmul@bexp,w
  3558  07DC  00F9               	movwf	??___flmul
  3559  07DD  1003               	clrc
  3560  07DE  0C79               	rrf	??___flmul,w
  3561  07DF  00FA               	movwf	??___flmul+1
  3562  07E0  087A               	movf	??___flmul+1,w
  3563  07E1  00DD               	movwf	___flmul@prod+3
  3564  07E2                     l671:	
  3565  07E2  0853               	movf	___flmul@sign,w
  3566  07E3  00F9               	movwf	??___flmul
  3567  07E4  0879               	movf	??___flmul,w
  3568  07E5  04DD               	iorwf	___flmul@prod+3,f
  3569  07E6                     l1918:	
  3570  07E6  085D               	movf	___flmul@prod+3,w
  3571  07E7  00CE               	movwf	?___flmul+3
  3572  07E8  085C               	movf	___flmul@prod+2,w
  3573  07E9  00CD               	movwf	?___flmul+2
  3574  07EA  085B               	movf	___flmul@prod+1,w
  3575  07EB  00CC               	movwf	?___flmul+1
  3576  07EC  085A               	movf	___flmul@prod,w
  3577  07ED  00CB               	movwf	?___flmul
  3578  07EE                     l659:	
  3579  07EE  0008               	return
  3580  07EF                     __end_of___flmul:	
  3581                           
  3582                           	psect	text11
  3583  0E34                     __ptext11:	
  3584 ;; *************** function __Umul8_16 *****************
  3585 ;; Defined at:
  3586 ;;		line 4 in file "C:\Program Files (x86)\Microchip\xc8\v2.10\pic\sources\c90\common\Umul8_16.c"
  3587 ;; Parameters:    Size  Location     Type
  3588 ;;  multiplier      1    wreg     unsigned char 
  3589 ;;  multiplicand    1    0[COMMON] unsigned char 
  3590 ;; Auto vars:     Size  Location     Type
  3591 ;;  multiplier      1    8[COMMON] unsigned char 
  3592 ;;  word_mpld       2    6[COMMON] unsigned int 
  3593 ;;  product         2    4[COMMON] unsigned int 
  3594 ;; Return value:  Size  Location     Type
  3595 ;;                  2    0[COMMON] unsigned int 
  3596 ;; Registers used:
  3597 ;;		wreg, status,2, status,0
  3598 ;; Tracked objects:
  3599 ;;		On entry : 0/0
  3600 ;;		On exit  : 0/0
  3601 ;;		Unchanged: 0/0
  3602 ;; Data sizes:     COMMON   BANK0   BANK1   BANK3   BANK2
  3603 ;;      Params:         2       0       0       0       0
  3604 ;;      Locals:         5       0       0       0       0
  3605 ;;      Temps:          2       0       0       0       0
  3606 ;;      Totals:         9       0       0       0       0
  3607 ;;Total ram usage:        9 bytes
  3608 ;; Hardware stack levels used:    1
  3609 ;; This function calls:
  3610 ;;		Nothing
  3611 ;; This function is called by:
  3612 ;;		___flmul
  3613 ;; This function uses a non-reentrant model
  3614 ;;
  3615                           
  3616                           
  3617                           ;psect for function __Umul8_16
  3618  0E34                     __Umul8_16:	
  3619                           
  3620                           ;incstack = 0
  3621                           ; Regs used in __Umul8_16: [wreg+status,2+status,0]
  3622                           ;__Umul8_16@multiplier stored from wreg
  3623  0E34  00F8               	movwf	__Umul8_16@multiplier
  3624  0E35                     l1594:	
  3625  0E35  01F4               	clrf	__Umul8_16@product
  3626  0E36  01F5               	clrf	__Umul8_16@product+1
  3627  0E37                     l1596:	
  3628  0E37  0870               	movf	__Umul8_16@multiplicand,w
  3629  0E38  00F2               	movwf	??__Umul8_16
  3630  0E39  01F3               	clrf	??__Umul8_16+1
  3631  0E3A  0872               	movf	??__Umul8_16,w
  3632  0E3B  00F6               	movwf	__Umul8_16@word_mpld
  3633  0E3C  0873               	movf	??__Umul8_16+1,w
  3634  0E3D  00F7               	movwf	__Umul8_16@word_mpld+1
  3635  0E3E                     l1598:	
  3636  0E3E  1C78               	btfss	__Umul8_16@multiplier,0
  3637  0E3F  2E41               	goto	u1481
  3638  0E40  2E42               	goto	u1480
  3639  0E41                     u1481:	
  3640  0E41  2E48               	goto	l716
  3641  0E42                     u1480:	
  3642  0E42                     l1600:	
  3643  0E42  0876               	movf	__Umul8_16@word_mpld,w
  3644  0E43  07F4               	addwf	__Umul8_16@product,f
  3645  0E44  1803               	skipnc
  3646  0E45  0AF5               	incf	__Umul8_16@product+1,f
  3647  0E46  0877               	movf	__Umul8_16@word_mpld+1,w
  3648  0E47  07F5               	addwf	__Umul8_16@product+1,f
  3649  0E48                     l716:	
  3650  0E48  3001               	movlw	1
  3651  0E49                     u1495:	
  3652  0E49  1003               	clrc
  3653  0E4A  0DF6               	rlf	__Umul8_16@word_mpld,f
  3654  0E4B  0DF7               	rlf	__Umul8_16@word_mpld+1,f
  3655  0E4C  3EFF               	addlw	-1
  3656  0E4D  1D03               	skipz
  3657  0E4E  2E49               	goto	u1495
  3658  0E4F  1003               	clrc
  3659  0E50  0CF8               	rrf	__Umul8_16@multiplier,f
  3660  0E51                     l1602:	
  3661  0E51  0878               	movf	__Umul8_16@multiplier,w
  3662  0E52  1D03               	btfss	3,2
  3663  0E53  2E55               	goto	u1501
  3664  0E54  2E56               	goto	u1500
  3665  0E55                     u1501:	
  3666  0E55  2E3E               	goto	l1598
  3667  0E56                     u1500:	
  3668  0E56                     l1604:	
  3669  0E56  0875               	movf	__Umul8_16@product+1,w
  3670  0E57  00F1               	movwf	?__Umul8_16+1
  3671  0E58  0874               	movf	__Umul8_16@product,w
  3672  0E59  00F0               	movwf	?__Umul8_16
  3673  0E5A                     l718:	
  3674  0E5A  0008               	return
  3675  0E5B                     __end_of__Umul8_16:	
  3676                           
  3677                           	psect	text12
  3678  0F46                     __ptext12:	
  3679 ;; *************** function ___awmod *****************
  3680 ;; Defined at:
  3681 ;;		line 5 in file "C:\Program Files (x86)\Microchip\xc8\v2.10\pic\sources\c90\common\awmod.c"
  3682 ;; Parameters:    Size  Location     Type
  3683 ;;  divisor         2    0[COMMON] int 
  3684 ;;  dividend        2    2[COMMON] int 
  3685 ;; Auto vars:     Size  Location     Type
  3686 ;;  sign            1    6[COMMON] unsigned char 
  3687 ;;  counter         1    5[COMMON] unsigned char 
  3688 ;; Return value:  Size  Location     Type
  3689 ;;                  2    0[COMMON] int 
  3690 ;; Registers used:
  3691 ;;		wreg, status,2, status,0
  3692 ;; Tracked objects:
  3693 ;;		On entry : 0/0
  3694 ;;		On exit  : 0/0
  3695 ;;		Unchanged: 0/0
  3696 ;; Data sizes:     COMMON   BANK0   BANK1   BANK3   BANK2
  3697 ;;      Params:         4       0       0       0       0
  3698 ;;      Locals:         2       0       0       0       0
  3699 ;;      Temps:          1       0       0       0       0
  3700 ;;      Totals:         7       0       0       0       0
  3701 ;;Total ram usage:        7 bytes
  3702 ;; Hardware stack levels used:    1
  3703 ;; This function calls:
  3704 ;;		Nothing
  3705 ;; This function is called by:
  3706 ;;		_conversion
  3707 ;; This function uses a non-reentrant model
  3708 ;;
  3709                           
  3710                           
  3711                           ;psect for function ___awmod
  3712  0F46                     ___awmod:	
  3713  0F46                     l1688:	
  3714                           ;incstack = 0
  3715                           ; Regs used in ___awmod: [wreg+status,2+status,0]
  3716                           
  3717  0F46  01F6               	clrf	___awmod@sign
  3718  0F47                     l1690:	
  3719  0F47  1FF3               	btfss	___awmod@dividend+1,7
  3720  0F48  2F4A               	goto	u1701
  3721  0F49  2F4B               	goto	u1700
  3722  0F4A                     u1701:	
  3723  0F4A  2F52               	goto	l1696
  3724  0F4B                     u1700:	
  3725  0F4B                     l1692:	
  3726  0F4B  09F2               	comf	___awmod@dividend,f
  3727  0F4C  09F3               	comf	___awmod@dividend+1,f
  3728  0F4D  0AF2               	incf	___awmod@dividend,f
  3729  0F4E  1903               	skipnz
  3730  0F4F  0AF3               	incf	___awmod@dividend+1,f
  3731  0F50                     l1694:	
  3732  0F50  01F6               	clrf	___awmod@sign
  3733  0F51  0AF6               	incf	___awmod@sign,f
  3734  0F52                     l1696:	
  3735  0F52  1FF1               	btfss	___awmod@divisor+1,7
  3736  0F53  2F55               	goto	u1711
  3737  0F54  2F56               	goto	u1710
  3738  0F55                     u1711:	
  3739  0F55  2F5B               	goto	l1700
  3740  0F56                     u1710:	
  3741  0F56                     l1698:	
  3742  0F56  09F0               	comf	___awmod@divisor,f
  3743  0F57  09F1               	comf	___awmod@divisor+1,f
  3744  0F58  0AF0               	incf	___awmod@divisor,f
  3745  0F59  1903               	skipnz
  3746  0F5A  0AF1               	incf	___awmod@divisor+1,f
  3747  0F5B                     l1700:	
  3748  0F5B  0870               	movf	___awmod@divisor,w
  3749  0F5C  0471               	iorwf	___awmod@divisor+1,w
  3750  0F5D  1903               	btfsc	3,2
  3751  0F5E  2F60               	goto	u1721
  3752  0F5F  2F61               	goto	u1720
  3753  0F60                     u1721:	
  3754  0F60  2F90               	goto	l1718
  3755  0F61                     u1720:	
  3756  0F61                     l1702:	
  3757  0F61  01F5               	clrf	___awmod@counter
  3758  0F62  0AF5               	incf	___awmod@counter,f
  3759  0F63  2F6F               	goto	l1708
  3760  0F64                     l1704:	
  3761  0F64  3001               	movlw	1
  3762  0F65                     u1735:	
  3763  0F65  1003               	clrc
  3764  0F66  0DF0               	rlf	___awmod@divisor,f
  3765  0F67  0DF1               	rlf	___awmod@divisor+1,f
  3766  0F68  3EFF               	addlw	-1
  3767  0F69  1D03               	skipz
  3768  0F6A  2F65               	goto	u1735
  3769  0F6B                     l1706:	
  3770  0F6B  3001               	movlw	1
  3771  0F6C  00F4               	movwf	??___awmod
  3772  0F6D  0874               	movf	??___awmod,w
  3773  0F6E  07F5               	addwf	___awmod@counter,f
  3774  0F6F                     l1708:	
  3775  0F6F  1FF1               	btfss	___awmod@divisor+1,7
  3776  0F70  2F72               	goto	u1741
  3777  0F71  2F73               	goto	u1740
  3778  0F72                     u1741:	
  3779  0F72  2F64               	goto	l1704
  3780  0F73                     u1740:	
  3781  0F73                     l1710:	
  3782  0F73  0871               	movf	___awmod@divisor+1,w
  3783  0F74  0273               	subwf	___awmod@dividend+1,w
  3784  0F75  1D03               	skipz
  3785  0F76  2F79               	goto	u1755
  3786  0F77  0870               	movf	___awmod@divisor,w
  3787  0F78  0272               	subwf	___awmod@dividend,w
  3788  0F79                     u1755:	
  3789  0F79  1C03               	skipc
  3790  0F7A  2F7C               	goto	u1751
  3791  0F7B  2F7D               	goto	u1750
  3792  0F7C                     u1751:	
  3793  0F7C  2F83               	goto	l1714
  3794  0F7D                     u1750:	
  3795  0F7D                     l1712:	
  3796  0F7D  0870               	movf	___awmod@divisor,w
  3797  0F7E  02F2               	subwf	___awmod@dividend,f
  3798  0F7F  0871               	movf	___awmod@divisor+1,w
  3799  0F80  1C03               	skipc
  3800  0F81  03F3               	decf	___awmod@dividend+1,f
  3801  0F82  02F3               	subwf	___awmod@dividend+1,f
  3802  0F83                     l1714:	
  3803  0F83  3001               	movlw	1
  3804  0F84                     u1765:	
  3805  0F84  1003               	clrc
  3806  0F85  0CF1               	rrf	___awmod@divisor+1,f
  3807  0F86  0CF0               	rrf	___awmod@divisor,f
  3808  0F87  3EFF               	addlw	-1
  3809  0F88  1D03               	skipz
  3810  0F89  2F84               	goto	u1765
  3811  0F8A                     l1716:	
  3812  0F8A  3001               	movlw	1
  3813  0F8B  02F5               	subwf	___awmod@counter,f
  3814  0F8C  1D03               	btfss	3,2
  3815  0F8D  2F8F               	goto	u1771
  3816  0F8E  2F90               	goto	u1770
  3817  0F8F                     u1771:	
  3818  0F8F  2F73               	goto	l1710
  3819  0F90                     u1770:	
  3820  0F90                     l1718:	
  3821  0F90  0876               	movf	___awmod@sign,w
  3822  0F91  1903               	btfsc	3,2
  3823  0F92  2F94               	goto	u1781
  3824  0F93  2F95               	goto	u1780
  3825  0F94                     u1781:	
  3826  0F94  2F9A               	goto	l1722
  3827  0F95                     u1780:	
  3828  0F95                     l1720:	
  3829  0F95  09F2               	comf	___awmod@dividend,f
  3830  0F96  09F3               	comf	___awmod@dividend+1,f
  3831  0F97  0AF2               	incf	___awmod@dividend,f
  3832  0F98  1903               	skipnz
  3833  0F99  0AF3               	incf	___awmod@dividend+1,f
  3834  0F9A                     l1722:	
  3835  0F9A  0873               	movf	___awmod@dividend+1,w
  3836  0F9B  00F1               	movwf	?___awmod+1
  3837  0F9C  0872               	movf	___awmod@dividend,w
  3838  0F9D  00F0               	movwf	?___awmod
  3839  0F9E                     l436:	
  3840  0F9E  0008               	return
  3841  0F9F                     __end_of___awmod:	
  3842                           
  3843                           	psect	text13
  3844  006A                     __ptext13:	
  3845 ;; *************** function ___awdiv *****************
  3846 ;; Defined at:
  3847 ;;		line 5 in file "C:\Program Files (x86)\Microchip\xc8\v2.10\pic\sources\c90\common\awdiv.c"
  3848 ;; Parameters:    Size  Location     Type
  3849 ;;  divisor         2    0[COMMON] int 
  3850 ;;  dividend        2    2[COMMON] int 
  3851 ;; Auto vars:     Size  Location     Type
  3852 ;;  quotient        2    7[COMMON] int 
  3853 ;;  sign            1    6[COMMON] unsigned char 
  3854 ;;  counter         1    5[COMMON] unsigned char 
  3855 ;; Return value:  Size  Location     Type
  3856 ;;                  2    0[COMMON] int 
  3857 ;; Registers used:
  3858 ;;		wreg, status,2, status,0
  3859 ;; Tracked objects:
  3860 ;;		On entry : 0/0
  3861 ;;		On exit  : 0/0
  3862 ;;		Unchanged: 0/0
  3863 ;; Data sizes:     COMMON   BANK0   BANK1   BANK3   BANK2
  3864 ;;      Params:         4       0       0       0       0
  3865 ;;      Locals:         4       0       0       0       0
  3866 ;;      Temps:          1       0       0       0       0
  3867 ;;      Totals:         9       0       0       0       0
  3868 ;;Total ram usage:        9 bytes
  3869 ;; Hardware stack levels used:    1
  3870 ;; This function calls:
  3871 ;;		Nothing
  3872 ;; This function is called by:
  3873 ;;		_conversion
  3874 ;; This function uses a non-reentrant model
  3875 ;;
  3876                           
  3877                           
  3878                           ;psect for function ___awdiv
  3879  006A                     ___awdiv:	
  3880  006A                     l1644:	
  3881                           ;incstack = 0
  3882                           ; Regs used in ___awdiv: [wreg+status,2+status,0]
  3883                           
  3884  006A  01F6               	clrf	___awdiv@sign
  3885  006B                     l1646:	
  3886  006B  1FF1               	btfss	___awdiv@divisor+1,7
  3887  006C  286E               	goto	u1601
  3888  006D  286F               	goto	u1600
  3889  006E                     u1601:	
  3890  006E  2876               	goto	l1652
  3891  006F                     u1600:	
  3892  006F                     l1648:	
  3893  006F  09F0               	comf	___awdiv@divisor,f
  3894  0070  09F1               	comf	___awdiv@divisor+1,f
  3895  0071  0AF0               	incf	___awdiv@divisor,f
  3896  0072  1903               	skipnz
  3897  0073  0AF1               	incf	___awdiv@divisor+1,f
  3898  0074                     l1650:	
  3899  0074  01F6               	clrf	___awdiv@sign
  3900  0075  0AF6               	incf	___awdiv@sign,f
  3901  0076                     l1652:	
  3902  0076  1FF3               	btfss	___awdiv@dividend+1,7
  3903  0077  2879               	goto	u1611
  3904  0078  287A               	goto	u1610
  3905  0079                     u1611:	
  3906  0079  2883               	goto	l1658
  3907  007A                     u1610:	
  3908  007A                     l1654:	
  3909  007A  09F2               	comf	___awdiv@dividend,f
  3910  007B  09F3               	comf	___awdiv@dividend+1,f
  3911  007C  0AF2               	incf	___awdiv@dividend,f
  3912  007D  1903               	skipnz
  3913  007E  0AF3               	incf	___awdiv@dividend+1,f
  3914  007F                     l1656:	
  3915  007F  3001               	movlw	1
  3916  0080  00F4               	movwf	??___awdiv
  3917  0081  0874               	movf	??___awdiv,w
  3918  0082  06F6               	xorwf	___awdiv@sign,f
  3919  0083                     l1658:	
  3920  0083  01F7               	clrf	___awdiv@quotient
  3921  0084  01F8               	clrf	___awdiv@quotient+1
  3922  0085                     l1660:	
  3923  0085  0870               	movf	___awdiv@divisor,w
  3924  0086  0471               	iorwf	___awdiv@divisor+1,w
  3925  0087  1903               	btfsc	3,2
  3926  0088  288A               	goto	u1621
  3927  0089  288B               	goto	u1620
  3928  008A                     u1621:	
  3929  008A  28C2               	goto	l1680
  3930  008B                     u1620:	
  3931  008B                     l1662:	
  3932  008B  01F5               	clrf	___awdiv@counter
  3933  008C  0AF5               	incf	___awdiv@counter,f
  3934  008D  2899               	goto	l1668
  3935  008E                     l1664:	
  3936  008E  3001               	movlw	1
  3937  008F                     u1635:	
  3938  008F  1003               	clrc
  3939  0090  0DF0               	rlf	___awdiv@divisor,f
  3940  0091  0DF1               	rlf	___awdiv@divisor+1,f
  3941  0092  3EFF               	addlw	-1
  3942  0093  1D03               	skipz
  3943  0094  288F               	goto	u1635
  3944  0095                     l1666:	
  3945  0095  3001               	movlw	1
  3946  0096  00F4               	movwf	??___awdiv
  3947  0097  0874               	movf	??___awdiv,w
  3948  0098  07F5               	addwf	___awdiv@counter,f
  3949  0099                     l1668:	
  3950  0099  1FF1               	btfss	___awdiv@divisor+1,7
  3951  009A  289C               	goto	u1641
  3952  009B  289D               	goto	u1640
  3953  009C                     u1641:	
  3954  009C  288E               	goto	l1664
  3955  009D                     u1640:	
  3956  009D                     l1670:	
  3957  009D  3001               	movlw	1
  3958  009E                     u1655:	
  3959  009E  1003               	clrc
  3960  009F  0DF7               	rlf	___awdiv@quotient,f
  3961  00A0  0DF8               	rlf	___awdiv@quotient+1,f
  3962  00A1  3EFF               	addlw	-1
  3963  00A2  1D03               	skipz
  3964  00A3  289E               	goto	u1655
  3965  00A4  0871               	movf	___awdiv@divisor+1,w
  3966  00A5  0273               	subwf	___awdiv@dividend+1,w
  3967  00A6  1D03               	skipz
  3968  00A7  28AA               	goto	u1665
  3969  00A8  0870               	movf	___awdiv@divisor,w
  3970  00A9  0272               	subwf	___awdiv@dividend,w
  3971  00AA                     u1665:	
  3972  00AA  1C03               	skipc
  3973  00AB  28AD               	goto	u1661
  3974  00AC  28AE               	goto	u1660
  3975  00AD                     u1661:	
  3976  00AD  28B5               	goto	l1676
  3977  00AE                     u1660:	
  3978  00AE                     l1672:	
  3979  00AE  0870               	movf	___awdiv@divisor,w
  3980  00AF  02F2               	subwf	___awdiv@dividend,f
  3981  00B0  0871               	movf	___awdiv@divisor+1,w
  3982  00B1  1C03               	skipc
  3983  00B2  03F3               	decf	___awdiv@dividend+1,f
  3984  00B3  02F3               	subwf	___awdiv@dividend+1,f
  3985  00B4                     l1674:	
  3986  00B4  1477               	bsf	___awdiv@quotient,0
  3987  00B5                     l1676:	
  3988  00B5  3001               	movlw	1
  3989  00B6                     u1675:	
  3990  00B6  1003               	clrc
  3991  00B7  0CF1               	rrf	___awdiv@divisor+1,f
  3992  00B8  0CF0               	rrf	___awdiv@divisor,f
  3993  00B9  3EFF               	addlw	-1
  3994  00BA  1D03               	skipz
  3995  00BB  28B6               	goto	u1675
  3996  00BC                     l1678:	
  3997  00BC  3001               	movlw	1
  3998  00BD  02F5               	subwf	___awdiv@counter,f
  3999  00BE  1D03               	btfss	3,2
  4000  00BF  28C1               	goto	u1681
  4001  00C0  28C2               	goto	u1680
  4002  00C1                     u1681:	
  4003  00C1  289D               	goto	l1670
  4004  00C2                     u1680:	
  4005  00C2                     l1680:	
  4006  00C2  0876               	movf	___awdiv@sign,w
  4007  00C3  1903               	btfsc	3,2
  4008  00C4  28C6               	goto	u1691
  4009  00C5  28C7               	goto	u1690
  4010  00C6                     u1691:	
  4011  00C6  28CC               	goto	l1684
  4012  00C7                     u1690:	
  4013  00C7                     l1682:	
  4014  00C7  09F7               	comf	___awdiv@quotient,f
  4015  00C8  09F8               	comf	___awdiv@quotient+1,f
  4016  00C9  0AF7               	incf	___awdiv@quotient,f
  4017  00CA  1903               	skipnz
  4018  00CB  0AF8               	incf	___awdiv@quotient+1,f
  4019  00CC                     l1684:	
  4020  00CC  0878               	movf	___awdiv@quotient+1,w
  4021  00CD  00F1               	movwf	?___awdiv+1
  4022  00CE  0877               	movf	___awdiv@quotient,w
  4023  00CF  00F0               	movwf	?___awdiv
  4024  00D0                     l423:	
  4025  00D0  0008               	return
  4026  00D1                     __end_of___awdiv:	
  4027                           
  4028                           	psect	text14
  4029  0E10                     __ptext14:	
  4030 ;; *************** function _colocar *****************
  4031 ;; Defined at:
  4032 ;;		line 62 in file "./LCD.h"
  4033 ;; Parameters:    Size  Location     Type
  4034 ;;  x               1    wreg     const unsigned char 
  4035 ;;  y               1    3[COMMON] const unsigned char 
  4036 ;; Auto vars:     Size  Location     Type
  4037 ;;  x               1    5[COMMON] const unsigned char 
  4038 ;;  temp            1    6[COMMON] unsigned char 
  4039 ;; Return value:  Size  Location     Type
  4040 ;;                  1    wreg      void 
  4041 ;; Registers used:
  4042 ;;		wreg, status,2, status,0, pclath, cstack
  4043 ;; Tracked objects:
  4044 ;;		On entry : 0/0
  4045 ;;		On exit  : 0/0
  4046 ;;		Unchanged: 0/0
  4047 ;; Data sizes:     COMMON   BANK0   BANK1   BANK3   BANK2
  4048 ;;      Params:         1       0       0       0       0
  4049 ;;      Locals:         2       0       0       0       0
  4050 ;;      Temps:          1       0       0       0       0
  4051 ;;      Totals:         4       0       0       0       0
  4052 ;;Total ram usage:        4 bytes
  4053 ;; Hardware stack levels used:    1
  4054 ;; Hardware stack levels required when called:    1
  4055 ;; This function calls:
  4056 ;;		_comando
  4057 ;; This function is called by:
  4058 ;;		_main
  4059 ;; This function uses a non-reentrant model
  4060 ;;
  4061                           
  4062                           
  4063                           ;psect for function _colocar
  4064  0E10                     _colocar:	
  4065                           
  4066                           ;incstack = 0
  4067                           ; Regs used in _colocar: [wreg+status,2+status,0+pclath+cstack]
  4068                           ;colocar@x stored from wreg
  4069  0E10  00F5               	movwf	colocar@x
  4070  0E11                     l1988:	
  4071                           
  4072                           ;./LCD.h: 62: void colocar(const char x,const char y);./LCD.h: 63: {;./LCD.h: 64:     ch
      +                          ar temp;;./LCD.h: 66:     if (y == 1)
  4073  0E11  0373               	decf	colocar@y,w
  4074  0E12  1D03               	btfss	3,2
  4075  0E13  2E15               	goto	u2351
  4076  0E14  2E16               	goto	u2350
  4077  0E15                     u2351:	
  4078  0E15  2E22               	goto	l1994
  4079  0E16                     u2350:	
  4080  0E16                     l1990:	
  4081                           
  4082                           ;./LCD.h: 67:     {;./LCD.h: 68:         temp = 0x80 + x - 1;
  4083  0E16  0875               	movf	colocar@x,w
  4084  0E17  3E7F               	addlw	127
  4085  0E18  00F4               	movwf	??_colocar
  4086  0E19  0874               	movf	??_colocar,w
  4087  0E1A  00F6               	movwf	colocar@temp
  4088  0E1B                     l1992:	
  4089                           
  4090                           ;./LCD.h: 69:         comando(temp);
  4091  0E1B  0876               	movf	colocar@temp,w
  4092  0E1C  120A  158A  25E8  120A  158A  	fcall	_comando
  4093                           
  4094                           ;./LCD.h: 70:     }
  4095  0E21  2E33               	goto	l78
  4096  0E22                     l1994:	
  4097  0E22  3002               	movlw	2
  4098  0E23  0673               	xorwf	colocar@y,w
  4099  0E24  1D03               	btfss	3,2
  4100  0E25  2E27               	goto	u2361
  4101  0E26  2E28               	goto	u2360
  4102  0E27                     u2361:	
  4103  0E27  2E33               	goto	l78
  4104  0E28                     u2360:	
  4105  0E28                     l1996:	
  4106                           
  4107                           ;./LCD.h: 72:     {;./LCD.h: 73:         temp = 0xC0 + x - 1;
  4108  0E28  0875               	movf	colocar@x,w
  4109  0E29  3EBF               	addlw	191
  4110  0E2A  00F4               	movwf	??_colocar
  4111  0E2B  0874               	movf	??_colocar,w
  4112  0E2C  00F6               	movwf	colocar@temp
  4113  0E2D                     l1998:	
  4114                           
  4115                           ;./LCD.h: 74:         comando(temp);
  4116  0E2D  0876               	movf	colocar@temp,w
  4117  0E2E  120A  158A  25E8  120A  158A  	fcall	_comando
  4118  0E33                     l78:	
  4119  0E33  0008               	return
  4120  0E34                     __end_of_colocar:	
  4121                           
  4122                           	psect	text15
  4123  0DD5                     __ptext15:	
  4124 ;; *************** function _borrarv *****************
  4125 ;; Defined at:
  4126 ;;		line 54 in file "./LCD.h"
  4127 ;; Parameters:    Size  Location     Type
  4128 ;;		None
  4129 ;; Auto vars:     Size  Location     Type
  4130 ;;		None
  4131 ;; Return value:  Size  Location     Type
  4132 ;;                  1    wreg      void 
  4133 ;; Registers used:
  4134 ;;		wreg, status,2, status,0, pclath, cstack
  4135 ;; Tracked objects:
  4136 ;;		On entry : 0/0
  4137 ;;		On exit  : 0/0
  4138 ;;		Unchanged: 0/0
  4139 ;; Data sizes:     COMMON   BANK0   BANK1   BANK3   BANK2
  4140 ;;      Params:         0       0       0       0       0
  4141 ;;      Locals:         0       0       0       0       0
  4142 ;;      Temps:          0       0       0       0       0
  4143 ;;      Totals:         0       0       0       0       0
  4144 ;;Total ram usage:        0 bytes
  4145 ;; Hardware stack levels used:    1
  4146 ;; Hardware stack levels required when called:    1
  4147 ;; This function calls:
  4148 ;;		_comando
  4149 ;; This function is called by:
  4150 ;;		_main
  4151 ;; This function uses a non-reentrant model
  4152 ;;
  4153                           
  4154                           
  4155                           ;psect for function _borrarv
  4156  0DD5                     _borrarv:	
  4157  0DD5                     l1986:	
  4158                           ;incstack = 0
  4159                           ; Regs used in _borrarv: [wreg+status,2+status,0+pclath+cstack]
  4160                           
  4161                           
  4162                           ;./LCD.h: 56:     comando(0);
  4163  0DD5  3000               	movlw	0
  4164  0DD6  120A  158A  25E8  120A  158A  	fcall	_comando
  4165                           
  4166                           ;./LCD.h: 57:     comando(1);
  4167  0DDB  3001               	movlw	1
  4168  0DDC  120A  158A  25E8  120A  158A  	fcall	_comando
  4169                           
  4170                           ;./LCD.h: 59:     comando(0x0C);
  4171  0DE1  300C               	movlw	12
  4172  0DE2  120A  158A  25E8  120A  158A  	fcall	_comando
  4173  0DE7                     l72:	
  4174  0DE7  0008               	return
  4175  0DE8                     __end_of_borrarv:	
  4176                           
  4177                           	psect	text16
  4178  0DE8                     __ptext16:	
  4179 ;; *************** function _comando *****************
  4180 ;; Defined at:
  4181 ;;		line 16 in file "./LCD.h"
  4182 ;; Parameters:    Size  Location     Type
  4183 ;;  x               1    wreg     const unsigned char 
  4184 ;; Auto vars:     Size  Location     Type
  4185 ;;  x               1    2[COMMON] const unsigned char 
  4186 ;; Return value:  Size  Location     Type
  4187 ;;                  1    wreg      void 
  4188 ;; Registers used:
  4189 ;;		wreg
  4190 ;; Tracked objects:
  4191 ;;		On entry : 0/0
  4192 ;;		On exit  : 0/0
  4193 ;;		Unchanged: 0/0
  4194 ;; Data sizes:     COMMON   BANK0   BANK1   BANK3   BANK2
  4195 ;;      Params:         0       0       0       0       0
  4196 ;;      Locals:         1       0       0       0       0
  4197 ;;      Temps:          2       0       0       0       0
  4198 ;;      Totals:         3       0       0       0       0
  4199 ;;Total ram usage:        3 bytes
  4200 ;; Hardware stack levels used:    1
  4201 ;; This function calls:
  4202 ;;		Nothing
  4203 ;; This function is called by:
  4204 ;;		_iniciarLCD
  4205 ;;		_borrarv
  4206 ;;		_colocar
  4207 ;; This function uses a non-reentrant model
  4208 ;;
  4209                           
  4210                           
  4211                           ;psect for function _comando
  4212  0DE8                     _comando:	
  4213                           
  4214                           ;incstack = 0
  4215                           ; Regs used in _comando: [wreg]
  4216                           ;comando@x stored from wreg
  4217  0DE8  00F2               	movwf	comando@x
  4218  0DE9                     l1612:	
  4219                           
  4220                           ;./LCD.h: 16: void comando(const char x);./LCD.h: 17: {;./LCD.h: 18:     PORTDbits.RD6 =
      +                           0;
  4221  0DE9  1283               	bcf	3,5	;RP0=0, select bank0
  4222  0DEA  1303               	bcf	3,6	;RP1=0, select bank0
  4223  0DEB  1308               	bcf	8,6	;volatile
  4224  0DEC                     l1614:	
  4225                           
  4226                           ;./LCD.h: 19:     PORTB = x;
  4227  0DEC  0872               	movf	comando@x,w
  4228  0DED  0086               	movwf	6	;volatile
  4229  0DEE                     l1616:	
  4230                           
  4231                           ;./LCD.h: 20:     PORTDbits.RD7 = 1;
  4232  0DEE  1788               	bsf	8,7	;volatile
  4233                           
  4234                           ;./LCD.h: 21:     _delay((unsigned long)((4)*(4000000/4000.0)));
  4235  0DEF  3006               	movlw	6
  4236  0DF0  00F1               	movwf	??_comando+1
  4237  0DF1  3030               	movlw	48
  4238  0DF2  00F0               	movwf	??_comando
  4239  0DF3                     u3047:	
  4240  0DF3  0BF0               	decfsz	??_comando,f
  4241  0DF4  2DF3               	goto	u3047
  4242  0DF5  0BF1               	decfsz	??_comando+1,f
  4243  0DF6  2DF3               	goto	u3047
  4244  0DF7  0000               	nop
  4245  0DF8                     l1618:	
  4246                           
  4247                           ;./LCD.h: 22:     PORTDbits.RD7 = 0;
  4248  0DF8  1283               	bcf	3,5	;RP0=0, select bank0
  4249  0DF9  1303               	bcf	3,6	;RP1=0, select bank0
  4250  0DFA  1388               	bcf	8,7	;volatile
  4251  0DFB                     l66:	
  4252  0DFB  0008               	return
  4253  0DFC                     __end_of_comando:	
  4254                           
  4255                           	psect	text17
  4256  0DAC                     __ptext17:	
  4257 ;; *************** function _I2C_Master_Write *****************
  4258 ;; Defined at:
  4259 ;;		line 65 in file "./I2Cmaestro.h"
  4260 ;; Parameters:    Size  Location     Type
  4261 ;;  d               2    0[COMMON] unsigned int 
  4262 ;; Auto vars:     Size  Location     Type
  4263 ;;		None
  4264 ;; Return value:  Size  Location     Type
  4265 ;;                  1    wreg      void 
  4266 ;; Registers used:
  4267 ;;		wreg, status,2, status,0, pclath, cstack
  4268 ;; Tracked objects:
  4269 ;;		On entry : 0/0
  4270 ;;		On exit  : 0/0
  4271 ;;		Unchanged: 0/0
  4272 ;; Data sizes:     COMMON   BANK0   BANK1   BANK3   BANK2
  4273 ;;      Params:         2       0       0       0       0
  4274 ;;      Locals:         0       0       0       0       0
  4275 ;;      Temps:          0       0       0       0       0
  4276 ;;      Totals:         2       0       0       0       0
  4277 ;;Total ram usage:        2 bytes
  4278 ;; Hardware stack levels used:    1
  4279 ;; Hardware stack levels required when called:    1
  4280 ;; This function calls:
  4281 ;;		_I2C_Master_Wait
  4282 ;; This function is called by:
  4283 ;;		_main
  4284 ;; This function uses a non-reentrant model
  4285 ;;
  4286                           
  4287                           
  4288                           ;psect for function _I2C_Master_Write
  4289  0DAC                     _I2C_Master_Write:	
  4290  0DAC                     l1942:	
  4291                           ;incstack = 0
  4292                           ; Regs used in _I2C_Master_Write: [wreg+status,2+status,0+pclath+cstack]
  4293                           
  4294                           
  4295                           ;./I2Cmaestro.h: 65: void I2C_Master_Write(unsigned d);./I2Cmaestro.h: 66: {;./I2Cmaestr
      +                          o.h: 67:     I2C_Master_Wait();
  4296  0DAC  120A  158A  25B6  120A  158A  	fcall	_I2C_Master_Wait
  4297  0DB1                     l1944:	
  4298                           
  4299                           ;./I2Cmaestro.h: 68:     SSPBUF = d;
  4300  0DB1  0870               	movf	I2C_Master_Write@d,w
  4301  0DB2  1283               	bcf	3,5	;RP0=0, select bank0
  4302  0DB3  1303               	bcf	3,6	;RP1=0, select bank0
  4303  0DB4  0093               	movwf	19	;volatile
  4304  0DB5                     l58:	
  4305  0DB5  0008               	return
  4306  0DB6                     __end_of_I2C_Master_Write:	
  4307                           
  4308                           	psect	text18
  4309  0DA3                     __ptext18:	
  4310 ;; *************** function _I2C_Master_Stop *****************
  4311 ;; Defined at:
  4312 ;;		line 55 in file "./I2Cmaestro.h"
  4313 ;; Parameters:    Size  Location     Type
  4314 ;;		None
  4315 ;; Auto vars:     Size  Location     Type
  4316 ;;		None
  4317 ;; Return value:  Size  Location     Type
  4318 ;;                  1    wreg      void 
  4319 ;; Registers used:
  4320 ;;		wreg, status,2, status,0, pclath, cstack
  4321 ;; Tracked objects:
  4322 ;;		On entry : 0/0
  4323 ;;		On exit  : 0/0
  4324 ;;		Unchanged: 0/0
  4325 ;; Data sizes:     COMMON   BANK0   BANK1   BANK3   BANK2
  4326 ;;      Params:         0       0       0       0       0
  4327 ;;      Locals:         0       0       0       0       0
  4328 ;;      Temps:          0       0       0       0       0
  4329 ;;      Totals:         0       0       0       0       0
  4330 ;;Total ram usage:        0 bytes
  4331 ;; Hardware stack levels used:    1
  4332 ;; Hardware stack levels required when called:    1
  4333 ;; This function calls:
  4334 ;;		_I2C_Master_Wait
  4335 ;; This function is called by:
  4336 ;;		_main
  4337 ;; This function uses a non-reentrant model
  4338 ;;
  4339                           
  4340                           
  4341                           ;psect for function _I2C_Master_Stop
  4342  0DA3                     _I2C_Master_Stop:	
  4343  0DA3                     l1938:	
  4344                           ;incstack = 0
  4345                           ; Regs used in _I2C_Master_Stop: [wreg+status,2+status,0+pclath+cstack]
  4346                           
  4347                           
  4348                           ;./I2Cmaestro.h: 57:     I2C_Master_Wait();
  4349  0DA3  120A  158A  25B6  120A  158A  	fcall	_I2C_Master_Wait
  4350  0DA8                     l1940:	
  4351                           
  4352                           ;./I2Cmaestro.h: 58:     SSPCON2bits.PEN = 1;
  4353  0DA8  1683               	bsf	3,5	;RP0=1, select bank1
  4354  0DA9  1303               	bcf	3,6	;RP1=0, select bank1
  4355  0DAA  1511               	bsf	17,2	;volatile
  4356  0DAB                     l55:	
  4357  0DAB  0008               	return
  4358  0DAC                     __end_of_I2C_Master_Stop:	
  4359                           
  4360                           	psect	text19
  4361  0D9A                     __ptext19:	
  4362 ;; *************** function _I2C_Master_Start *****************
  4363 ;; Defined at:
  4364 ;;		line 39 in file "./I2Cmaestro.h"
  4365 ;; Parameters:    Size  Location     Type
  4366 ;;		None
  4367 ;; Auto vars:     Size  Location     Type
  4368 ;;		None
  4369 ;; Return value:  Size  Location     Type
  4370 ;;                  1    wreg      void 
  4371 ;; Registers used:
  4372 ;;		wreg, status,2, status,0, pclath, cstack
  4373 ;; Tracked objects:
  4374 ;;		On entry : 0/0
  4375 ;;		On exit  : 0/0
  4376 ;;		Unchanged: 0/0
  4377 ;; Data sizes:     COMMON   BANK0   BANK1   BANK3   BANK2
  4378 ;;      Params:         0       0       0       0       0
  4379 ;;      Locals:         0       0       0       0       0
  4380 ;;      Temps:          0       0       0       0       0
  4381 ;;      Totals:         0       0       0       0       0
  4382 ;;Total ram usage:        0 bytes
  4383 ;; Hardware stack levels used:    1
  4384 ;; Hardware stack levels required when called:    1
  4385 ;; This function calls:
  4386 ;;		_I2C_Master_Wait
  4387 ;; This function is called by:
  4388 ;;		_main
  4389 ;; This function uses a non-reentrant model
  4390 ;;
  4391                           
  4392                           
  4393                           ;psect for function _I2C_Master_Start
  4394  0D9A                     _I2C_Master_Start:	
  4395  0D9A                     l1934:	
  4396                           ;incstack = 0
  4397                           ; Regs used in _I2C_Master_Start: [wreg+status,2+status,0+pclath+cstack]
  4398                           
  4399                           
  4400                           ;./I2Cmaestro.h: 41:     I2C_Master_Wait();
  4401  0D9A  120A  158A  25B6  120A  158A  	fcall	_I2C_Master_Wait
  4402  0D9F                     l1936:	
  4403                           
  4404                           ;./I2Cmaestro.h: 42:     SSPCON2bits.SEN = 1;
  4405  0D9F  1683               	bsf	3,5	;RP0=1, select bank1
  4406  0DA0  1303               	bcf	3,6	;RP1=0, select bank1
  4407  0DA1  1411               	bsf	17,0	;volatile
  4408  0DA2                     l52:	
  4409  0DA2  0008               	return
  4410  0DA3                     __end_of_I2C_Master_Start:	
  4411                           
  4412                           	psect	text20
  4413  0E5B                     __ptext20:	
  4414 ;; *************** function _I2C_Master_Read *****************
  4415 ;; Defined at:
  4416 ;;		line 74 in file "./I2Cmaestro.h"
  4417 ;; Parameters:    Size  Location     Type
  4418 ;;  a               2    0[COMMON] unsigned short 
  4419 ;; Auto vars:     Size  Location     Type
  4420 ;;  temp            2    4[COMMON] unsigned short 
  4421 ;; Return value:  Size  Location     Type
  4422 ;;                  2    0[COMMON] unsigned short 
  4423 ;; Registers used:
  4424 ;;		wreg, status,2, status,0, pclath, cstack
  4425 ;; Tracked objects:
  4426 ;;		On entry : 0/0
  4427 ;;		On exit  : 0/0
  4428 ;;		Unchanged: 0/0
  4429 ;; Data sizes:     COMMON   BANK0   BANK1   BANK3   BANK2
  4430 ;;      Params:         2       0       0       0       0
  4431 ;;      Locals:         2       0       0       0       0
  4432 ;;      Temps:          2       0       0       0       0
  4433 ;;      Totals:         6       0       0       0       0
  4434 ;;Total ram usage:        6 bytes
  4435 ;; Hardware stack levels used:    1
  4436 ;; Hardware stack levels required when called:    1
  4437 ;; This function calls:
  4438 ;;		_I2C_Master_Wait
  4439 ;; This function is called by:
  4440 ;;		_main
  4441 ;; This function uses a non-reentrant model
  4442 ;;
  4443                           
  4444                           
  4445                           ;psect for function _I2C_Master_Read
  4446  0E5B                     _I2C_Master_Read:	
  4447  0E5B                     l1946:	
  4448                           ;incstack = 0
  4449                           ; Regs used in _I2C_Master_Read: [wreg+status,2+status,0+pclath+cstack]
  4450                           
  4451                           
  4452                           ;./I2Cmaestro.h: 74: unsigned short I2C_Master_Read(unsigned short a);./I2Cmaestro.h: 75
      +                          : {;./I2Cmaestro.h: 76:     unsigned short temp;;./I2Cmaestro.h: 77:     I2C_Master_Wait
      +                          ();
  4453  0E5B  120A  158A  25B6  120A  158A  	fcall	_I2C_Master_Wait
  4454  0E60                     l1948:	
  4455                           
  4456                           ;./I2Cmaestro.h: 78:     SSPCON2bits.RCEN = 1;
  4457  0E60  1683               	bsf	3,5	;RP0=1, select bank1
  4458  0E61  1303               	bcf	3,6	;RP1=0, select bank1
  4459  0E62  1591               	bsf	17,3	;volatile
  4460                           
  4461                           ;./I2Cmaestro.h: 79:     I2C_Master_Wait();
  4462  0E63  120A  158A  25B6  120A  158A  	fcall	_I2C_Master_Wait
  4463  0E68                     l1950:	
  4464                           
  4465                           ;./I2Cmaestro.h: 80:     temp = SSPBUF;
  4466  0E68  1283               	bcf	3,5	;RP0=0, select bank0
  4467  0E69  1303               	bcf	3,6	;RP1=0, select bank0
  4468  0E6A  0813               	movf	19,w	;volatile
  4469  0E6B  00F2               	movwf	??_I2C_Master_Read
  4470  0E6C  01F3               	clrf	??_I2C_Master_Read+1
  4471  0E6D  0872               	movf	??_I2C_Master_Read,w
  4472  0E6E  00F4               	movwf	I2C_Master_Read@temp
  4473  0E6F  0873               	movf	??_I2C_Master_Read+1,w
  4474  0E70  00F5               	movwf	I2C_Master_Read@temp+1
  4475  0E71                     l1952:	
  4476                           
  4477                           ;./I2Cmaestro.h: 81:     I2C_Master_Wait();
  4478  0E71  120A  158A  25B6  120A  158A  	fcall	_I2C_Master_Wait
  4479  0E76                     l1954:	
  4480                           
  4481                           ;./I2Cmaestro.h: 82:     if(a == 1){
  4482  0E76  0370               	decf	I2C_Master_Read@a,w
  4483  0E77  0471               	iorwf	I2C_Master_Read@a+1,w
  4484  0E78  1D03               	btfss	3,2
  4485  0E79  2E7B               	goto	u2341
  4486  0E7A  2E7C               	goto	u2340
  4487  0E7B                     u2341:	
  4488  0E7B  2E80               	goto	l61
  4489  0E7C                     u2340:	
  4490  0E7C                     l1956:	
  4491                           
  4492                           ;./I2Cmaestro.h: 83:         SSPCON2bits.ACKDT = 0;
  4493  0E7C  1683               	bsf	3,5	;RP0=1, select bank1
  4494  0E7D  1303               	bcf	3,6	;RP1=0, select bank1
  4495  0E7E  1291               	bcf	17,5	;volatile
  4496                           
  4497                           ;./I2Cmaestro.h: 84:     }else{
  4498  0E7F  2E83               	goto	l62
  4499  0E80                     l61:	
  4500                           
  4501                           ;./I2Cmaestro.h: 85:         SSPCON2bits.ACKDT = 1;
  4502  0E80  1683               	bsf	3,5	;RP0=1, select bank1
  4503  0E81  1303               	bcf	3,6	;RP1=0, select bank1
  4504  0E82  1691               	bsf	17,5	;volatile
  4505  0E83                     l62:	
  4506                           ;./I2Cmaestro.h: 86:     }
  4507                           
  4508                           
  4509                           ;./I2Cmaestro.h: 87:     SSPCON2bits.ACKEN = 1;
  4510  0E83  1611               	bsf	17,4	;volatile
  4511  0E84                     l1958:	
  4512                           
  4513                           ;./I2Cmaestro.h: 88:     return temp;
  4514  0E84  0875               	movf	I2C_Master_Read@temp+1,w
  4515  0E85  00F1               	movwf	?_I2C_Master_Read+1
  4516  0E86  0874               	movf	I2C_Master_Read@temp,w
  4517  0E87  00F0               	movwf	?_I2C_Master_Read
  4518  0E88                     l63:	
  4519  0E88  0008               	return
  4520  0E89                     __end_of_I2C_Master_Read:	
  4521                           
  4522                           	psect	text21
  4523  0DB6                     __ptext21:	
  4524 ;; *************** function _I2C_Master_Wait *****************
  4525 ;; Defined at:
  4526 ;;		line 32 in file "./I2Cmaestro.h"
  4527 ;; Parameters:    Size  Location     Type
  4528 ;;		None
  4529 ;; Auto vars:     Size  Location     Type
  4530 ;;		None
  4531 ;; Return value:  Size  Location     Type
  4532 ;;                  1    wreg      void 
  4533 ;; Registers used:
  4534 ;;		wreg, status,2
  4535 ;; Tracked objects:
  4536 ;;		On entry : 0/0
  4537 ;;		On exit  : 0/0
  4538 ;;		Unchanged: 0/0
  4539 ;; Data sizes:     COMMON   BANK0   BANK1   BANK3   BANK2
  4540 ;;      Params:         0       0       0       0       0
  4541 ;;      Locals:         0       0       0       0       0
  4542 ;;      Temps:          0       0       0       0       0
  4543 ;;      Totals:         0       0       0       0       0
  4544 ;;Total ram usage:        0 bytes
  4545 ;; Hardware stack levels used:    1
  4546 ;; This function calls:
  4547 ;;		Nothing
  4548 ;; This function is called by:
  4549 ;;		_I2C_Master_Start
  4550 ;;		_I2C_Master_Stop
  4551 ;;		_I2C_Master_Write
  4552 ;;		_I2C_Master_Read
  4553 ;; This function uses a non-reentrant model
  4554 ;;
  4555                           
  4556                           
  4557                           ;psect for function _I2C_Master_Wait
  4558  0DB6                     _I2C_Master_Wait:	
  4559  0DB6                     l1608:	
  4560                           ;incstack = 0
  4561                           ; Regs used in _I2C_Master_Wait: [wreg+status,2]
  4562                           
  4563  0DB6                     l46:	
  4564                           ;./I2Cmaestro.h: 34:     while ((SSPSTAT & 0x04) || (SSPCON2 & 0x1F));
  4565                           
  4566  0DB6  1683               	bsf	3,5	;RP0=1, select bank1
  4567  0DB7  1303               	bcf	3,6	;RP1=0, select bank1
  4568  0DB8  1914               	btfsc	20,2	;volatile
  4569  0DB9  2DBB               	goto	u1511
  4570  0DBA  2DBC               	goto	u1510
  4571  0DBB                     u1511:	
  4572  0DBB  2DB6               	goto	l46
  4573  0DBC                     u1510:	
  4574  0DBC                     l1610:	
  4575  0DBC  0811               	movf	17,w	;volatile
  4576  0DBD  391F               	andlw	31
  4577  0DBE  1D03               	btfss	3,2
  4578  0DBF  2DC1               	goto	u1521
  4579  0DC0  2DC2               	goto	u1520
  4580  0DC1                     u1521:	
  4581  0DC1  2DB6               	goto	l46
  4582  0DC2                     u1520:	
  4583  0DC2                     l49:	
  4584  0DC2  0008               	return
  4585  0DC3                     __end_of_I2C_Master_Wait:	
  4586                           
  4587                           	psect	text22
  4588  0EBA                     __ptext22:	
  4589 ;; *************** function _I2C_Master_Init *****************
  4590 ;; Defined at:
  4591 ;;		line 16 in file "./I2Cmaestro.h"
  4592 ;; Parameters:    Size  Location     Type
  4593 ;;  c               4    0[BANK0 ] const unsigned long 
  4594 ;; Auto vars:     Size  Location     Type
  4595 ;;		None
  4596 ;; Return value:  Size  Location     Type
  4597 ;;                  1    wreg      void 
  4598 ;; Registers used:
  4599 ;;		wreg, status,2, status,0, pclath, cstack
  4600 ;; Tracked objects:
  4601 ;;		On entry : 0/0
  4602 ;;		On exit  : 0/0
  4603 ;;		Unchanged: 0/0
  4604 ;; Data sizes:     COMMON   BANK0   BANK1   BANK3   BANK2
  4605 ;;      Params:         0       4       0       0       0
  4606 ;;      Locals:         0       0       0       0       0
  4607 ;;      Temps:          0       4       0       0       0
  4608 ;;      Totals:         0       8       0       0       0
  4609 ;;Total ram usage:        8 bytes
  4610 ;; Hardware stack levels used:    1
  4611 ;; Hardware stack levels required when called:    1
  4612 ;; This function calls:
  4613 ;;		___lldiv
  4614 ;; This function is called by:
  4615 ;;		_main
  4616 ;; This function uses a non-reentrant model
  4617 ;;
  4618                           
  4619                           
  4620                           ;psect for function _I2C_Master_Init
  4621  0EBA                     _I2C_Master_Init:	
  4622  0EBA                     l1922:	
  4623                           ;incstack = 0
  4624                           ; Regs used in _I2C_Master_Init: [wreg+status,2+status,0+pclath+cstack]
  4625                           
  4626                           
  4627                           ;./I2Cmaestro.h: 16: void I2C_Master_Init(const unsigned long c);./I2Cmaestro.h: 17: {;.
      +                          /I2Cmaestro.h: 18:     SSPCON = 0b00101000;
  4628  0EBA  3028               	movlw	40
  4629  0EBB  1283               	bcf	3,5	;RP0=0, select bank0
  4630  0EBC  1303               	bcf	3,6	;RP1=0, select bank0
  4631  0EBD  0094               	movwf	20	;volatile
  4632  0EBE                     l1924:	
  4633                           
  4634                           ;./I2Cmaestro.h: 19:     SSPCON2 = 0;
  4635  0EBE  1683               	bsf	3,5	;RP0=1, select bank1
  4636  0EBF  1303               	bcf	3,6	;RP1=0, select bank1
  4637  0EC0  0191               	clrf	17	;volatile
  4638  0EC1                     l1926:	
  4639                           
  4640                           ;./I2Cmaestro.h: 20:     SSPADD = (4000000/(4*c))-1;
  4641  0EC1  1283               	bcf	3,5	;RP0=0, select bank0
  4642  0EC2  1303               	bcf	3,6	;RP1=0, select bank0
  4643  0EC3  084B               	movf	I2C_Master_Init@c,w
  4644  0EC4  00CF               	movwf	??_I2C_Master_Init
  4645  0EC5  084C               	movf	I2C_Master_Init@c+1,w
  4646  0EC6  00D0               	movwf	??_I2C_Master_Init+1
  4647  0EC7  084D               	movf	I2C_Master_Init@c+2,w
  4648  0EC8  00D1               	movwf	??_I2C_Master_Init+2
  4649  0EC9  084E               	movf	I2C_Master_Init@c+3,w
  4650  0ECA  00D2               	movwf	??_I2C_Master_Init+3
  4651  0ECB  3002               	movlw	2
  4652  0ECC                     u2335:	
  4653  0ECC  1003               	clrc
  4654  0ECD  0DCF               	rlf	??_I2C_Master_Init,f
  4655  0ECE  0DD0               	rlf	??_I2C_Master_Init+1,f
  4656  0ECF  0DD1               	rlf	??_I2C_Master_Init+2,f
  4657  0ED0  0DD2               	rlf	??_I2C_Master_Init+3,f
  4658  0ED1                     u2330:	
  4659  0ED1  3EFF               	addlw	-1
  4660  0ED2  1D03               	skipz
  4661  0ED3  2ECC               	goto	u2335
  4662  0ED4  0852               	movf	??_I2C_Master_Init+3,w
  4663  0ED5  00F3               	movwf	___lldiv@divisor+3
  4664  0ED6  0851               	movf	??_I2C_Master_Init+2,w
  4665  0ED7  00F2               	movwf	___lldiv@divisor+2
  4666  0ED8  0850               	movf	??_I2C_Master_Init+1,w
  4667  0ED9  00F1               	movwf	___lldiv@divisor+1
  4668  0EDA  084F               	movf	??_I2C_Master_Init,w
  4669  0EDB  00F0               	movwf	___lldiv@divisor
  4670  0EDC  3000               	movlw	0
  4671  0EDD  00F7               	movwf	___lldiv@dividend+3
  4672  0EDE  303D               	movlw	61
  4673  0EDF  00F6               	movwf	___lldiv@dividend+2
  4674  0EE0  3009               	movlw	9
  4675  0EE1  00F5               	movwf	___lldiv@dividend+1
  4676  0EE2  3000               	movlw	0
  4677  0EE3  00F4               	movwf	___lldiv@dividend
  4678  0EE4  120A  118A  2004  120A  158A  	fcall	___lldiv
  4679  0EE9  0870               	movf	?___lldiv,w
  4680  0EEA  3EFF               	addlw	255
  4681  0EEB  1683               	bsf	3,5	;RP0=1, select bank1
  4682  0EEC  1303               	bcf	3,6	;RP1=0, select bank1
  4683  0EED  0093               	movwf	19	;volatile
  4684  0EEE                     l1928:	
  4685                           
  4686                           ;./I2Cmaestro.h: 21:     SSPSTAT = 0;
  4687  0EEE  0194               	clrf	20	;volatile
  4688  0EEF                     l1930:	
  4689                           
  4690                           ;./I2Cmaestro.h: 22:     TRISCbits.TRISC3 = 1;
  4691  0EEF  1587               	bsf	7,3	;volatile
  4692  0EF0                     l1932:	
  4693                           
  4694                           ;./I2Cmaestro.h: 23:     TRISCbits.TRISC4 = 1;
  4695  0EF0  1607               	bsf	7,4	;volatile
  4696  0EF1                     l43:	
  4697  0EF1  0008               	return
  4698  0EF2                     __end_of_I2C_Master_Init:	
  4699                           
  4700                           	psect	text23
  4701  0004                     __ptext23:	
  4702 ;; *************** function ___lldiv *****************
  4703 ;; Defined at:
  4704 ;;		line 5 in file "C:\Program Files (x86)\Microchip\xc8\v2.10\pic\sources\c90\common\__lldiv.c"
  4705 ;; Parameters:    Size  Location     Type
  4706 ;;  divisor         4    0[COMMON] unsigned long 
  4707 ;;  dividend        4    4[COMMON] unsigned long 
  4708 ;; Auto vars:     Size  Location     Type
  4709 ;;  quotient        4    9[COMMON] unsigned long 
  4710 ;;  counter         1   13[COMMON] unsigned char 
  4711 ;; Return value:  Size  Location     Type
  4712 ;;                  4    0[COMMON] unsigned long 
  4713 ;; Registers used:
  4714 ;;		wreg, status,2, status,0
  4715 ;; Tracked objects:
  4716 ;;		On entry : 0/0
  4717 ;;		On exit  : 0/0
  4718 ;;		Unchanged: 0/0
  4719 ;; Data sizes:     COMMON   BANK0   BANK1   BANK3   BANK2
  4720 ;;      Params:         8       0       0       0       0
  4721 ;;      Locals:         5       0       0       0       0
  4722 ;;      Temps:          1       0       0       0       0
  4723 ;;      Totals:        14       0       0       0       0
  4724 ;;Total ram usage:       14 bytes
  4725 ;; Hardware stack levels used:    1
  4726 ;; This function calls:
  4727 ;;		Nothing
  4728 ;; This function is called by:
  4729 ;;		_I2C_Master_Init
  4730 ;; This function uses a non-reentrant model
  4731 ;;
  4732                           
  4733                           
  4734                           ;psect for function ___lldiv
  4735  0004                     ___lldiv:	
  4736  0004                     l1620:	
  4737                           ;incstack = 0
  4738                           ; Regs used in ___lldiv: [wreg+status,2+status,0]
  4739                           
  4740  0004  3000               	movlw	0
  4741  0005  00FC               	movwf	___lldiv@quotient+3
  4742  0006  3000               	movlw	0
  4743  0007  00FB               	movwf	___lldiv@quotient+2
  4744  0008  3000               	movlw	0
  4745  0009  00FA               	movwf	___lldiv@quotient+1
  4746  000A  3000               	movlw	0
  4747  000B  00F9               	movwf	___lldiv@quotient
  4748  000C  0873               	movf	___lldiv@divisor+3,w
  4749  000D  0472               	iorwf	___lldiv@divisor+2,w
  4750  000E  0471               	iorwf	___lldiv@divisor+1,w
  4751  000F  0470               	iorwf	___lldiv@divisor,w
  4752  0010  1903               	skipnz
  4753  0011  2813               	goto	u1531
  4754  0012  2814               	goto	u1530
  4755  0013                     u1531:	
  4756  0013  2861               	goto	l1640
  4757  0014                     u1530:	
  4758  0014                     l1622:	
  4759  0014  01FD               	clrf	___lldiv@counter
  4760  0015  0AFD               	incf	___lldiv@counter,f
  4761  0016  2824               	goto	l1626
  4762  0017                     l1624:	
  4763  0017  3001               	movlw	1
  4764  0018  00F8               	movwf	??___lldiv
  4765  0019                     u1545:	
  4766  0019  1003               	clrc
  4767  001A  0DF0               	rlf	___lldiv@divisor,f
  4768  001B  0DF1               	rlf	___lldiv@divisor+1,f
  4769  001C  0DF2               	rlf	___lldiv@divisor+2,f
  4770  001D  0DF3               	rlf	___lldiv@divisor+3,f
  4771  001E  0BF8               	decfsz	??___lldiv,f
  4772  001F  2819               	goto	u1545
  4773  0020  3001               	movlw	1
  4774  0021  00F8               	movwf	??___lldiv
  4775  0022  0878               	movf	??___lldiv,w
  4776  0023  07FD               	addwf	___lldiv@counter,f
  4777  0024                     l1626:	
  4778  0024  1FF3               	btfss	___lldiv@divisor+3,7
  4779  0025  2827               	goto	u1551
  4780  0026  2828               	goto	u1550
  4781  0027                     u1551:	
  4782  0027  2817               	goto	l1624
  4783  0028                     u1550:	
  4784  0028                     l1628:	
  4785  0028  3001               	movlw	1
  4786  0029  00F8               	movwf	??___lldiv
  4787  002A                     u1565:	
  4788  002A  1003               	clrc
  4789  002B  0DF9               	rlf	___lldiv@quotient,f
  4790  002C  0DFA               	rlf	___lldiv@quotient+1,f
  4791  002D  0DFB               	rlf	___lldiv@quotient+2,f
  4792  002E  0DFC               	rlf	___lldiv@quotient+3,f
  4793  002F  0BF8               	decfsz	??___lldiv,f
  4794  0030  282A               	goto	u1565
  4795  0031                     l1630:	
  4796  0031  0873               	movf	___lldiv@divisor+3,w
  4797  0032  0277               	subwf	___lldiv@dividend+3,w
  4798  0033  1D03               	skipz
  4799  0034  283F               	goto	u1575
  4800  0035  0872               	movf	___lldiv@divisor+2,w
  4801  0036  0276               	subwf	___lldiv@dividend+2,w
  4802  0037  1D03               	skipz
  4803  0038  283F               	goto	u1575
  4804  0039  0871               	movf	___lldiv@divisor+1,w
  4805  003A  0275               	subwf	___lldiv@dividend+1,w
  4806  003B  1D03               	skipz
  4807  003C  283F               	goto	u1575
  4808  003D  0870               	movf	___lldiv@divisor,w
  4809  003E  0274               	subwf	___lldiv@dividend,w
  4810  003F                     u1575:	
  4811  003F  1C03               	skipc
  4812  0040  2842               	goto	u1571
  4813  0041  2843               	goto	u1570
  4814  0042                     u1571:	
  4815  0042  2852               	goto	l1636
  4816  0043                     u1570:	
  4817  0043                     l1632:	
  4818  0043  0870               	movf	___lldiv@divisor,w
  4819  0044  02F4               	subwf	___lldiv@dividend,f
  4820  0045  0871               	movf	___lldiv@divisor+1,w
  4821  0046  1C03               	skipc
  4822  0047  0F71               	incfsz	___lldiv@divisor+1,w
  4823  0048  02F5               	subwf	___lldiv@dividend+1,f
  4824  0049  0872               	movf	___lldiv@divisor+2,w
  4825  004A  1C03               	skipc
  4826  004B  0F72               	incfsz	___lldiv@divisor+2,w
  4827  004C  02F6               	subwf	___lldiv@dividend+2,f
  4828  004D  0873               	movf	___lldiv@divisor+3,w
  4829  004E  1C03               	skipc
  4830  004F  0F73               	incfsz	___lldiv@divisor+3,w
  4831  0050  02F7               	subwf	___lldiv@dividend+3,f
  4832  0051                     l1634:	
  4833  0051  1479               	bsf	___lldiv@quotient,0
  4834  0052                     l1636:	
  4835  0052  3001               	movlw	1
  4836  0053                     u1585:	
  4837  0053  1003               	clrc
  4838  0054  0CF3               	rrf	___lldiv@divisor+3,f
  4839  0055  0CF2               	rrf	___lldiv@divisor+2,f
  4840  0056  0CF1               	rrf	___lldiv@divisor+1,f
  4841  0057  0CF0               	rrf	___lldiv@divisor,f
  4842  0058  3EFF               	addlw	-1
  4843  0059  1D03               	skipz
  4844  005A  2853               	goto	u1585
  4845  005B                     l1638:	
  4846  005B  3001               	movlw	1
  4847  005C  02FD               	subwf	___lldiv@counter,f
  4848  005D  1D03               	btfss	3,2
  4849  005E  2860               	goto	u1591
  4850  005F  2861               	goto	u1590
  4851  0060                     u1591:	
  4852  0060  2828               	goto	l1628
  4853  0061                     u1590:	
  4854  0061                     l1640:	
  4855  0061  087C               	movf	___lldiv@quotient+3,w
  4856  0062  00F3               	movwf	?___lldiv+3
  4857  0063  087B               	movf	___lldiv@quotient+2,w
  4858  0064  00F2               	movwf	?___lldiv+2
  4859  0065  087A               	movf	___lldiv@quotient+1,w
  4860  0066  00F1               	movwf	?___lldiv+1
  4861  0067  0879               	movf	___lldiv@quotient,w
  4862  0068  00F0               	movwf	?___lldiv
  4863  0069                     l306:	
  4864  0069  0008               	return
  4865  006A                     __end_of___lldiv:	
  4866  007E                     btemp	set	126	;btemp
  4867  007E                     wtemp0	set	126


Data Sizes:
    Strings     14
    Constant    10
    Data        0
    BSS         45
    Persistent  0
    Stack       0

Auto Spaces:
    Space          Size  Autos    Used
    COMMON           14     14      14
    BANK0            80     37      80
    BANK1            80      0       2
    BANK3            96      0       0
    BANK2            96      0       0

Pointer List with Targets:

    imprimir@texto	PTR const unsigned char  size(1) Largest target is 5
		 -> STR_3(CODE[5]), STR_2(CODE[4]), STR_1(CODE[5]), 


Critical Paths under _main in COMMON

    _on_off->___flge
    _iniciarLCD->_comando
    _conversion->___flmul
    ___fltol->___flmul
    ___flmul->__Umul8_16
    _colocar->_comando
    _borrarv->_comando
    _I2C_Master_Init->___lldiv

Critical Paths under _main in BANK0

    _main->_conversion
    _conversion->___fltol
    ___fltol->___flmul

Critical Paths under _main in BANK1

    None.

Critical Paths under _main in BANK3

    None.

Critical Paths under _main in BANK2

    None.

Call Graph Tables:

 ---------------------------------------------------------------------------------
 (Depth) Function   	        Calls       Base Space   Used Autos Params    Refs
 ---------------------------------------------------------------------------------
 (0) _main                                                 3     3      0    7284
                                             34 BANK0      3     3      0
                    _I2C_Master_Init
                    _I2C_Master_Read
                   _I2C_Master_Start
                    _I2C_Master_Stop
                   _I2C_Master_Write
                            _borrarv
                            _colocar
                         _conversion
                           _imprimir
                         _iniciarLCD
                         _iniciarOSC
                            _mostrar
                             _on_off
                              _setup
 ---------------------------------------------------------------------------------
 (1) _setup                                                0     0      0       0
 ---------------------------------------------------------------------------------
 (1) _on_off                                               0     0      0     486
                             ___flge
 ---------------------------------------------------------------------------------
 (2) ___flge                                              12     4      8     486
                                              0 COMMON    12     4      8
 ---------------------------------------------------------------------------------
 (1) _mostrar                                              3     3      0      22
                                              0 COMMON     3     3      0
 ---------------------------------------------------------------------------------
 (1) _iniciarOSC                                           3     3      0      22
                                              0 COMMON     3     3      0
 ---------------------------------------------------------------------------------
 (1) _iniciarLCD                                           2     2      0      22
                                              3 COMMON     2     2      0
                            _comando
 ---------------------------------------------------------------------------------
 (2) _imprimir                                             5     5      0     189
                                              0 COMMON     5     5      0
 ---------------------------------------------------------------------------------
 (1) _conversion                                           2     2      0    5278
                                             32 BANK0      2     2      0
                            ___awdiv
                            ___awmod
                            ___flmul
                            ___fltol
 ---------------------------------------------------------------------------------
 (2) ___fltol                                             11     7      4     305
                                             21 BANK0     11     7      4
                            ___flmul (ARG)
 ---------------------------------------------------------------------------------
 (2) ___flmul                                             26    18      8    2553
                                              9 COMMON     5     5      0
                                              0 BANK0     21    13      8
                          __Umul8_16
 ---------------------------------------------------------------------------------
 (3) __Umul8_16                                            9     7      2     799
                                              0 COMMON     9     7      2
 ---------------------------------------------------------------------------------
 (2) ___awmod                                              7     3      4    1208
                                              0 COMMON     7     3      4
 ---------------------------------------------------------------------------------
 (2) ___awdiv                                              9     5      4    1212
                                              0 COMMON     9     5      4
 ---------------------------------------------------------------------------------
 (1) _colocar                                              4     3      1     612
                                              3 COMMON     4     3      1
                            _comando
 ---------------------------------------------------------------------------------
 (1) _borrarv                                              0     0      0      22
                            _comando
 ---------------------------------------------------------------------------------
 (2) _comando                                              3     3      0      22
                                              0 COMMON     3     3      0
 ---------------------------------------------------------------------------------
 (1) _I2C_Master_Write                                     2     0      2      98
                                              0 COMMON     2     0      2
                    _I2C_Master_Wait
 ---------------------------------------------------------------------------------
 (1) _I2C_Master_Stop                                      0     0      0       0
                    _I2C_Master_Wait
 ---------------------------------------------------------------------------------
 (1) _I2C_Master_Start                                     0     0      0       0
                    _I2C_Master_Wait
 ---------------------------------------------------------------------------------
 (1) _I2C_Master_Read                                      6     4      2     121
                                              0 COMMON     6     4      2
                    _I2C_Master_Wait
 ---------------------------------------------------------------------------------
 (2) _I2C_Master_Wait                                      0     0      0       0
 ---------------------------------------------------------------------------------
 (1) _I2C_Master_Init                                      8     4      4     412
                                              0 BANK0      8     4      4
                            ___lldiv
 ---------------------------------------------------------------------------------
 (2) ___lldiv                                             14     6      8     314
                                              0 COMMON    14     6      8
 ---------------------------------------------------------------------------------
 Estimated maximum stack depth 3
 ---------------------------------------------------------------------------------

 Call Graph Graphs:

 _main (ROOT)
   _I2C_Master_Init
     ___lldiv
   _I2C_Master_Read
     _I2C_Master_Wait
   _I2C_Master_Start
     _I2C_Master_Wait
   _I2C_Master_Stop
     _I2C_Master_Wait
   _I2C_Master_Write
     _I2C_Master_Wait
   _borrarv
     _comando
   _colocar
     _comando
   _conversion
     ___awdiv
     ___awmod
     ___flmul
       __Umul8_16
     ___fltol
       ___flmul (ARG)
         __Umul8_16
   _imprimir
   _iniciarLCD
     _comando
   _iniciarOSC
   _mostrar
   _on_off
     ___flge
   _setup

 Address spaces:
Name               Size   Autos  Total    Cost      Usage
BITCOMMON            E      0       0       0        0.0%
EEDATA             100      0       0       0        0.0%
NULL                 0      0       0       0        0.0%
CODE                 0      0       0       0        0.0%
COMMON               E      E       E       1      100.0%
BITSFR0              0      0       0       1        0.0%
SFR0                 0      0       0       1        0.0%
BITSFR1              0      0       0       2        0.0%
SFR1                 0      0       0       2        0.0%
STACK                0      0       0       2        0.0%
ABS                  0      0      60       3        0.0%
BITBANK0            50      0       0       4        0.0%
BITSFR3              0      0       0       4        0.0%
SFR3                 0      0       0       4        0.0%
BANK0               50     25      50       5      100.0%
BITSFR2              0      0       0       5        0.0%
SFR2                 0      0       0       5        0.0%
BITBANK1            50      0       0       6        0.0%
BANK1               50      0       2       7        2.5%
BITBANK3            60      0       0       8        0.0%
BANK3               60      0       0       9        0.0%
BITBANK2            60      0       0      10        0.0%
BANK2               60      0       0      11        0.0%
DATA                 0      0      60      12        0.0%


Microchip Technology PIC Macro Assembler V2.10 build 88905656 
Symbol Table                                                                                   Sun Mar 15 03:30:52 2020

                        _a 0806                          _x 0040                          _y 0038  
                        _z 0030                          pc 0002                __CFG_CP$OFF 0000  
                       l43 0EF1                         l52 0DA2                         l61 0E80  
                       l46 0DB6                         l62 0E83                         l63 0E88  
                       l55 0DAB                         l72 0DE7                         l49 0DC2  
                       l81 0EAC                         l58 0DB5                         l66 0DFB  
                       l82 0E8D                         l84 0EB9                         l92 0FFE  
                       l69 0F45                         l78 0E33                         l87 0E0F  
             ___awdiv@sign 0076                         _x1 003E                         _x2 003C  
                       _x3 003A                         _y1 0036                         _y2 0034  
                       _y3 0032                         _z1 002E                         _z2 002C  
                       _z3 002A                         _z4 0028                         fsr 0004  
      __Umul8_16@word_mpld 0076                        l101 0FFF                        l152 048D  
                      l306 0069                        l164 01D4                        l423 00D0  
                      l176 0DD4                        l436 0F9E                        l444 01F1  
                      l463 0137                        l447 025D                        l456 014C  
                      l448 0276                        l466 014C                        l716 0E48  
                      l718 0E5A                        l671 07E2                        l665 075A  
                      l659 07EE                        _MQ2 004A               __CFG_CPD$OFF 0000  
                      _Luz 0044                        fsr0 0004                        indf 0000  
             ___awmod@sign 0076               ___flmul@aexp 0058               ___flmul@bexp 0059  
              colocar@temp 0076               ___flmul@sign 0053               ___flmul@temp 005E  
             ___flmul@prod 005A               __CFG_LVP$OFF 0000               ___fltol@exp1 006A  
                     l2000 0E8A                       l2010 0EA6                       l2002 0E90  
                     l2004 0E99                       l2020 0FA0                       l2012 0DFD  
                     l2100 01B6                       l2006 0E9A                       l2030 0FBB  
                     l2022 0FA1                       l2014 0E00                       l2102 01D1  
                     l2110 0DCD                       l2008 0EA3                       l2032 0FC2  
                     l2024 0FA6                       l2016 0E02                       l2112 0DCE  
                     l2104 0DC3                       l2050 0370                       l2034 0FC9  
                     l2026 0FAD                       l2042 0FDC                       l2018 0E0C  
                     l2106 0DCA                       l2060 03C3                       l2052 0383  
                     l2036 0FD0                       l2028 0FB4                       l2108 0DCB  
                     l2070 0417                       l2062 03D6                       l2054 0396  
                     l2038 0FD5                       l2150 0296                       l2142 0277  
                     l1600 0E42                       l2072 0441                       l2064 03E9  
                     l2056 03A9                       l2048 036C                       l2080 014D  
                     l2160 02C5                       l2152 029B                       l2144 027D  
                     l1610 0DBC                       l1602 0E51                       l2074 0454  
                     l2066 03FC                       l2058 03BC                       l2090 0181  
                     l2082 015C                       l2170 02F4                       l2162 02D3  
                     l2154 02A9                       l2146 0282                       l1620 0004  
                     l1612 0DE9                       l1700 0F5B                       l1604 0E56  
                     l2076 0467                       l2068 040F                       l2092 0185  
                     l2084 0160                       l2180 032F                       l2172 0303  
                     l2164 02D8                       l2156 02B1                       l2148 0291  
                     l1630 0031                       l1622 0014                       l1614 0DEC  
                     l1710 0F73                       l1702 0F61                       l2078 047A  
                     l2094 0194                       l2086 016F                       l2182 033E  
                     l2174 0308                       l2166 02E1                       l2158 02BF  
                     l1632 0043                       l1624 0017                       l1640 0061  
                     l1608 0DB6                       l1616 0DEE                       l1720 0F95  
                     l1712 0F7D                       l1704 0F64                       l1800 04BC  
                     l2096 0197                       l2088 0172                       l2184 034A  
                     l2176 0314                       l2168 02EF                       l1634 0051  
                     l1626 0024                       l1618 0DF8                       l1650 0074  
                     l1722 0F9A                       l1714 0F83                       l1706 0F6B  
                     l1810 04D1                       l1802 04C1                       l1730 0205  
                     l2098 01B2                       l2186 0359                       l2178 0323  
                     l1636 0052                       l1628 0028                       l1660 0085  
                     l1652 0076                       l1644 006A                       l1716 0F8A  
                     l1708 0F6F                       l1900 0795                       l1820 04ED  
                     l1812 04D6                       l1804 04C7                       l1740 0273  
                     l1732 020D                       l2188 0363                       l1638 005B  
                     l1670 009D                       l1662 008B                       l1654 007A  
                     l1646 006B                       l1718 0F90                       l1910 07C8  
                     l1902 07A2                       l1830 0518                       l1822 04F2  
                     l1814 04DE                       l1806 04CB                       l1742 0275  
                     l1734 0211                       l1726 01D5                       l1672 00AE  
                     l1664 008E                       l1680 00C2                       l1656 007F  
                     l1648 006F                       l1912 07D6                       l1904 07AD  
                     l1840 05B5                       l1832 0535                       l1816 04E0  
                     l1808 04CC                       l1760 0107                       l1752 00E7  
                     l1736 0235                       l1728 01E9                       l1930 0EEF  
                     l1922 0EBA                       l1682 00C7                       l1674 00B4  
                     l1666 0095                       l1658 0083                       l1690 0F47  
                     l1594 0E35                       l1914 07DA                       l1906 07BC  
                     l1850 0618                       l1842 05BE                       l1834 0551  
                     l1826 04FB                       l1818 04E8                       l1762 010B  
                     l1770 0125                       l1754 00FC                       l1746 00D1  
                     l1738 0239                       l1932 0EF0                       l1924 0EBE  
                     l1940 0DA8                       l1684 00CC                       l1676 00B5  
                     l1668 0099                       l1692 0F4B                       l1596 0E37  
                     l1916 07DB                       l1908 07C6                       l1860 06B8  
                     l1852 0631                       l1844 05CE                       l1836 057D  
                     l1828 050B                       l1780 0141                       l1756 00FD  
                     l1748 00DE                       l2396 0FE4                       l1926 0EC1  
                     l1950 0E68                       l1934 0D9A                       l1942 0DAC  
                     l1678 00BC                       l1694 0F50                       l1598 0E3E  
                     l1918 07E6                       l1870 0726                       l1862 06DE  
                     l1854 064E                       l1846 05EB                       l1838 0599  
                     l1790 04A0                       l1782 048E                       l1758 0105  
                     l1928 0EEE                       l1952 0E71                       l1936 0D9F  
                     l1944 0DB1                       l1696 0F52                       l1688 0F46  
                     l1880 073E                       l1872 072A                       l1864 0706  
                     l1856 067B                       l1848 05FB                       l1792 04A5  
                     l1784 0495                       l1776 012C                       l1768 0113  
                     l1954 0E76                       l1946 0E5B                       l1938 0DA3  
                     l1698 0F56                       l1890 075F                       l1882 073F  
                     l1874 072B                       l1866 070F                       l1858 068B  
                     l1794 04AA                       l1786 049B                       l1778 013C  
                     l1970 0F13                       l1962 0EF2                       l1956 0E7C  
                     l1948 0E60                       l1892 0764                       l1884 0743  
                     l1876 0734                       l1868 071D                       l1796 04B2  
                     l1788 049F                       l1980 0F33                       l1972 0F19  
                     l1964 0EF5                       l1958 0E84                       l1990 0E16  
                     l1894 0772                       l1886 0757                       l1878 073A  
                     l1798 04B4                       l1982 0F39                       l1974 0F23  
                     l1966 0EFB                       l1992 0E1B                       l1896 0776  
                     l1984 0F3F                       l1976 0F27                       l1968 0F04  
                     l1986 0DD5                       l1994 0E22                       l1898 078F  
                     l1978 0F2D                       l1996 0E28                       l1988 0E11  
                     l1998 0E2D                       STR_1 0810                       STR_2 081A  
                     STR_3 0815                       _LM35 0048                       u2000 04D1  
                     u2001 04D0                       u2010 04D6                       u2011 04D5  
                     u2020 04ED                       u2101 060A                       u2021 04EC  
                     u2102 0611                       u2030 04F2                       u2103 0618  
                     u2031 04F1                       u2121 0640                       u2041 0543  
                     u2210 072A                       u2122 0647                       u2042 054A  
                     u2211 0729                       u2131 066D                       u2123 064E  
                     u2115 061A                       u2051 055F                       u2043 0551  
                     u1500 0E56                       u2300 07A2                       u2132 0674  
                     u2052 0566                       u1501 0E55                       u2301 07A1  
                     u2205 071F                       u2141 069A                       u2133 067B  
                     u2061 058B                       u2053 056D                       u1510 0DBC  
                     u2310 07BC                       u2230 073E                       u2150 06C4  
                     u2142 06A1                       u2062 0592                       u1511 0DBB  
                     u2311 07BB                       u2231 073D                       u2143 06A8  
                     u2071 05A7                       u2063 0599                       u3007 0F0E  
                     u1520 0DC2                       u1600 006F                       u2320 07DA  
                     u2240 0743                       u2072 05AE                       u2400 0181  
                     u1521 0DC1                       u1601 006E                       u2321 07D9  
                     u2305 079E                       u2241 0742                       u2225 072D  
                     u2161 06D0                       u2073 05B5                       u3017 0F1B  
                     u2401 0180                       u1530 0014                       u2330 0ED1  
                     u1610 007A                       u2250 0757                       u2170 06EC  
                     u2162 06D7                       u2410 0194                       u1531 0013  
                     u1611 0079                       u2315 07B8                       u2251 0756  
                     u2163 06DE                       u2155 06BF                       u2091 05DD  
                     u3027 0F25                       u2411 0193                       u2340 0E7C  
                     u1620 008B                       u1700 0F4B                       u2260 075E  
                     u2092 05E4                       u2420 01B2                       u2341 0E7B  
                     u1621 008A                       u1701 0F4A                       u2261 075D  
                     u2181 06F8                       u2093 05EB                       u2085 05B7  
                     u3037 0E9E                       u2421 01B1                       u2405 017D  
                     u1550 0028                       u2350 0E16                       u1710 0F56  
                     u2270 0764                       u2182 06FF                       u2430 01D1  
                     u1551 0027                       u2335 0ECC                       u3047 0DF3  
                     u2351 0E15                       u1711 0F55                       u2271 0763  
                     u2183 0706                       u2175 06E7                       u2431 01D0  
                     u2415 0190                       u2360 0E28                       u1640 009D  
                     u1720 0F61                       u1480 0E42                       u2280 0776  
                     u1800 0205                       u1545 0019                       u2361 0E27  
                     u1641 009C                       u1721 0F60                       u1481 0E41  
                     u2281 0775                       u1801 0204                       u1570 0043  
                     u2290 0785                       u2370 0EB9                       u1810 0211  
                     u1571 0042                       u1635 008F                       u2195 0708  
                     u2371 0EB8                       u1811 0210                       u1660 00AE  
                     u1740 0F73                       u2380 015C                       u1565 002A  
                     u1661 00AD                       u1741 0F72                       u1821 0220  
                     u2381 015B                       u1590 0061                       u1750 0F7D  
                     u1910 0124                       u1830 0239                       u1822 0221  
                     u2390 016F                       u1591 0060                       u1575 003F  
                     u1655 009E                       u1751 0F7C                       u1735 0F65  
                     u1495 0E49                       u2295 0780                       u1911 0123  
                     u1831 0238                       u1823 0226                       u2391 016E  
                     u1680 00C2                       u1920 012B                       u1824 0227  
                     u1585 0053                       u1681 00C1                       u1665 00AA  
                     u1921 012A                       u1905 0114                       u1841 0248  
                     u1825 022C                       u2385 0158                       u1690 00C7  
                     u1770 0F90                       u1850 0273                       u1842 0249  
                     u1826 022D                       u1691 00C6                       u1675 00B6  
                     u1771 0F8F                       u1755 0F79                       u1851 0272  
                     u1843 024E                       u2395 016B                       u1780 0F95  
                     u1940 013C                       u1860 00DE                       u1844 024F  
                     u1781 0F94                       u1765 0F84                       u1941 013B  
                     u1861 00DD                       u1845 0254                       u1950 0141  
                     u1870 00F5                       u1846 0255                       u1790 01E9  
                     u1951 0140                       u1935 012E                       u1855 026F  
                     u1791 01E8                       u1960 049F                       u1880 010B  
                     u1961 049E                       u1881 010A                       u1970 04A5  
                     u1890 0112                       u1971 04A4                       u1891 0111  
                     u1875 00F0                       u1980 04AA                       u1981 04A9  
                     u1990 04CB                       u1991 04CA                       u2957 02A3  
                     u2967 02FC                       u2977 035F                       u2987 0E07  
                     u2997 0EFF                       _Humo 0046               __CFG_WRT$OFF 0000  
                     _main 0277                       btemp 007E                       start 0000  
            __CFG_IESO$OFF 0000           ?_I2C_Master_Init 004B           ?_I2C_Master_Read 0070  
         ?_I2C_Master_Wait 0070           ?_I2C_Master_Stop 0070              ___fltol@sign1 0069  
                    ?_main 0070            __end_of___awdiv 00D1              __CFG_WDTE$OFF 0000  
          __end_of___awmod 0F9F            __end_of___flmul 07EF            __end_of___fltol 014D  
                    _ANSEL 0188            __end_of___lldiv 006A            ___awdiv@divisor 0070  
          ___awdiv@counter 0075                      _PORTA 0005                      _PORTB 0006  
                    _PORTC 0007                      _TRISA 0085                      _TRISB 0086  
                    _Fotor 0049             __CFG_FCMEN$OFF 0000                      _Tempe 0020  
          __end_of_comando 0DFC            __end_of_colocar 0E34            __end_of_borrarv 0DE8  
            imprimir@texto 0074                      _setup 0DC3             __CFG_BOREN$OFF 0000  
                    pclath 000A            __end_of_mostrar 0E10                      status 0003  
                    wtemp0 007E             __CFG_MCLRE$OFF 0000            __initialization 07EF  
             __end_of_main 036C                     ??_main 006D          ?_I2C_Master_Start 0070  
        ?_I2C_Master_Write 0070         ??_I2C_Master_Start 0070         ??_I2C_Master_Write 0072  
         ___awdiv@dividend 0072                     ?_setup 0070                     _ANSELH 0189  
                   _SSPADD 0093                     _SSPCON 0014                     _SSPBUF 0013  
           __CFG_PWRTE$OFF 0000                     _Tiempo 0042                     ___flge 01D5  
                ??___awdiv 0074                  ??___awmod 0074                  ??___flmul 0079  
                ??___fltol 0064                  ??___lldiv 0078             iniciarOSC@frec 0072  
                   _on_off 014D           ___awdiv@quotient 0077            ___awmod@divisor 0070  
         __end_of_imprimir 0EBA            ___awmod@counter 0075                  ??_comando 0070  
                ??_colocar 0074                  ??_borrarv 0073         __size_of__Umul8_16 0027  
                ??_mostrar 0070                 ___flge@ff1 0070                 ___flge@ff2 0074  
  __end_of__initialization 07FC                 ___fltol@f1 0060             __pcstackCOMMON 0070  
            __end_of_setup 0DD5                    ??_setup 0070                 __pbssBANK0 0020  
               __pbssBANK1 00A0          __end_of__Umul8_16 0E5B                 __pmaintext 0277  
                  ?___flge 0070                    ?_on_off 0070                    _SSPCON2 0091  
                  _SSPSTAT 0094                 __stringtab 0800                 _conversion 036C  
                ?_imprimir 0070                 _iniciarLCD 0EF2                 _iniciarOSC 0F9F  
          __size_of___flge 00A2                    ___awdiv 006A                    ___awmod 0F46  
                  ___flmul 048E                    ___fltol 00D1                    ___lldiv 0004  
          __size_of_on_off 0088                    __ptext1 0DC3                    __ptext2 014D  
                  __ptext3 01D5                    __ptext4 0DFC                    __ptext5 0F9F  
                  __ptext6 0EF2                    __ptext7 0E89                    __ptext8 036C  
                  __ptext9 00D1                    _comando 0DE8                    _colocar 0E10  
                  _borrarv 0DD5                    _estado1 0026                    _estado2 0024  
         ___awmod@dividend 0072   __size_of_I2C_Master_Init 0038   __size_of_I2C_Master_Read 002E  
 __size_of_I2C_Master_Wait 000D   __size_of_I2C_Master_Stop 0009                    _mostrar 0DFC  
                  clrloop0 0D93       end_of_initialization 07FC                 ??_imprimir 0070  
__size_of_I2C_Master_Start 0009  __size_of_I2C_Master_Write 000A            ___lldiv@divisor 0070  
          ___lldiv@counter 007D           I2C_Master_Init@c 004B           I2C_Master_Read@a 0070  
                _PORTAbits 0005                  _PORTDbits 0008                  _TRISAbits 0085  
                _TRISCbits 0087                  _TRISDbits 0088                ___flmul@grs 0054  
              ?_conversion 0070                ?_iniciarLCD 0070                ?_iniciarOSC 0070  
           __end_of___flge 0277             __end_of_on_off 01D5        start_initialization 07EF  
        ??_I2C_Master_Init 004F          ??_I2C_Master_Read 0072          ??_I2C_Master_Wait 0070  
        ??_I2C_Master_Stop 0070   __CFG_FOSC$INTRC_NOCLKOUT 0000                   ??___flge 0078  
                __Umul8_16 0E34                   ??_on_off 007C        __size_of_conversion 0122  
                ___flmul@a 004F                  ___flmul@b 004B                  ___latbits 0002  
            __pcstackBANK0 004B        __size_of_iniciarLCD 0054        __size_of_iniciarOSC 0061  
                __end_of_a 0810           _I2C_Master_Start 0D9A           _I2C_Master_Write 0DAC  
        __size_of_imprimir 0031                   ?___awdiv 0070                   ?___awmod 0070  
                 ?___flmul 004B                   ?___fltol 0060                   ?___lldiv 0070  
               ?__Umul8_16 0070                  __pstrings 0800                   ?_comando 0070  
                 ?_colocar 0073                   ?_borrarv 0070                   ?_mostrar 0070  
           __size_of_setup 0012                  clear_ram0 0D92                __stringbase 0805  
      I2C_Master_Read@temp 0074               ??_conversion 006B               ??_iniciarLCD 0073  
             ??_iniciarOSC 0070                ??__Umul8_16 0072           __size_of___awdiv 0067  
         __size_of___awmod 0059           __size_of___flmul 0361           __size_of___fltol 007C  
         __size_of___lldiv 0066         __end_of__stringtab 0806                  imprimir@i 0072  
         __size_of_comando 0014           __size_of_colocar 0024           __size_of_borrarv 0013  
       __end_of_conversion 048E            _I2C_Master_Init 0EBA            _I2C_Master_Read 0E5B  
          _I2C_Master_Wait 0DB6            _I2C_Master_Stop 0DA3         __end_of_iniciarLCD 0F46  
                 __ptext10 048E                   __ptext11 0E34                   __ptext20 0E5B  
                 __ptext12 0F46                   __ptext21 0DB6                   __ptext13 006A  
                 __ptext22 0EBA                   __ptext14 0E10                   __ptext23 0004  
                 __ptext15 0DD5                   __ptext16 0DE8                   __ptext17 0DAC  
                 __ptext18 0DA3                   __ptext19 0D9A         __end_of_iniciarOSC 1000  
        __CFG_BOR4V$BOR40V 0000           __size_of_mostrar 0014              __size_of_main 00F5  
                 _imprimir 0E89                   _posicion 00A0                   comando@x 0072  
                 colocar@x 0075                   colocar@y 0073   __end_of_I2C_Master_Start 0DA3  
 __end_of_I2C_Master_Write 0DB6           ___lldiv@dividend 0074                  stringcode 0800  
               _OSCCONbits 008F                   mostrar@t 0072    __end_of_I2C_Master_Init 0EF2  
  __end_of_I2C_Master_Read 0E89    __end_of_I2C_Master_Wait 0DC3    __end_of_I2C_Master_Stop 0DAC  
   __Umul8_16@multiplicand 0070           ___lldiv@quotient 0079          I2C_Master_Write@d 0070  
                 stringdir 0800                   stringtab 0800                _SSPCON2bits 0091  
     __Umul8_16@multiplier 0078          __Umul8_16@product 0074  
